
hello.elf:     file format elf32-littleriscv


Disassembly of section .text:

80000000 <_start>:
80000000:	00000093          	li	ra,0
80000004:	00011117          	auipc	sp,0x11
80000008:	cfc10113          	addi	sp,sp,-772 # 80010d00 <_DYNAMIC>
8000000c:	00018193          	mv	gp,gp
80000010:	00000193          	li	gp,0
80000014:	00000213          	li	tp,0
80000018:	00000293          	li	t0,0
8000001c:	00000313          	li	t1,0
80000020:	00000393          	li	t2,0
80000024:	00000413          	li	s0,0
80000028:	00000493          	li	s1,0
8000002c:	00000513          	li	a0,0
80000030:	00000593          	li	a1,0
80000034:	00000613          	li	a2,0
80000038:	00000693          	li	a3,0
8000003c:	00000713          	li	a4,0
80000040:	00000793          	li	a5,0
80000044:	00000813          	li	a6,0
80000048:	00000893          	li	a7,0
8000004c:	00000913          	li	s2,0
80000050:	00000993          	li	s3,0
80000054:	00000a13          	li	s4,0
80000058:	00000a93          	li	s5,0
8000005c:	00000b13          	li	s6,0
80000060:	00000b93          	li	s7,0
80000064:	00000c13          	li	s8,0
80000068:	00000c93          	li	s9,0
8000006c:	00000d13          	li	s10,0
80000070:	00000d93          	li	s11,0
80000074:	00000e13          	li	t3,0
80000078:	00000e93          	li	t4,0
8000007c:	00000f13          	li	t5,0
80000080:	00000f93          	li	t6,0
80000084:	00011517          	auipc	a0,0x11
80000088:	d7c50513          	addi	a0,a0,-644 # 80010e00 <buf>
8000008c:	00011617          	auipc	a2,0x11
80000090:	d8860613          	addi	a2,a2,-632 # 80010e14 <_ebss>
80000094:	40a60633          	sub	a2,a2,a0
80000098:	00000593          	li	a1,0
8000009c:	285020ef          	jal	80002b20 <memset>
800000a0:	269000ef          	jal	80000b08 <main>

800000a4 <loop>:
800000a4:	0000006f          	j	800000a4 <loop>

800000a8 <exit>:
800000a8:	0000006f          	j	800000a8 <exit>

800000ac <enable>:
800000ac:	30046573          	csrrsi	a0,mstatus,8
800000b0:	00008067          	ret

800000b4 <disable>:
800000b4:	30047573          	csrrci	a0,mstatus,8
800000b8:	00008067          	ret

800000bc <restore>:
800000bc:	30051073          	csrw	mstatus,a0
800000c0:	00008067          	ret

800000c4 <enable_interrupt_status>:
800000c4:	00800293          	li	t0,8
800000c8:	3002a073          	csrs	mstatus,t0
800000cc:	00008067          	ret

800000d0 <enable_interrupt>:
800000d0:	00100293          	li	t0,1
800000d4:	00a292b3          	sll	t0,t0,a0
800000d8:	3042a073          	csrs	mie,t0
800000dc:	00008067          	ret

800000e0 <disable_interrupt_status>:
800000e0:	00800293          	li	t0,8
800000e4:	3002b073          	csrc	mstatus,t0
800000e8:	00008067          	ret

800000ec <disable_interrupt>:
800000ec:	00100293          	li	t0,1
800000f0:	00a292b3          	sll	t0,t0,a0
800000f4:	3042b073          	csrc	mie,t0
800000f8:	00008067          	ret

800000fc <clear_interrupts>:
800000fc:	00000293          	li	t0,0
80000100:	34429073          	csrw	mip,t0
80000104:	00008067          	ret

80000108 <soft_trap>:
80000108:	00800293          	li	t0,8
8000010c:	3442a073          	csrs	mip,t0
80000110:	00008067          	ret

80000114 <csr_read_dynamic>:
80000114:	333028f3          	csrr	a7,mhpmevent19
80000118:	00000013          	nop
8000011c:	00000013          	nop
80000120:	00088513          	mv	a0,a7
80000124:	00008067          	ret

80000128 <test_basic_operations>:
80000128:	ff010113          	addi	sp,sp,-16
8000012c:	00112623          	sw	ra,12(sp)
80000130:	80007537          	lui	a0,0x80007
80000134:	f8050513          	addi	a0,a0,-128 # 80006f80 <_PROCEDURE_LINKAGE_TABLE_>
80000138:	2d9030ef          	jal	80003c10 <printf>
8000013c:	00700613          	li	a2,7
80000140:	00f00593          	li	a1,15
80000144:	80007537          	lui	a0,0x80007
80000148:	fa850513          	addi	a0,a0,-88 # 80006fa8 <_PROCEDURE_LINKAGE_TABLE_+0x28>
8000014c:	2c5030ef          	jal	80003c10 <printf>
80000150:	01600593          	li	a1,22
80000154:	80007537          	lui	a0,0x80007
80000158:	fb850513          	addi	a0,a0,-72 # 80006fb8 <_PROCEDURE_LINKAGE_TABLE_+0x38>
8000015c:	2b5030ef          	jal	80003c10 <printf>
80000160:	00800593          	li	a1,8
80000164:	80007537          	lui	a0,0x80007
80000168:	fcc50513          	addi	a0,a0,-52 # 80006fcc <_PROCEDURE_LINKAGE_TABLE_+0x4c>
8000016c:	2a5030ef          	jal	80003c10 <printf>
80000170:	00700593          	li	a1,7
80000174:	80007537          	lui	a0,0x80007
80000178:	fe050513          	addi	a0,a0,-32 # 80006fe0 <_PROCEDURE_LINKAGE_TABLE_+0x60>
8000017c:	295030ef          	jal	80003c10 <printf>
80000180:	00f00593          	li	a1,15
80000184:	80007537          	lui	a0,0x80007
80000188:	ff850513          	addi	a0,a0,-8 # 80006ff8 <_PROCEDURE_LINKAGE_TABLE_+0x78>
8000018c:	285030ef          	jal	80003c10 <printf>
80000190:	00800593          	li	a1,8
80000194:	80007537          	lui	a0,0x80007
80000198:	01050513          	addi	a0,a0,16 # 80007010 <_PROCEDURE_LINKAGE_TABLE_+0x90>
8000019c:	275030ef          	jal	80003c10 <printf>
800001a0:	80007537          	lui	a0,0x80007
800001a4:	02850513          	addi	a0,a0,40 # 80007028 <_PROCEDURE_LINKAGE_TABLE_+0xa8>
800001a8:	269030ef          	jal	80003c10 <printf>
800001ac:	00c12083          	lw	ra,12(sp)
800001b0:	01010113          	addi	sp,sp,16
800001b4:	00008067          	ret

800001b8 <test_shift_operations>:
800001b8:	ff010113          	addi	sp,sp,-16
800001bc:	00112623          	sw	ra,12(sp)
800001c0:	80007537          	lui	a0,0x80007
800001c4:	02c50513          	addi	a0,a0,44 # 8000702c <_PROCEDURE_LINKAGE_TABLE_+0xac>
800001c8:	249030ef          	jal	80003c10 <printf>
800001cc:	123455b7          	lui	a1,0x12345
800001d0:	67858593          	addi	a1,a1,1656 # 12345678 <_start-0x6dcba988>
800001d4:	80007537          	lui	a0,0x80007
800001d8:	05c50513          	addi	a0,a0,92 # 8000705c <_PROCEDURE_LINKAGE_TABLE_+0xdc>
800001dc:	235030ef          	jal	80003c10 <printf>
800001e0:	234565b7          	lui	a1,0x23456
800001e4:	78058593          	addi	a1,a1,1920 # 23456780 <_start-0x5cba9880>
800001e8:	80007537          	lui	a0,0x80007
800001ec:	07450513          	addi	a0,a0,116 # 80007074 <_PROCEDURE_LINKAGE_TABLE_+0xf4>
800001f0:	221030ef          	jal	80003c10 <printf>
800001f4:	012345b7          	lui	a1,0x1234
800001f8:	56758593          	addi	a1,a1,1383 # 1234567 <_start-0x7edcba99>
800001fc:	80007537          	lui	a0,0x80007
80000200:	08850513          	addi	a0,a0,136 # 80007088 <_PROCEDURE_LINKAGE_TABLE_+0x108>
80000204:	20d030ef          	jal	80003c10 <printf>
80000208:	012345b7          	lui	a1,0x1234
8000020c:	56758593          	addi	a1,a1,1383 # 1234567 <_start-0x7edcba99>
80000210:	80007537          	lui	a0,0x80007
80000214:	09c50513          	addi	a0,a0,156 # 8000709c <_PROCEDURE_LINKAGE_TABLE_+0x11c>
80000218:	1f9030ef          	jal	80003c10 <printf>
8000021c:	80007537          	lui	a0,0x80007
80000220:	02850513          	addi	a0,a0,40 # 80007028 <_PROCEDURE_LINKAGE_TABLE_+0xa8>
80000224:	1ed030ef          	jal	80003c10 <printf>
80000228:	00c12083          	lw	ra,12(sp)
8000022c:	01010113          	addi	sp,sp,16
80000230:	00008067          	ret

80000234 <test_comparison_operations>:
80000234:	ff010113          	addi	sp,sp,-16
80000238:	00112623          	sw	ra,12(sp)
8000023c:	00812423          	sw	s0,8(sp)
80000240:	00912223          	sw	s1,4(sp)
80000244:	80007537          	lui	a0,0x80007
80000248:	0bc50513          	addi	a0,a0,188 # 800070bc <_PROCEDURE_LINKAGE_TABLE_+0x13c>
8000024c:	1c5030ef          	jal	80003c10 <printf>
80000250:	01400613          	li	a2,20
80000254:	00a00593          	li	a1,10
80000258:	80007537          	lui	a0,0x80007
8000025c:	fa850513          	addi	a0,a0,-88 # 80006fa8 <_PROCEDURE_LINKAGE_TABLE_+0x28>
80000260:	1b1030ef          	jal	80003c10 <printf>
80000264:	80007437          	lui	s0,0x80007
80000268:	0e840593          	addi	a1,s0,232 # 800070e8 <_PROCEDURE_LINKAGE_TABLE_+0x168>
8000026c:	80007537          	lui	a0,0x80007
80000270:	0f050513          	addi	a0,a0,240 # 800070f0 <_PROCEDURE_LINKAGE_TABLE_+0x170>
80000274:	19d030ef          	jal	80003c10 <printf>
80000278:	800074b7          	lui	s1,0x80007
8000027c:	0fc48593          	addi	a1,s1,252 # 800070fc <_PROCEDURE_LINKAGE_TABLE_+0x17c>
80000280:	80007537          	lui	a0,0x80007
80000284:	10450513          	addi	a0,a0,260 # 80007104 <_PROCEDURE_LINKAGE_TABLE_+0x184>
80000288:	189030ef          	jal	80003c10 <printf>
8000028c:	0fc48593          	addi	a1,s1,252
80000290:	80007537          	lui	a0,0x80007
80000294:	11050513          	addi	a0,a0,272 # 80007110 <_PROCEDURE_LINKAGE_TABLE_+0x190>
80000298:	179030ef          	jal	80003c10 <printf>
8000029c:	0e840593          	addi	a1,s0,232
800002a0:	80007537          	lui	a0,0x80007
800002a4:	11c50513          	addi	a0,a0,284 # 8000711c <_PROCEDURE_LINKAGE_TABLE_+0x19c>
800002a8:	169030ef          	jal	80003c10 <printf>
800002ac:	0fc48593          	addi	a1,s1,252
800002b0:	80007537          	lui	a0,0x80007
800002b4:	12850513          	addi	a0,a0,296 # 80007128 <_PROCEDURE_LINKAGE_TABLE_+0x1a8>
800002b8:	159030ef          	jal	80003c10 <printf>
800002bc:	0e840593          	addi	a1,s0,232
800002c0:	80007537          	lui	a0,0x80007
800002c4:	13450513          	addi	a0,a0,308 # 80007134 <_PROCEDURE_LINKAGE_TABLE_+0x1b4>
800002c8:	149030ef          	jal	80003c10 <printf>
800002cc:	80007537          	lui	a0,0x80007
800002d0:	02850513          	addi	a0,a0,40 # 80007028 <_PROCEDURE_LINKAGE_TABLE_+0xa8>
800002d4:	13d030ef          	jal	80003c10 <printf>
800002d8:	00c12083          	lw	ra,12(sp)
800002dc:	00812403          	lw	s0,8(sp)
800002e0:	00412483          	lw	s1,4(sp)
800002e4:	01010113          	addi	sp,sp,16
800002e8:	00008067          	ret

800002ec <test_memory_operations>:
800002ec:	fc010113          	addi	sp,sp,-64
800002f0:	02112e23          	sw	ra,60(sp)
800002f4:	02812c23          	sw	s0,56(sp)
800002f8:	02912a23          	sw	s1,52(sp)
800002fc:	03212823          	sw	s2,48(sp)
80000300:	03312623          	sw	s3,44(sp)
80000304:	03412423          	sw	s4,40(sp)
80000308:	03512223          	sw	s5,36(sp)
8000030c:	03612023          	sw	s6,32(sp)
80000310:	80007537          	lui	a0,0x80007
80000314:	14050513          	addi	a0,a0,320 # 80007140 <_PROCEDURE_LINKAGE_TABLE_+0x1c0>
80000318:	0f9030ef          	jal	80003c10 <printf>
8000031c:	80007537          	lui	a0,0x80007
80000320:	16850513          	addi	a0,a0,360 # 80007168 <_PROCEDURE_LINKAGE_TABLE_+0x1e8>
80000324:	0ed030ef          	jal	80003c10 <printf>
80000328:	00010913          	mv	s2,sp
8000032c:	00010993          	mv	s3,sp
80000330:	00000493          	li	s1,0
80000334:	00000413          	li	s0,0
80000338:	80007ab7          	lui	s5,0x80007
8000033c:	00800a13          	li	s4,8
80000340:	0099a023          	sw	s1,0(s3)
80000344:	00048613          	mv	a2,s1
80000348:	00040593          	mv	a1,s0
8000034c:	184a8513          	addi	a0,s5,388 # 80007184 <_PROCEDURE_LINKAGE_TABLE_+0x204>
80000350:	0c1030ef          	jal	80003c10 <printf>
80000354:	00140413          	addi	s0,s0,1
80000358:	00a48493          	addi	s1,s1,10
8000035c:	00498993          	addi	s3,s3,4
80000360:	ff4410e3          	bne	s0,s4,80000340 <test_memory_operations+0x54>
80000364:	80007537          	lui	a0,0x80007
80000368:	19450513          	addi	a0,a0,404 # 80007194 <_PROCEDURE_LINKAGE_TABLE_+0x214>
8000036c:	0a5030ef          	jal	80003c10 <printf>
80000370:	00000493          	li	s1,0
80000374:	00000413          	li	s0,0
80000378:	00000a13          	li	s4,0
8000037c:	80007ab7          	lui	s5,0x80007
80000380:	80007b37          	lui	s6,0x80007
80000384:	00800993          	li	s3,8
80000388:	0280006f          	j	800003b0 <test_memory_operations+0xc4>
8000038c:	009a0a33          	add	s4,s4,s1
80000390:	00048613          	mv	a2,s1
80000394:	00040593          	mv	a1,s0
80000398:	1b0b0513          	addi	a0,s6,432 # 800071b0 <_PROCEDURE_LINKAGE_TABLE_+0x230>
8000039c:	075030ef          	jal	80003c10 <printf>
800003a0:	00140413          	addi	s0,s0,1
800003a4:	00490913          	addi	s2,s2,4
800003a8:	00a48493          	addi	s1,s1,10
800003ac:	01340e63          	beq	s0,s3,800003c8 <test_memory_operations+0xdc>
800003b0:	00092783          	lw	a5,0(s2)
800003b4:	fc978ce3          	beq	a5,s1,8000038c <test_memory_operations+0xa0>
800003b8:	00040593          	mv	a1,s0
800003bc:	1c4a8513          	addi	a0,s5,452 # 800071c4 <_PROCEDURE_LINKAGE_TABLE_+0x244>
800003c0:	051030ef          	jal	80003c10 <printf>
800003c4:	fddff06f          	j	800003a0 <test_memory_operations+0xb4>
800003c8:	000a0593          	mv	a1,s4
800003cc:	80007537          	lui	a0,0x80007
800003d0:	1d850513          	addi	a0,a0,472 # 800071d8 <_PROCEDURE_LINKAGE_TABLE_+0x258>
800003d4:	03d030ef          	jal	80003c10 <printf>
800003d8:	80007537          	lui	a0,0x80007
800003dc:	02850513          	addi	a0,a0,40 # 80007028 <_PROCEDURE_LINKAGE_TABLE_+0xa8>
800003e0:	031030ef          	jal	80003c10 <printf>
800003e4:	03c12083          	lw	ra,60(sp)
800003e8:	03812403          	lw	s0,56(sp)
800003ec:	03412483          	lw	s1,52(sp)
800003f0:	03012903          	lw	s2,48(sp)
800003f4:	02c12983          	lw	s3,44(sp)
800003f8:	02812a03          	lw	s4,40(sp)
800003fc:	02412a83          	lw	s5,36(sp)
80000400:	02012b03          	lw	s6,32(sp)
80000404:	04010113          	addi	sp,sp,64
80000408:	00008067          	ret

8000040c <test_control_flow>:
8000040c:	fe010113          	addi	sp,sp,-32
80000410:	00112e23          	sw	ra,28(sp)
80000414:	00812c23          	sw	s0,24(sp)
80000418:	00912a23          	sw	s1,20(sp)
8000041c:	01212823          	sw	s2,16(sp)
80000420:	01312623          	sw	s3,12(sp)
80000424:	01412423          	sw	s4,8(sp)
80000428:	01512223          	sw	s5,4(sp)
8000042c:	80007537          	lui	a0,0x80007
80000430:	1e850513          	addi	a0,a0,488 # 800071e8 <_PROCEDURE_LINKAGE_TABLE_+0x268>
80000434:	7dc030ef          	jal	80003c10 <printf>
80000438:	80007537          	lui	a0,0x80007
8000043c:	20850513          	addi	a0,a0,520 # 80007208 <_PROCEDURE_LINKAGE_TABLE_+0x288>
80000440:	7d0030ef          	jal	80003c10 <printf>
80000444:	00000413          	li	s0,0
80000448:	00000493          	li	s1,0
8000044c:	800079b7          	lui	s3,0x80007
80000450:	00500913          	li	s2,5
80000454:	008484b3          	add	s1,s1,s0
80000458:	00048613          	mv	a2,s1
8000045c:	00040593          	mv	a1,s0
80000460:	21c98513          	addi	a0,s3,540 # 8000721c <_PROCEDURE_LINKAGE_TABLE_+0x29c>
80000464:	7ac030ef          	jal	80003c10 <printf>
80000468:	00140413          	addi	s0,s0,1
8000046c:	ff2414e3          	bne	s0,s2,80000454 <test_control_flow+0x48>
80000470:	80007537          	lui	a0,0x80007
80000474:	23050513          	addi	a0,a0,560 # 80007230 <_PROCEDURE_LINKAGE_TABLE_+0x2b0>
80000478:	798030ef          	jal	80003c10 <printf>
8000047c:	00000413          	li	s0,0
80000480:	00a00493          	li	s1,10
80000484:	80007ab7          	lui	s5,0x80007
80000488:	00048a13          	mv	s4,s1
8000048c:	800079b7          	lui	s3,0x80007
80000490:	80007937          	lui	s2,0x80007
80000494:	01c0006f          	j	800004b0 <test_control_flow+0xa4>
80000498:	008484b3          	add	s1,s1,s0
8000049c:	00040613          	mv	a2,s0
800004a0:	00040593          	mv	a1,s0
800004a4:	27098513          	addi	a0,s3,624 # 80007270 <_PROCEDURE_LINKAGE_TABLE_+0x2f0>
800004a8:	768030ef          	jal	80003c10 <printf>
800004ac:	00140413          	addi	s0,s0,1
800004b0:	00147793          	andi	a5,s0,1
800004b4:	02079263          	bnez	a5,800004d8 <test_control_flow+0xcc>
800004b8:	00347793          	andi	a5,s0,3
800004bc:	fc079ee3          	bnez	a5,80000498 <test_control_flow+0x8c>
800004c0:	00141613          	slli	a2,s0,0x1
800004c4:	00c484b3          	add	s1,s1,a2
800004c8:	00040593          	mv	a1,s0
800004cc:	25490513          	addi	a0,s2,596 # 80007254 <_PROCEDURE_LINKAGE_TABLE_+0x2d4>
800004d0:	740030ef          	jal	80003c10 <printf>
800004d4:	fd9ff06f          	j	800004ac <test_control_flow+0xa0>
800004d8:	408484b3          	sub	s1,s1,s0
800004dc:	00040613          	mv	a2,s0
800004e0:	00040593          	mv	a1,s0
800004e4:	284a8513          	addi	a0,s5,644 # 80007284 <_PROCEDURE_LINKAGE_TABLE_+0x304>
800004e8:	728030ef          	jal	80003c10 <printf>
800004ec:	00140413          	addi	s0,s0,1
800004f0:	fd4410e3          	bne	s0,s4,800004b0 <test_control_flow+0xa4>
800004f4:	00048593          	mv	a1,s1
800004f8:	80007537          	lui	a0,0x80007
800004fc:	29850513          	addi	a0,a0,664 # 80007298 <_PROCEDURE_LINKAGE_TABLE_+0x318>
80000500:	710030ef          	jal	80003c10 <printf>
80000504:	80007537          	lui	a0,0x80007
80000508:	02850513          	addi	a0,a0,40 # 80007028 <_PROCEDURE_LINKAGE_TABLE_+0xa8>
8000050c:	704030ef          	jal	80003c10 <printf>
80000510:	01c12083          	lw	ra,28(sp)
80000514:	01812403          	lw	s0,24(sp)
80000518:	01412483          	lw	s1,20(sp)
8000051c:	01012903          	lw	s2,16(sp)
80000520:	00c12983          	lw	s3,12(sp)
80000524:	00812a03          	lw	s4,8(sp)
80000528:	00412a83          	lw	s5,4(sp)
8000052c:	02010113          	addi	sp,sp,32
80000530:	00008067          	ret

80000534 <recursive_sum>:
80000534:	ff010113          	addi	sp,sp,-16
80000538:	00112623          	sw	ra,12(sp)
8000053c:	00812423          	sw	s0,8(sp)
80000540:	00912223          	sw	s1,4(sp)
80000544:	00050413          	mv	s0,a0
80000548:	02050e63          	beqz	a0,80000584 <recursive_sum+0x50>
8000054c:	fff50513          	addi	a0,a0,-1
80000550:	fe5ff0ef          	jal	80000534 <recursive_sum>
80000554:	008504b3          	add	s1,a0,s0
80000558:	00048613          	mv	a2,s1
8000055c:	00040593          	mv	a1,s0
80000560:	80007537          	lui	a0,0x80007
80000564:	2c850513          	addi	a0,a0,712 # 800072c8 <_PROCEDURE_LINKAGE_TABLE_+0x348>
80000568:	6a8030ef          	jal	80003c10 <printf>
8000056c:	00048513          	mv	a0,s1
80000570:	00c12083          	lw	ra,12(sp)
80000574:	00812403          	lw	s0,8(sp)
80000578:	00412483          	lw	s1,4(sp)
8000057c:	01010113          	addi	sp,sp,16
80000580:	00008067          	ret
80000584:	80007537          	lui	a0,0x80007
80000588:	2b050513          	addi	a0,a0,688 # 800072b0 <_PROCEDURE_LINKAGE_TABLE_+0x330>
8000058c:	684030ef          	jal	80003c10 <printf>
80000590:	00040493          	mv	s1,s0
80000594:	fd9ff06f          	j	8000056c <recursive_sum+0x38>

80000598 <test_function_calls>:
80000598:	ff010113          	addi	sp,sp,-16
8000059c:	00112623          	sw	ra,12(sp)
800005a0:	80007537          	lui	a0,0x80007
800005a4:	2e050513          	addi	a0,a0,736 # 800072e0 <_PROCEDURE_LINKAGE_TABLE_+0x360>
800005a8:	668030ef          	jal	80003c10 <printf>
800005ac:	80007537          	lui	a0,0x80007
800005b0:	30450513          	addi	a0,a0,772 # 80007304 <_PROCEDURE_LINKAGE_TABLE_+0x384>
800005b4:	65c030ef          	jal	80003c10 <printf>
800005b8:	00500513          	li	a0,5
800005bc:	f79ff0ef          	jal	80000534 <recursive_sum>
800005c0:	00050593          	mv	a1,a0
800005c4:	80007537          	lui	a0,0x80007
800005c8:	31c50513          	addi	a0,a0,796 # 8000731c <_PROCEDURE_LINKAGE_TABLE_+0x39c>
800005cc:	644030ef          	jal	80003c10 <printf>
800005d0:	80007537          	lui	a0,0x80007
800005d4:	02850513          	addi	a0,a0,40 # 80007028 <_PROCEDURE_LINKAGE_TABLE_+0xa8>
800005d8:	638030ef          	jal	80003c10 <printf>
800005dc:	00c12083          	lw	ra,12(sp)
800005e0:	01010113          	addi	sp,sp,16
800005e4:	00008067          	ret

800005e8 <test_immediate_operations>:
800005e8:	ff010113          	addi	sp,sp,-16
800005ec:	00112623          	sw	ra,12(sp)
800005f0:	80007537          	lui	a0,0x80007
800005f4:	33c50513          	addi	a0,a0,828 # 8000733c <_PROCEDURE_LINKAGE_TABLE_+0x3bc>
800005f8:	618030ef          	jal	80003c10 <printf>
800005fc:	000035b7          	lui	a1,0x3
80000600:	80007537          	lui	a0,0x80007
80000604:	36850513          	addi	a0,a0,872 # 80007368 <_PROCEDURE_LINKAGE_TABLE_+0x3e8>
80000608:	608030ef          	jal	80003c10 <printf>
8000060c:	00000593          	li	a1,0
80000610:	80007537          	lui	a0,0x80007
80000614:	38850513          	addi	a0,a0,904 # 80007388 <_PROCEDURE_LINKAGE_TABLE_+0x408>
80000618:	5f8030ef          	jal	80003c10 <printf>
8000061c:	000015b7          	lui	a1,0x1
80000620:	0ff58593          	addi	a1,a1,255 # 10ff <_start-0x7fffef01>
80000624:	80007537          	lui	a0,0x80007
80000628:	3a850513          	addi	a0,a0,936 # 800073a8 <_PROCEDURE_LINKAGE_TABLE_+0x428>
8000062c:	5e4030ef          	jal	80003c10 <printf>
80000630:	000015b7          	lui	a1,0x1
80000634:	0ff58593          	addi	a1,a1,255 # 10ff <_start-0x7fffef01>
80000638:	80007537          	lui	a0,0x80007
8000063c:	3c850513          	addi	a0,a0,968 # 800073c8 <_PROCEDURE_LINKAGE_TABLE_+0x448>
80000640:	5d0030ef          	jal	80003c10 <printf>
80000644:	80007537          	lui	a0,0x80007
80000648:	02850513          	addi	a0,a0,40 # 80007028 <_PROCEDURE_LINKAGE_TABLE_+0xa8>
8000064c:	5c4030ef          	jal	80003c10 <printf>
80000650:	00c12083          	lw	ra,12(sp)
80000654:	01010113          	addi	sp,sp,16
80000658:	00008067          	ret

8000065c <test_pointer_operations>:
8000065c:	fe010113          	addi	sp,sp,-32
80000660:	00112e23          	sw	ra,28(sp)
80000664:	80007537          	lui	a0,0x80007
80000668:	3e850513          	addi	a0,a0,1000 # 800073e8 <_PROCEDURE_LINKAGE_TABLE_+0x468>
8000066c:	5a4030ef          	jal	80003c10 <printf>
80000670:	abcd17b7          	lui	a5,0xabcd1
80000674:	23478793          	addi	a5,a5,564 # abcd1234 <qscmp+0x2bc9f21c>
80000678:	00f12623          	sw	a5,12(sp)
8000067c:	00c10593          	addi	a1,sp,12
80000680:	80007537          	lui	a0,0x80007
80000684:	41050513          	addi	a0,a0,1040 # 80007410 <_PROCEDURE_LINKAGE_TABLE_+0x490>
80000688:	588030ef          	jal	80003c10 <printf>
8000068c:	00c12583          	lw	a1,12(sp)
80000690:	80007537          	lui	a0,0x80007
80000694:	42c50513          	addi	a0,a0,1068 # 8000742c <_PROCEDURE_LINKAGE_TABLE_+0x4ac>
80000698:	578030ef          	jal	80003c10 <printf>
8000069c:	00c12583          	lw	a1,12(sp)
800006a0:	80007537          	lui	a0,0x80007
800006a4:	44450513          	addi	a0,a0,1092 # 80007444 <_PROCEDURE_LINKAGE_TABLE_+0x4c4>
800006a8:	568030ef          	jal	80003c10 <printf>
800006ac:	deadc5b7          	lui	a1,0xdeadc
800006b0:	eef58593          	addi	a1,a1,-273 # deadbeef <qscmp+0x5eaa9ed7>
800006b4:	00b12623          	sw	a1,12(sp)
800006b8:	80007537          	lui	a0,0x80007
800006bc:	46050513          	addi	a0,a0,1120 # 80007460 <_PROCEDURE_LINKAGE_TABLE_+0x4e0>
800006c0:	550030ef          	jal	80003c10 <printf>
800006c4:	80007537          	lui	a0,0x80007
800006c8:	02850513          	addi	a0,a0,40 # 80007028 <_PROCEDURE_LINKAGE_TABLE_+0xa8>
800006cc:	544030ef          	jal	80003c10 <printf>
800006d0:	01c12083          	lw	ra,28(sp)
800006d4:	02010113          	addi	sp,sp,32
800006d8:	00008067          	ret

800006dc <get_host_clock>:
800006dc:	00000793          	li	a5,0
800006e0:	02d00893          	li	a7,45
800006e4:	00000073          	ecall
800006e8:	00050793          	mv	a5,a0
800006ec:	00058793          	mv	a5,a1
800006f0:	00078513          	mv	a0,a5
800006f4:	00008067          	ret

800006f8 <prime_calculation>:
800006f8:	fe010113          	addi	sp,sp,-32
800006fc:	00112e23          	sw	ra,28(sp)
80000700:	00812c23          	sw	s0,24(sp)
80000704:	00912a23          	sw	s1,20(sp)
80000708:	01212823          	sw	s2,16(sp)
8000070c:	01312623          	sw	s3,12(sp)
80000710:	01412423          	sw	s4,8(sp)
80000714:	01512223          	sw	s5,4(sp)
80000718:	01612023          	sw	s6,0(sp)
8000071c:	80007537          	lui	a0,0x80007
80000720:	48050513          	addi	a0,a0,1152 # 80007480 <_PROCEDURE_LINKAGE_TABLE_+0x500>
80000724:	4ec030ef          	jal	80003c10 <printf>
80000728:	fb5ff0ef          	jal	800006dc <get_host_clock>
8000072c:	00050b13          	mv	s6,a0
80000730:	00200493          	li	s1,2
80000734:	00000913          	li	s2,0
80000738:	00300993          	li	s3,3
8000073c:	00018a37          	lui	s4,0x18
80000740:	6a0a0a13          	addi	s4,s4,1696 # 186a0 <_start-0x7ffe7960>
80000744:	00100a93          	li	s5,1
80000748:	0100006f          	j	80000758 <prime_calculation+0x60>
8000074c:	00a90933          	add	s2,s2,a0
80000750:	00148493          	addi	s1,s1,1
80000754:	03448c63          	beq	s1,s4,8000078c <prime_calculation+0x94>
80000758:	00200413          	li	s0,2
8000075c:	0899da63          	bge	s3,s1,800007f0 <prime_calculation+0xf8>
80000760:	00040593          	mv	a1,s0
80000764:	00048513          	mv	a0,s1
80000768:	754060ef          	jal	80006ebc <__modsi3>
8000076c:	fe0500e3          	beqz	a0,8000074c <prime_calculation+0x54>
80000770:	00140413          	addi	s0,s0,1
80000774:	00040593          	mv	a1,s0
80000778:	00040513          	mv	a0,s0
8000077c:	698060ef          	jal	80006e14 <__mulsi3>
80000780:	fea4d0e3          	bge	s1,a0,80000760 <prime_calculation+0x68>
80000784:	000a8513          	mv	a0,s5
80000788:	fc5ff06f          	j	8000074c <prime_calculation+0x54>
8000078c:	f51ff0ef          	jal	800006dc <get_host_clock>
80000790:	41650533          	sub	a0,a0,s6
80000794:	268060ef          	jal	800069fc <__floatunsisf>
80000798:	00050413          	mv	s0,a0
8000079c:	00090593          	mv	a1,s2
800007a0:	80007537          	lui	a0,0x80007
800007a4:	4a050513          	addi	a0,a0,1184 # 800074a0 <_PROCEDURE_LINKAGE_TABLE_+0x520>
800007a8:	468030ef          	jal	80003c10 <printf>
800007ac:	00040513          	mv	a0,s0
800007b0:	39c060ef          	jal	80006b4c <__extendsfdf2>
800007b4:	00050613          	mv	a2,a0
800007b8:	00058693          	mv	a3,a1
800007bc:	80007537          	lui	a0,0x80007
800007c0:	4b850513          	addi	a0,a0,1208 # 800074b8 <_PROCEDURE_LINKAGE_TABLE_+0x538>
800007c4:	44c030ef          	jal	80003c10 <printf>
800007c8:	01c12083          	lw	ra,28(sp)
800007cc:	01812403          	lw	s0,24(sp)
800007d0:	01412483          	lw	s1,20(sp)
800007d4:	01012903          	lw	s2,16(sp)
800007d8:	00c12983          	lw	s3,12(sp)
800007dc:	00812a03          	lw	s4,8(sp)
800007e0:	00412a83          	lw	s5,4(sp)
800007e4:	00012b03          	lw	s6,0(sp)
800007e8:	02010113          	addi	sp,sp,32
800007ec:	00008067          	ret
800007f0:	00190913          	addi	s2,s2,1
800007f4:	00148493          	addi	s1,s1,1
800007f8:	f61ff06f          	j	80000758 <prime_calculation+0x60>

800007fc <taylor_series>:
800007fc:	fd010113          	addi	sp,sp,-48
80000800:	02112623          	sw	ra,44(sp)
80000804:	02812423          	sw	s0,40(sp)
80000808:	02912223          	sw	s1,36(sp)
8000080c:	03212023          	sw	s2,32(sp)
80000810:	01312e23          	sw	s3,28(sp)
80000814:	01412c23          	sw	s4,24(sp)
80000818:	01512a23          	sw	s5,20(sp)
8000081c:	01612823          	sw	s6,16(sp)
80000820:	01712623          	sw	s7,12(sp)
80000824:	01812423          	sw	s8,8(sp)
80000828:	01912223          	sw	s9,4(sp)
8000082c:	01a12023          	sw	s10,0(sp)
80000830:	80007537          	lui	a0,0x80007
80000834:	4d050513          	addi	a0,a0,1232 # 800074d0 <_PROCEDURE_LINKAGE_TABLE_+0x550>
80000838:	3d8030ef          	jal	80003c10 <printf>
8000083c:	ea1ff0ef          	jal	800006dc <get_host_clock>
80000840:	00050d13          	mv	s10,a0
80000844:	00000b93          	li	s7,0
80000848:	00000b13          	li	s6,0
8000084c:	8000f7b7          	lui	a5,0x8000f
80000850:	2607ac83          	lw	s9,608(a5) # 8000f260 <_erodata+0x650>
80000854:	01500a93          	li	s5,21
80000858:	00018c37          	lui	s8,0x18
8000085c:	6a0c0c13          	addi	s8,s8,1696 # 186a0 <_start-0x7ffe7960>
80000860:	000b8513          	mv	a0,s7
80000864:	060060ef          	jal	800068c4 <__floatsisf>
80000868:	000c8593          	mv	a1,s9
8000086c:	0b0050ef          	jal	8000591c <__divsf3>
80000870:	00050413          	mv	s0,a0
80000874:	00050593          	mv	a1,a0
80000878:	550050ef          	jal	80005dc8 <__mulsf3>
8000087c:	00050a13          	mv	s4,a0
80000880:	00040913          	mv	s2,s0
80000884:	00300493          	li	s1,3
80000888:	fff00993          	li	s3,-1
8000088c:	00048593          	mv	a1,s1
80000890:	fff48513          	addi	a0,s1,-1
80000894:	580060ef          	jal	80006e14 <__mulsi3>
80000898:	02c060ef          	jal	800068c4 <__floatsisf>
8000089c:	00050593          	mv	a1,a0
800008a0:	000a0513          	mv	a0,s4
800008a4:	078050ef          	jal	8000591c <__divsf3>
800008a8:	00050593          	mv	a1,a0
800008ac:	00040513          	mv	a0,s0
800008b0:	518050ef          	jal	80005dc8 <__mulsf3>
800008b4:	00050413          	mv	s0,a0
800008b8:	00098513          	mv	a0,s3
800008bc:	008060ef          	jal	800068c4 <__floatsisf>
800008c0:	00040593          	mv	a1,s0
800008c4:	504050ef          	jal	80005dc8 <__mulsf3>
800008c8:	00050593          	mv	a1,a0
800008cc:	00090513          	mv	a0,s2
800008d0:	20d040ef          	jal	800052dc <__addsf3>
800008d4:	00050913          	mv	s2,a0
800008d8:	413009b3          	neg	s3,s3
800008dc:	00248493          	addi	s1,s1,2
800008e0:	fb5496e3          	bne	s1,s5,8000088c <taylor_series+0x90>
800008e4:	00050593          	mv	a1,a0
800008e8:	000b0513          	mv	a0,s6
800008ec:	1f1040ef          	jal	800052dc <__addsf3>
800008f0:	00050b13          	mv	s6,a0
800008f4:	001b8b93          	addi	s7,s7,1
800008f8:	f78b94e3          	bne	s7,s8,80000860 <taylor_series+0x64>
800008fc:	de1ff0ef          	jal	800006dc <get_host_clock>
80000900:	00050793          	mv	a5,a0
80000904:	41a50533          	sub	a0,a0,s10
80000908:	00a7f463          	bgeu	a5,a0,80000910 <taylor_series+0x114>
8000090c:	00000513          	li	a0,0
80000910:	0ec060ef          	jal	800069fc <__floatunsisf>
80000914:	8000f7b7          	lui	a5,0x8000f
80000918:	2647a583          	lw	a1,612(a5) # 8000f264 <_erodata+0x654>
8000091c:	000050ef          	jal	8000591c <__divsf3>
80000920:	00050413          	mv	s0,a0
80000924:	000b0513          	mv	a0,s6
80000928:	224060ef          	jal	80006b4c <__extendsfdf2>
8000092c:	00050613          	mv	a2,a0
80000930:	00058693          	mv	a3,a1
80000934:	80007537          	lui	a0,0x80007
80000938:	4f850513          	addi	a0,a0,1272 # 800074f8 <_PROCEDURE_LINKAGE_TABLE_+0x578>
8000093c:	2d4030ef          	jal	80003c10 <printf>
80000940:	00040513          	mv	a0,s0
80000944:	208060ef          	jal	80006b4c <__extendsfdf2>
80000948:	00050613          	mv	a2,a0
8000094c:	00058693          	mv	a3,a1
80000950:	80007537          	lui	a0,0x80007
80000954:	4b850513          	addi	a0,a0,1208 # 800074b8 <_PROCEDURE_LINKAGE_TABLE_+0x538>
80000958:	2b8030ef          	jal	80003c10 <printf>
8000095c:	02c12083          	lw	ra,44(sp)
80000960:	02812403          	lw	s0,40(sp)
80000964:	02412483          	lw	s1,36(sp)
80000968:	02012903          	lw	s2,32(sp)
8000096c:	01c12983          	lw	s3,28(sp)
80000970:	01812a03          	lw	s4,24(sp)
80000974:	01412a83          	lw	s5,20(sp)
80000978:	01012b03          	lw	s6,16(sp)
8000097c:	00c12b83          	lw	s7,12(sp)
80000980:	00812c03          	lw	s8,8(sp)
80000984:	00412c83          	lw	s9,4(sp)
80000988:	00012d03          	lw	s10,0(sp)
8000098c:	03010113          	addi	sp,sp,48
80000990:	00008067          	ret

80000994 <monte_carlo_pi>:
80000994:	fd010113          	addi	sp,sp,-48
80000998:	02112623          	sw	ra,44(sp)
8000099c:	02812423          	sw	s0,40(sp)
800009a0:	02912223          	sw	s1,36(sp)
800009a4:	03212023          	sw	s2,32(sp)
800009a8:	01312e23          	sw	s3,28(sp)
800009ac:	01412c23          	sw	s4,24(sp)
800009b0:	01512a23          	sw	s5,20(sp)
800009b4:	01612823          	sw	s6,16(sp)
800009b8:	01712623          	sw	s7,12(sp)
800009bc:	80007537          	lui	a0,0x80007
800009c0:	50c50513          	addi	a0,a0,1292 # 8000750c <_PROCEDURE_LINKAGE_TABLE_+0x58c>
800009c4:	24c030ef          	jal	80003c10 <printf>
800009c8:	d15ff0ef          	jal	800006dc <get_host_clock>
800009cc:	00050b93          	mv	s7,a0
800009d0:	00018937          	lui	s2,0x18
800009d4:	6a090913          	addi	s2,s2,1696 # 186a0 <_start-0x7ffe7960>
800009d8:	00000993          	li	s3,0
800009dc:	8000f7b7          	lui	a5,0x8000f
800009e0:	2687ab03          	lw	s6,616(a5) # 8000f268 <_erodata+0x658>
800009e4:	000b0a93          	mv	s5,s6
800009e8:	8000f7b7          	lui	a5,0x8000f
800009ec:	26c7aa03          	lw	s4,620(a5) # 8000f26c <_erodata+0x65c>
800009f0:	6e8030ef          	jal	800040d8 <rand>
800009f4:	6d1050ef          	jal	800068c4 <__floatsisf>
800009f8:	000b0593          	mv	a1,s6
800009fc:	3cc050ef          	jal	80005dc8 <__mulsf3>
80000a00:	00050493          	mv	s1,a0
80000a04:	6d4030ef          	jal	800040d8 <rand>
80000a08:	6bd050ef          	jal	800068c4 <__floatsisf>
80000a0c:	000a8593          	mv	a1,s5
80000a10:	3b8050ef          	jal	80005dc8 <__mulsf3>
80000a14:	00050413          	mv	s0,a0
80000a18:	00048593          	mv	a1,s1
80000a1c:	00048513          	mv	a0,s1
80000a20:	3a8050ef          	jal	80005dc8 <__mulsf3>
80000a24:	00050493          	mv	s1,a0
80000a28:	00040593          	mv	a1,s0
80000a2c:	00040513          	mv	a0,s0
80000a30:	398050ef          	jal	80005dc8 <__mulsf3>
80000a34:	00050593          	mv	a1,a0
80000a38:	00048513          	mv	a0,s1
80000a3c:	0a1040ef          	jal	800052dc <__addsf3>
80000a40:	000a0593          	mv	a1,s4
80000a44:	2b0050ef          	jal	80005cf4 <__lesf2>
80000a48:	00152513          	slti	a0,a0,1
80000a4c:	00a989b3          	add	s3,s3,a0
80000a50:	fff90913          	addi	s2,s2,-1
80000a54:	f8091ee3          	bnez	s2,800009f0 <monte_carlo_pi+0x5c>
80000a58:	00098513          	mv	a0,s3
80000a5c:	7b8040ef          	jal	80005214 <__floatsidf>
80000a60:	8000f7b7          	lui	a5,0x8000f
80000a64:	2787a603          	lw	a2,632(a5) # 8000f278 <_erodata+0x668>
80000a68:	27c7a683          	lw	a3,636(a5)
80000a6c:	008040ef          	jal	80004a74 <__muldf3>
80000a70:	8000f7b7          	lui	a5,0x8000f
80000a74:	2807a603          	lw	a2,640(a5) # 8000f280 <_erodata+0x670>
80000a78:	2847a683          	lw	a3,644(a5)
80000a7c:	710030ef          	jal	8000418c <__divdf3>
80000a80:	1d4060ef          	jal	80006c54 <__truncdfsf2>
80000a84:	00050493          	mv	s1,a0
80000a88:	c55ff0ef          	jal	800006dc <get_host_clock>
80000a8c:	41750533          	sub	a0,a0,s7
80000a90:	76d050ef          	jal	800069fc <__floatunsisf>
80000a94:	8000f7b7          	lui	a5,0x8000f
80000a98:	2647a583          	lw	a1,612(a5) # 8000f264 <_erodata+0x654>
80000a9c:	681040ef          	jal	8000591c <__divsf3>
80000aa0:	00050413          	mv	s0,a0
80000aa4:	00048513          	mv	a0,s1
80000aa8:	0a4060ef          	jal	80006b4c <__extendsfdf2>
80000aac:	00050613          	mv	a2,a0
80000ab0:	00058693          	mv	a3,a1
80000ab4:	80007537          	lui	a0,0x80007
80000ab8:	53c50513          	addi	a0,a0,1340 # 8000753c <_PROCEDURE_LINKAGE_TABLE_+0x5bc>
80000abc:	154030ef          	jal	80003c10 <printf>
80000ac0:	00040513          	mv	a0,s0
80000ac4:	088060ef          	jal	80006b4c <__extendsfdf2>
80000ac8:	00050613          	mv	a2,a0
80000acc:	00058693          	mv	a3,a1
80000ad0:	80007537          	lui	a0,0x80007
80000ad4:	4b850513          	addi	a0,a0,1208 # 800074b8 <_PROCEDURE_LINKAGE_TABLE_+0x538>
80000ad8:	138030ef          	jal	80003c10 <printf>
80000adc:	02c12083          	lw	ra,44(sp)
80000ae0:	02812403          	lw	s0,40(sp)
80000ae4:	02412483          	lw	s1,36(sp)
80000ae8:	02012903          	lw	s2,32(sp)
80000aec:	01c12983          	lw	s3,28(sp)
80000af0:	01812a03          	lw	s4,24(sp)
80000af4:	01412a83          	lw	s5,20(sp)
80000af8:	01012b03          	lw	s6,16(sp)
80000afc:	00c12b83          	lw	s7,12(sp)
80000b00:	03010113          	addi	sp,sp,48
80000b04:	00008067          	ret

80000b08 <main>:
80000b08:	fd010113          	addi	sp,sp,-48
80000b0c:	02112623          	sw	ra,44(sp)
80000b10:	02812423          	sw	s0,40(sp)
80000b14:	02912223          	sw	s1,36(sp)
80000b18:	03212023          	sw	s2,32(sp)
80000b1c:	01312e23          	sw	s3,28(sp)
80000b20:	01412c23          	sw	s4,24(sp)
80000b24:	01512a23          	sw	s5,20(sp)
80000b28:	01612823          	sw	s6,16(sp)
80000b2c:	01712623          	sw	s7,12(sp)
80000b30:	4e9020ef          	jal	80003818 <meminit>
80000b34:	800327b7          	lui	a5,0x80032
80000b38:	0007a783          	lw	a5,0(a5) # 80032000 <memlist>
80000b3c:	60078863          	beqz	a5,8000114c <main+0x644>
80000b40:	00000413          	li	s0,0
80000b44:	0047a703          	lw	a4,4(a5)
80000b48:	00e40433          	add	s0,s0,a4
80000b4c:	0007a783          	lw	a5,0(a5)
80000b50:	fe079ae3          	bnez	a5,80000b44 <main+0x3c>
80000b54:	80007637          	lui	a2,0x80007
80000b58:	56c60613          	addi	a2,a2,1388 # 8000756c <_PROCEDURE_LINKAGE_TABLE_+0x5ec>
80000b5c:	800075b7          	lui	a1,0x80007
80000b60:	57858593          	addi	a1,a1,1400 # 80007578 <_PROCEDURE_LINKAGE_TABLE_+0x5f8>
80000b64:	80007537          	lui	a0,0x80007
80000b68:	58450513          	addi	a0,a0,1412 # 80007584 <_PROCEDURE_LINKAGE_TABLE_+0x604>
80000b6c:	0a4030ef          	jal	80003c10 <printf>
80000b70:	00040593          	mv	a1,s0
80000b74:	80007537          	lui	a0,0x80007
80000b78:	59850513          	addi	a0,a0,1432 # 80007598 <_PROCEDURE_LINKAGE_TABLE_+0x618>
80000b7c:	094030ef          	jal	80003c10 <printf>
80000b80:	800327b7          	lui	a5,0x80032
80000b84:	0007a403          	lw	s0,0(a5) # 80032000 <memlist>
80000b88:	02040463          	beqz	s0,80000bb0 <main+0xa8>
80000b8c:	800074b7          	lui	s1,0x80007
80000b90:	00442603          	lw	a2,4(s0)
80000b94:	00c40633          	add	a2,s0,a2
80000b98:	fff60613          	addi	a2,a2,-1
80000b9c:	00040593          	mv	a1,s0
80000ba0:	5c048513          	addi	a0,s1,1472 # 800075c0 <_PROCEDURE_LINKAGE_TABLE_+0x640>
80000ba4:	06c030ef          	jal	80003c10 <printf>
80000ba8:	00042403          	lw	s0,0(s0)
80000bac:	fe0412e3          	bnez	s0,80000b90 <main+0x88>
80000bb0:	80007437          	lui	s0,0x80007
80000bb4:	f7440413          	addi	s0,s0,-140 # 80006f74 <_etext>
80000bb8:	800004b7          	lui	s1,0x80000
80000bbc:	00048593          	mv	a1,s1
80000bc0:	40b405b3          	sub	a1,s0,a1
80000bc4:	80007537          	lui	a0,0x80007
80000bc8:	5e050513          	addi	a0,a0,1504 # 800075e0 <_PROCEDURE_LINKAGE_TABLE_+0x660>
80000bcc:	044030ef          	jal	80003c10 <printf>
80000bd0:	fff40613          	addi	a2,s0,-1
80000bd4:	00048593          	mv	a1,s1
80000bd8:	80007537          	lui	a0,0x80007
80000bdc:	5c050513          	addi	a0,a0,1472 # 800075c0 <_PROCEDURE_LINKAGE_TABLE_+0x640>
80000be0:	030030ef          	jal	80003c10 <printf>
80000be4:	80011437          	lui	s0,0x80011
80000be8:	e1440413          	addi	s0,s0,-492 # 80010e14 <_ebss>
80000bec:	800104b7          	lui	s1,0x80010
80000bf0:	50048593          	addi	a1,s1,1280 # 80010500 <_sdata>
80000bf4:	40b405b3          	sub	a1,s0,a1
80000bf8:	80007537          	lui	a0,0x80007
80000bfc:	5fc50513          	addi	a0,a0,1532 # 800075fc <_PROCEDURE_LINKAGE_TABLE_+0x67c>
80000c00:	010030ef          	jal	80003c10 <printf>
80000c04:	fff40613          	addi	a2,s0,-1
80000c08:	50048593          	addi	a1,s1,1280
80000c0c:	80007537          	lui	a0,0x80007
80000c10:	61450513          	addi	a0,a0,1556 # 80007614 <_PROCEDURE_LINKAGE_TABLE_+0x694>
80000c14:	7fd020ef          	jal	80003c10 <printf>
80000c18:	731020ef          	jal	80003b48 <heap_free>
80000c1c:	00050a93          	mv	s5,a0
80000c20:	80007537          	lui	a0,0x80007
80000c24:	63450513          	addi	a0,a0,1588 # 80007634 <_PROCEDURE_LINKAGE_TABLE_+0x6b4>
80000c28:	7e9020ef          	jal	80003c10 <printf>
80000c2c:	000a8593          	mv	a1,s5
80000c30:	80007537          	lui	a0,0x80007
80000c34:	65850513          	addi	a0,a0,1624 # 80007658 <_PROCEDURE_LINKAGE_TABLE_+0x6d8>
80000c38:	7d9020ef          	jal	80003c10 <printf>
80000c3c:	800327b7          	lui	a5,0x80032
80000c40:	0107a583          	lw	a1,16(a5) # 80032010 <minheap>
80000c44:	80007537          	lui	a0,0x80007
80000c48:	67850513          	addi	a0,a0,1656 # 80007678 <_PROCEDURE_LINKAGE_TABLE_+0x6f8>
80000c4c:	7c5020ef          	jal	80003c10 <printf>
80000c50:	800327b7          	lui	a5,0x80032
80000c54:	00c7a583          	lw	a1,12(a5) # 8003200c <maxheap>
80000c58:	80007537          	lui	a0,0x80007
80000c5c:	68c50513          	addi	a0,a0,1676 # 8000768c <_PROCEDURE_LINKAGE_TABLE_+0x70c>
80000c60:	7b1020ef          	jal	80003c10 <printf>
80000c64:	80007537          	lui	a0,0x80007
80000c68:	02850513          	addi	a0,a0,40 # 80007028 <_PROCEDURE_LINKAGE_TABLE_+0xa8>
80000c6c:	7a5020ef          	jal	80003c10 <printf>
80000c70:	80007537          	lui	a0,0x80007
80000c74:	6a050513          	addi	a0,a0,1696 # 800076a0 <_PROCEDURE_LINKAGE_TABLE_+0x720>
80000c78:	799020ef          	jal	80003c10 <printf>
80000c7c:	04000513          	li	a0,64
80000c80:	241020ef          	jal	800036c0 <malloc>
80000c84:	00050b13          	mv	s6,a0
80000c88:	4c050663          	beqz	a0,80001154 <main+0x64c>
80000c8c:	80007537          	lui	a0,0x80007
80000c90:	6dc50513          	addi	a0,a0,1756 # 800076dc <_PROCEDURE_LINKAGE_TABLE_+0x75c>
80000c94:	77d020ef          	jal	80003c10 <printf>
80000c98:	000b0593          	mv	a1,s6
80000c9c:	80007537          	lui	a0,0x80007
80000ca0:	6f450513          	addi	a0,a0,1780 # 800076f4 <_PROCEDURE_LINKAGE_TABLE_+0x774>
80000ca4:	76d020ef          	jal	80003c10 <printf>
80000ca8:	deadc7b7          	lui	a5,0xdeadc
80000cac:	eef78793          	addi	a5,a5,-273 # deadbeef <qscmp+0x5eaa9ed7>
80000cb0:	00fb2023          	sw	a5,0(s6)
80000cb4:	000b0593          	mv	a1,s6
80000cb8:	80007537          	lui	a0,0x80007
80000cbc:	71850513          	addi	a0,a0,1816 # 80007718 <_PROCEDURE_LINKAGE_TABLE_+0x798>
80000cc0:	751020ef          	jal	80003c10 <printf>
80000cc4:	685020ef          	jal	80003b48 <heap_free>
80000cc8:	00050593          	mv	a1,a0
80000ccc:	40aa8633          	sub	a2,s5,a0
80000cd0:	80007537          	lui	a0,0x80007
80000cd4:	73450513          	addi	a0,a0,1844 # 80007734 <_PROCEDURE_LINKAGE_TABLE_+0x7b4>
80000cd8:	739020ef          	jal	80003c10 <printf>
80000cdc:	80007537          	lui	a0,0x80007
80000ce0:	02850513          	addi	a0,a0,40 # 80007028 <_PROCEDURE_LINKAGE_TABLE_+0xa8>
80000ce4:	72d020ef          	jal	80003c10 <printf>
80000ce8:	80007537          	lui	a0,0x80007
80000cec:	77050513          	addi	a0,a0,1904 # 80007770 <_PROCEDURE_LINKAGE_TABLE_+0x7f0>
80000cf0:	721020ef          	jal	80003c10 <printf>
80000cf4:	7d000513          	li	a0,2000
80000cf8:	1c9020ef          	jal	800036c0 <malloc>
80000cfc:	00050913          	mv	s2,a0
80000d00:	46050263          	beqz	a0,80001164 <main+0x65c>
80000d04:	00050593          	mv	a1,a0
80000d08:	80007537          	lui	a0,0x80007
80000d0c:	7b050513          	addi	a0,a0,1968 # 800077b0 <_PROCEDURE_LINKAGE_TABLE_+0x830>
80000d10:	701020ef          	jal	80003c10 <printf>
80000d14:	00000413          	li	s0,0
80000d18:	01a00a13          	li	s4,26
80000d1c:	01000993          	li	s3,16
80000d20:	008904b3          	add	s1,s2,s0
80000d24:	000a0593          	mv	a1,s4
80000d28:	00040513          	mv	a0,s0
80000d2c:	190060ef          	jal	80006ebc <__modsi3>
80000d30:	04150793          	addi	a5,a0,65
80000d34:	00f48023          	sb	a5,0(s1)
80000d38:	00140413          	addi	s0,s0,1
80000d3c:	ff3412e3          	bne	s0,s3,80000d20 <main+0x218>
80000d40:	000907a3          	sb	zero,15(s2)
80000d44:	00090613          	mv	a2,s2
80000d48:	00090593          	mv	a1,s2
80000d4c:	80007537          	lui	a0,0x80007
80000d50:	7d450513          	addi	a0,a0,2004 # 800077d4 <_PROCEDURE_LINKAGE_TABLE_+0x854>
80000d54:	6bd020ef          	jal	80003c10 <printf>
80000d58:	5f1020ef          	jal	80003b48 <heap_free>
80000d5c:	00050593          	mv	a1,a0
80000d60:	40aa8633          	sub	a2,s5,a0
80000d64:	80007537          	lui	a0,0x80007
80000d68:	7ec50513          	addi	a0,a0,2028 # 800077ec <_PROCEDURE_LINKAGE_TABLE_+0x86c>
80000d6c:	6a5020ef          	jal	80003c10 <printf>
80000d70:	80007537          	lui	a0,0x80007
80000d74:	02850513          	addi	a0,a0,40 # 80007028 <_PROCEDURE_LINKAGE_TABLE_+0xa8>
80000d78:	699020ef          	jal	80003c10 <printf>
80000d7c:	80008537          	lui	a0,0x80008
80000d80:	82850513          	addi	a0,a0,-2008 # 80007828 <_PROCEDURE_LINKAGE_TABLE_+0x8a8>
80000d84:	68d020ef          	jal	80003c10 <printf>
80000d88:	5c1020ef          	jal	80003b48 <heap_free>
80000d8c:	00050413          	mv	s0,a0
80000d90:	00050593          	mv	a1,a0
80000d94:	80008537          	lui	a0,0x80008
80000d98:	85050513          	addi	a0,a0,-1968 # 80007850 <_PROCEDURE_LINKAGE_TABLE_+0x8d0>
80000d9c:	675020ef          	jal	80003c10 <printf>
80000da0:	00040513          	mv	a0,s0
80000da4:	11d020ef          	jal	800036c0 <malloc>
80000da8:	00050493          	mv	s1,a0
80000dac:	3c050463          	beqz	a0,80001174 <main+0x66c>
80000db0:	00040593          	mv	a1,s0
80000db4:	80008537          	lui	a0,0x80008
80000db8:	8b450513          	addi	a0,a0,-1868 # 800078b4 <_PROCEDURE_LINKAGE_TABLE_+0x934>
80000dbc:	655020ef          	jal	80003c10 <printf>
80000dc0:	00048513          	mv	a0,s1
80000dc4:	14d020ef          	jal	80003710 <free>
80000dc8:	80007537          	lui	a0,0x80007
80000dcc:	02850513          	addi	a0,a0,40 # 80007028 <_PROCEDURE_LINKAGE_TABLE_+0xa8>
80000dd0:	641020ef          	jal	80003c10 <printf>
80000dd4:	80008537          	lui	a0,0x80008
80000dd8:	8f050513          	addi	a0,a0,-1808 # 800078f0 <_PROCEDURE_LINKAGE_TABLE_+0x970>
80000ddc:	635020ef          	jal	80003c10 <printf>
80000de0:	000b0c63          	beqz	s6,80000df8 <main+0x2f0>
80000de4:	000b0513          	mv	a0,s6
80000de8:	129020ef          	jal	80003710 <free>
80000dec:	80008537          	lui	a0,0x80008
80000df0:	91050513          	addi	a0,a0,-1776 # 80007910 <_PROCEDURE_LINKAGE_TABLE_+0x990>
80000df4:	61d020ef          	jal	80003c10 <printf>
80000df8:	551020ef          	jal	80003b48 <heap_free>
80000dfc:	00050593          	mv	a1,a0
80000e00:	00001637          	lui	a2,0x1
80000e04:	81060613          	addi	a2,a2,-2032 # 810 <_start-0x7ffff7f0>
80000e08:	41560633          	sub	a2,a2,s5
80000e0c:	00a60633          	add	a2,a2,a0
80000e10:	80008537          	lui	a0,0x80008
80000e14:	92450513          	addi	a0,a0,-1756 # 80007924 <_PROCEDURE_LINKAGE_TABLE_+0x9a4>
80000e18:	5f9020ef          	jal	80003c10 <printf>
80000e1c:	80007537          	lui	a0,0x80007
80000e20:	02850513          	addi	a0,a0,40 # 80007028 <_PROCEDURE_LINKAGE_TABLE_+0xa8>
80000e24:	5ed020ef          	jal	80003c10 <printf>
80000e28:	80008537          	lui	a0,0x80008
80000e2c:	96050513          	addi	a0,a0,-1696 # 80007960 <_PROCEDURE_LINKAGE_TABLE_+0x9e0>
80000e30:	5e1020ef          	jal	80003c10 <printf>
80000e34:	00090c63          	beqz	s2,80000e4c <main+0x344>
80000e38:	00090513          	mv	a0,s2
80000e3c:	0d5020ef          	jal	80003710 <free>
80000e40:	80008537          	lui	a0,0x80008
80000e44:	98050513          	addi	a0,a0,-1664 # 80007980 <_PROCEDURE_LINKAGE_TABLE_+0xa00>
80000e48:	5c9020ef          	jal	80003c10 <printf>
80000e4c:	4fd020ef          	jal	80003b48 <heap_free>
80000e50:	00050593          	mv	a1,a0
80000e54:	32aa8a63          	beq	s5,a0,80001188 <main+0x680>
80000e58:	80007637          	lui	a2,0x80007
80000e5c:	55460613          	addi	a2,a2,1364 # 80007554 <_PROCEDURE_LINKAGE_TABLE_+0x5d4>
80000e60:	80008537          	lui	a0,0x80008
80000e64:	99450513          	addi	a0,a0,-1644 # 80007994 <_PROCEDURE_LINKAGE_TABLE_+0xa14>
80000e68:	5a9020ef          	jal	80003c10 <printf>
80000e6c:	80007437          	lui	s0,0x80007
80000e70:	02840513          	addi	a0,s0,40 # 80007028 <_PROCEDURE_LINKAGE_TABLE_+0xa8>
80000e74:	59d020ef          	jal	80003c10 <printf>
80000e78:	80008537          	lui	a0,0x80008
80000e7c:	9d450513          	addi	a0,a0,-1580 # 800079d4 <_PROCEDURE_LINKAGE_TABLE_+0xa54>
80000e80:	591020ef          	jal	80003c10 <printf>
80000e84:	00000513          	li	a0,0
80000e88:	089020ef          	jal	80003710 <free>
80000e8c:	80008537          	lui	a0,0x80008
80000e90:	9f450513          	addi	a0,a0,-1548 # 800079f4 <_PROCEDURE_LINKAGE_TABLE_+0xa74>
80000e94:	57d020ef          	jal	80003c10 <printf>
80000e98:	02840513          	addi	a0,s0,40
80000e9c:	575020ef          	jal	80003c10 <printf>
80000ea0:	80008537          	lui	a0,0x80008
80000ea4:	a1850513          	addi	a0,a0,-1512 # 80007a18 <_PROCEDURE_LINKAGE_TABLE_+0xa98>
80000ea8:	569020ef          	jal	80003c10 <printf>
80000eac:	49d020ef          	jal	80003b48 <heap_free>
80000eb0:	00050593          	mv	a1,a0
80000eb4:	80008537          	lui	a0,0x80008
80000eb8:	a3450513          	addi	a0,a0,-1484 # 80007a34 <_PROCEDURE_LINKAGE_TABLE_+0xab4>
80000ebc:	555020ef          	jal	80003c10 <printf>
80000ec0:	000a8593          	mv	a1,s5
80000ec4:	80008537          	lui	a0,0x80008
80000ec8:	a5450513          	addi	a0,a0,-1452 # 80007a54 <_PROCEDURE_LINKAGE_TABLE_+0xad4>
80000ecc:	545020ef          	jal	80003c10 <printf>
80000ed0:	80008437          	lui	s0,0x80008
80000ed4:	a7440513          	addi	a0,s0,-1420 # 80007a74 <_PROCEDURE_LINKAGE_TABLE_+0xaf4>
80000ed8:	539020ef          	jal	80003c10 <printf>
80000edc:	a7440513          	addi	a0,s0,-1420
80000ee0:	531020ef          	jal	80003c10 <printf>
80000ee4:	80011437          	lui	s0,0x80011
80000ee8:	00a00693          	li	a3,10
80000eec:	01400613          	li	a2,20
80000ef0:	e0040593          	addi	a1,s0,-512 # 80010e00 <buf>
80000ef4:	1ca00513          	li	a0,458
80000ef8:	38c020ef          	jal	80003284 <uitoa>
80000efc:	e0040593          	addi	a1,s0,-512
80000f00:	800084b7          	lui	s1,0x80008
80000f04:	a7c48513          	addi	a0,s1,-1412 # 80007a7c <_PROCEDURE_LINKAGE_TABLE_+0xafc>
80000f08:	509020ef          	jal	80003c10 <printf>
80000f0c:	800117b7          	lui	a5,0x80011
80000f10:	dc07a603          	lw	a2,-576(a5) # 80010dc0 <count>
80000f14:	800085b7          	lui	a1,0x80008
80000f18:	a8058593          	addi	a1,a1,-1408 # 80007a80 <_PROCEDURE_LINKAGE_TABLE_+0xb00>
80000f1c:	e0040513          	addi	a0,s0,-512
80000f20:	539020ef          	jal	80003c58 <sprintf>
80000f24:	e0040593          	addi	a1,s0,-512
80000f28:	a7c48513          	addi	a0,s1,-1412
80000f2c:	4e5020ef          	jal	80003c10 <printf>
80000f30:	800085b7          	lui	a1,0x80008
80000f34:	a8c58593          	addi	a1,a1,-1396 # 80007a8c <_PROCEDURE_LINKAGE_TABLE_+0xb0c>
80000f38:	e0040513          	addi	a0,s0,-512
80000f3c:	715010ef          	jal	80002e50 <strcpy>
80000f40:	04100513          	li	a0,65
80000f44:	431020ef          	jal	80003b74 <kputc>
80000f48:	00a00513          	li	a0,10
80000f4c:	429020ef          	jal	80003b74 <kputc>
80000f50:	80008537          	lui	a0,0x80008
80000f54:	a9c50513          	addi	a0,a0,-1380 # 80007a9c <_PROCEDURE_LINKAGE_TABLE_+0xb1c>
80000f58:	4b9020ef          	jal	80003c10 <printf>
80000f5c:	00000413          	li	s0,0
80000f60:	80008937          	lui	s2,0x80008
80000f64:	00a00493          	li	s1,10
80000f68:	00040593          	mv	a1,s0
80000f6c:	ae890513          	addi	a0,s2,-1304 # 80007ae8 <_PROCEDURE_LINKAGE_TABLE_+0xb68>
80000f70:	4a1020ef          	jal	80003c10 <printf>
80000f74:	00140413          	addi	s0,s0,1
80000f78:	fe9418e3          	bne	s0,s1,80000f68 <main+0x460>
80000f7c:	80007537          	lui	a0,0x80007
80000f80:	02850513          	addi	a0,a0,40 # 80007028 <_PROCEDURE_LINKAGE_TABLE_+0xa8>
80000f84:	48d020ef          	jal	80003c10 <printf>
80000f88:	80008537          	lui	a0,0x80008
80000f8c:	ab050513          	addi	a0,a0,-1360 # 80007ab0 <_PROCEDURE_LINKAGE_TABLE_+0xb30>
80000f90:	481020ef          	jal	80003c10 <printf>
80000f94:	80008537          	lui	a0,0x80008
80000f98:	ac450513          	addi	a0,a0,-1340 # 80007ac4 <_PROCEDURE_LINKAGE_TABLE_+0xb44>
80000f9c:	475020ef          	jal	80003c10 <printf>
80000fa0:	4d200593          	li	a1,1234
80000fa4:	80008537          	lui	a0,0x80008
80000fa8:	ad450513          	addi	a0,a0,-1324 # 80007ad4 <_PROCEDURE_LINKAGE_TABLE_+0xb54>
80000fac:	465020ef          	jal	80003c10 <printf>
80000fb0:	02c00593          	li	a1,44
80000fb4:	80008537          	lui	a0,0x80008
80000fb8:	ae050513          	addi	a0,a0,-1312 # 80007ae0 <_PROCEDURE_LINKAGE_TABLE_+0xb60>
80000fbc:	455020ef          	jal	80003c10 <printf>
80000fc0:	800115b7          	lui	a1,0x80011
80000fc4:	e0058593          	addi	a1,a1,-512 # 80010e00 <buf>
80000fc8:	80008537          	lui	a0,0x80008
80000fcc:	a7c50513          	addi	a0,a0,-1412 # 80007a7c <_PROCEDURE_LINKAGE_TABLE_+0xafc>
80000fd0:	441020ef          	jal	80003c10 <printf>
80000fd4:	04800513          	li	a0,72
80000fd8:	39d020ef          	jal	80003b74 <kputc>
80000fdc:	06500513          	li	a0,101
80000fe0:	395020ef          	jal	80003b74 <kputc>
80000fe4:	06c00513          	li	a0,108
80000fe8:	38d020ef          	jal	80003b74 <kputc>
80000fec:	06c00513          	li	a0,108
80000ff0:	385020ef          	jal	80003b74 <kputc>
80000ff4:	06f00513          	li	a0,111
80000ff8:	37d020ef          	jal	80003b74 <kputc>
80000ffc:	02100513          	li	a0,33
80001000:	375020ef          	jal	80003b74 <kputc>
80001004:	00a00513          	li	a0,10
80001008:	36d020ef          	jal	80003b74 <kputc>
8000100c:	00800593          	li	a1,8
80001010:	80008537          	lui	a0,0x80008
80001014:	aec50513          	addi	a0,a0,-1300 # 80007aec <_PROCEDURE_LINKAGE_TABLE_+0xb6c>
80001018:	3f9020ef          	jal	80003c10 <printf>
8000101c:	00100493          	li	s1,1
80001020:	00700a93          	li	s5,7
80001024:	80008a37          	lui	s4,0x80008
80001028:	800089b7          	lui	s3,0x80008
8000102c:	80007bb7          	lui	s7,0x80007
80001030:	fff00b13          	li	s6,-1
80001034:	000a8913          	mv	s2,s5
80001038:	00000413          	li	s0,0
8000103c:	01505a63          	blez	s5,80001050 <main+0x548>
80001040:	b14a0513          	addi	a0,s4,-1260 # 80007b14 <_PROCEDURE_LINKAGE_TABLE_+0xb94>
80001044:	3cd020ef          	jal	80003c10 <printf>
80001048:	00140413          	addi	s0,s0,1
8000104c:	fe891ae3          	bne	s2,s0,80001040 <main+0x538>
80001050:	00000413          	li	s0,0
80001054:	b1898513          	addi	a0,s3,-1256 # 80007b18 <_PROCEDURE_LINKAGE_TABLE_+0xb98>
80001058:	3b9020ef          	jal	80003c10 <printf>
8000105c:	00140413          	addi	s0,s0,1
80001060:	fe944ae3          	blt	s0,s1,80001054 <main+0x54c>
80001064:	028b8513          	addi	a0,s7,40 # 80007028 <_PROCEDURE_LINKAGE_TABLE_+0xa8>
80001068:	3a9020ef          	jal	80003c10 <printf>
8000106c:	fffa8a93          	addi	s5,s5,-1
80001070:	00248493          	addi	s1,s1,2
80001074:	fd6a90e3          	bne	s5,s6,80001034 <main+0x52c>
80001078:	80008537          	lui	a0,0x80008
8000107c:	b1c50513          	addi	a0,a0,-1252 # 80007b1c <_PROCEDURE_LINKAGE_TABLE_+0xb9c>
80001080:	391020ef          	jal	80003c10 <printf>
80001084:	80008437          	lui	s0,0x80008
80001088:	b3440513          	addi	a0,s0,-1228 # 80007b34 <_PROCEDURE_LINKAGE_TABLE_+0xbb4>
8000108c:	385020ef          	jal	80003c10 <printf>
80001090:	80008537          	lui	a0,0x80008
80001094:	b6050513          	addi	a0,a0,-1184 # 80007b60 <_PROCEDURE_LINKAGE_TABLE_+0xbe0>
80001098:	379020ef          	jal	80003c10 <printf>
8000109c:	80008537          	lui	a0,0x80008
800010a0:	b7450513          	addi	a0,a0,-1164 # 80007b74 <_PROCEDURE_LINKAGE_TABLE_+0xbf4>
800010a4:	36d020ef          	jal	80003c10 <printf>
800010a8:	880ff0ef          	jal	80000128 <test_basic_operations>
800010ac:	90cff0ef          	jal	800001b8 <test_shift_operations>
800010b0:	984ff0ef          	jal	80000234 <test_comparison_operations>
800010b4:	a38ff0ef          	jal	800002ec <test_memory_operations>
800010b8:	b54ff0ef          	jal	8000040c <test_control_flow>
800010bc:	cdcff0ef          	jal	80000598 <test_function_calls>
800010c0:	d28ff0ef          	jal	800005e8 <test_immediate_operations>
800010c4:	d98ff0ef          	jal	8000065c <test_pointer_operations>
800010c8:	b3440513          	addi	a0,s0,-1228
800010cc:	345020ef          	jal	80003c10 <printf>
800010d0:	80008537          	lui	a0,0x80008
800010d4:	ba050513          	addi	a0,a0,-1120 # 80007ba0 <_PROCEDURE_LINKAGE_TABLE_+0xc20>
800010d8:	339020ef          	jal	80003c10 <printf>
800010dc:	b3440513          	addi	a0,s0,-1228
800010e0:	331020ef          	jal	80003c10 <printf>
800010e4:	8000f7b7          	lui	a5,0x8000f
800010e8:	2887a603          	lw	a2,648(a5) # 8000f288 <_erodata+0x678>
800010ec:	28c7a683          	lw	a3,652(a5)
800010f0:	80007537          	lui	a0,0x80007
800010f4:	50850513          	addi	a0,a0,1288 # 80007508 <_PROCEDURE_LINKAGE_TABLE_+0x588>
800010f8:	319020ef          	jal	80003c10 <printf>
800010fc:	b3440513          	addi	a0,s0,-1228
80001100:	311020ef          	jal	80003c10 <printf>
80001104:	110000ef          	jal	80001214 <rv32i>
80001108:	b3440513          	addi	a0,s0,-1228
8000110c:	305020ef          	jal	80003c10 <printf>
80001110:	de8ff0ef          	jal	800006f8 <prime_calculation>
80001114:	ee8ff0ef          	jal	800007fc <taylor_series>
80001118:	87dff0ef          	jal	80000994 <monte_carlo_pi>
8000111c:	00000513          	li	a0,0
80001120:	02c12083          	lw	ra,44(sp)
80001124:	02812403          	lw	s0,40(sp)
80001128:	02412483          	lw	s1,36(sp)
8000112c:	02012903          	lw	s2,32(sp)
80001130:	01c12983          	lw	s3,28(sp)
80001134:	01812a03          	lw	s4,24(sp)
80001138:	01412a83          	lw	s5,20(sp)
8000113c:	01012b03          	lw	s6,16(sp)
80001140:	00c12b83          	lw	s7,12(sp)
80001144:	03010113          	addi	sp,sp,48
80001148:	00008067          	ret
8000114c:	00000413          	li	s0,0
80001150:	a05ff06f          	j	80000b54 <main+0x4c>
80001154:	80007537          	lui	a0,0x80007
80001158:	6c050513          	addi	a0,a0,1728 # 800076c0 <_PROCEDURE_LINKAGE_TABLE_+0x740>
8000115c:	2b5020ef          	jal	80003c10 <printf>
80001160:	b65ff06f          	j	80000cc4 <main+0x1bc>
80001164:	80007537          	lui	a0,0x80007
80001168:	79050513          	addi	a0,a0,1936 # 80007790 <_PROCEDURE_LINKAGE_TABLE_+0x810>
8000116c:	2a5020ef          	jal	80003c10 <printf>
80001170:	be9ff06f          	j	80000d58 <main+0x250>
80001174:	00040593          	mv	a1,s0
80001178:	80008537          	lui	a0,0x80008
8000117c:	87450513          	addi	a0,a0,-1932 # 80007874 <_PROCEDURE_LINKAGE_TABLE_+0x8f4>
80001180:	291020ef          	jal	80003c10 <printf>
80001184:	c45ff06f          	j	80000dc8 <main+0x2c0>
80001188:	80007637          	lui	a2,0x80007
8000118c:	55060613          	addi	a2,a2,1360 # 80007550 <_PROCEDURE_LINKAGE_TABLE_+0x5d0>
80001190:	cd1ff06f          	j	80000e60 <main+0x358>

80001194 <ram_read>:
80001194:	003007b7          	lui	a5,0x300
80001198:	06f58a63          	beq	a1,a5,8000120c <ram_read+0x78>
8000119c:	00452783          	lw	a5,4(a0)
800011a0:	00f5e863          	bltu	a1,a5,800011b0 <ram_read+0x1c>
800011a4:	00852703          	lw	a4,8(a0)
800011a8:	00e78733          	add	a4,a5,a4
800011ac:	02e5e463          	bltu	a1,a4,800011d4 <ram_read+0x40>
800011b0:	ff010113          	addi	sp,sp,-16
800011b4:	00112623          	sw	ra,12(sp)
800011b8:	80008537          	lui	a0,0x80008
800011bc:	bc450513          	addi	a0,a0,-1084 # 80007bc4 <_PROCEDURE_LINKAGE_TABLE_+0xc44>
800011c0:	251020ef          	jal	80003c10 <printf>
800011c4:	00000513          	li	a0,0
800011c8:	00c12083          	lw	ra,12(sp)
800011cc:	01010113          	addi	sp,sp,16
800011d0:	00008067          	ret
800011d4:	40f585b3          	sub	a1,a1,a5
800011d8:	00052783          	lw	a5,0(a0)
800011dc:	00b787b3          	add	a5,a5,a1
800011e0:	0017c503          	lbu	a0,1(a5) # 300001 <_start-0x7fcfffff>
800011e4:	00851513          	slli	a0,a0,0x8
800011e8:	0027c703          	lbu	a4,2(a5)
800011ec:	01071713          	slli	a4,a4,0x10
800011f0:	00e56533          	or	a0,a0,a4
800011f4:	0007c703          	lbu	a4,0(a5)
800011f8:	00e56533          	or	a0,a0,a4
800011fc:	0037c783          	lbu	a5,3(a5)
80001200:	01879793          	slli	a5,a5,0x18
80001204:	00f56533          	or	a0,a0,a5
80001208:	00008067          	ret
8000120c:	00000513          	li	a0,0
80001210:	00008067          	ret

80001214 <rv32i>:
80001214:	ef010113          	addi	sp,sp,-272
80001218:	10112623          	sw	ra,268(sp)
8000121c:	80008537          	lui	a0,0x80008
80001220:	bf450513          	addi	a0,a0,-1036 # 80007bf4 <_PROCEDURE_LINKAGE_TABLE_+0xc74>
80001224:	1ed020ef          	jal	80003c10 <printf>
80001228:	0000f537          	lui	a0,0xf
8000122c:	23050513          	addi	a0,a0,560 # f230 <_start-0x7fff0dd0>
80001230:	490020ef          	jal	800036c0 <malloc>
80001234:	180502e3          	beqz	a0,80001bb8 <rv32i+0x9a4>
80001238:	10812423          	sw	s0,264(sp)
8000123c:	10912223          	sw	s1,260(sp)
80001240:	11212023          	sw	s2,256(sp)
80001244:	0f312e23          	sw	s3,252(sp)
80001248:	0f412c23          	sw	s4,248(sp)
8000124c:	0f512a23          	sw	s5,244(sp)
80001250:	0f612823          	sw	s6,240(sp)
80001254:	0f712623          	sw	s7,236(sp)
80001258:	0f812423          	sw	s8,232(sp)
8000125c:	0f912223          	sw	s9,228(sp)
80001260:	00050b93          	mv	s7,a0
80001264:	0000f637          	lui	a2,0xf
80001268:	23060613          	addi	a2,a2,560 # f230 <_start-0x7fff0dd0>
8000126c:	00000593          	li	a1,0
80001270:	0b1010ef          	jal	80002b20 <memset>
80001274:	00007637          	lui	a2,0x7
80001278:	a0460613          	addi	a2,a2,-1532 # 6a04 <_start-0x7fff95fc>
8000127c:	800085b7          	lui	a1,0x80008
80001280:	f0858593          	addi	a1,a1,-248 # 80007f08 <rv32>
80001284:	000b8513          	mv	a0,s7
80001288:	0b1010ef          	jal	80002b38 <memcpy>
8000128c:	0d712a23          	sw	s7,212(sp)
80001290:	80000437          	lui	s0,0x80000
80001294:	0c812c23          	sw	s0,216(sp)
80001298:	0000f7b7          	lui	a5,0xf
8000129c:	23078793          	addi	a5,a5,560 # f230 <_start-0x7fff0dd0>
800012a0:	0cf12e23          	sw	a5,220(sp)
800012a4:	0d000613          	li	a2,208
800012a8:	00000593          	li	a1,0
800012ac:	00410513          	addi	a0,sp,4
800012b0:	071010ef          	jal	80002b20 <memset>
800012b4:	08812023          	sw	s0,128(sp)
800012b8:	0d410913          	addi	s2,sp,212
800012bc:	03700993          	li	s3,55
800012c0:	80008cb7          	lui	s9,0x80008
800012c4:	00100b13          	li	s6,1
800012c8:	06f00a13          	li	s4,111
800012cc:	000ffc37          	lui	s8,0xff
800012d0:	00001ab7          	lui	s5,0x1
800012d4:	800a8a93          	addi	s5,s5,-2048 # 800 <_start-0x7ffff800>
800012d8:	0500006f          	j	80001328 <rv32i+0x114>
800012dc:	05458ae3          	beq	a1,s4,80001b30 <rv32i+0x91c>
800012e0:	0cba6263          	bltu	s4,a1,800013a4 <rv32i+0x190>
800012e4:	06300e13          	li	t3,99
800012e8:	6bc58e63          	beq	a1,t3,800019a4 <rv32i+0x790>
800012ec:	06700693          	li	a3,103
800012f0:	0ad598e3          	bne	a1,a3,80001ba0 <rv32i+0x98c>
800012f4:	01479693          	slli	a3,a5,0x14
800012f8:	0006d663          	bgez	a3,80001304 <rv32i+0xf0>
800012fc:	fffff6b7          	lui	a3,0xfffff
80001300:	00d7e7b3          	or	a5,a5,a3
80001304:	00241413          	slli	s0,s0,0x2
80001308:	00240433          	add	s0,s0,sp
8000130c:	00e42023          	sw	a4,0(s0) # 80000000 <_start>
80001310:	00261693          	slli	a3,a2,0x2
80001314:	002686b3          	add	a3,a3,sp
80001318:	0006a703          	lw	a4,0(a3) # fffff000 <qscmp+0x7ffccfe8>
8000131c:	00e787b3          	add	a5,a5,a4
80001320:	ffe7f793          	andi	a5,a5,-2
80001324:	08f12023          	sw	a5,128(sp)
80001328:	08012483          	lw	s1,128(sp)
8000132c:	00048593          	mv	a1,s1
80001330:	00090513          	mv	a0,s2
80001334:	e61ff0ef          	jal	80001194 <ram_read>
80001338:	00448713          	addi	a4,s1,4
8000133c:	08e12023          	sw	a4,128(sp)
80001340:	07f57593          	andi	a1,a0,127
80001344:	00755313          	srli	t1,a0,0x7
80001348:	01f37413          	andi	s0,t1,31
8000134c:	00c55693          	srli	a3,a0,0xc
80001350:	0076f893          	andi	a7,a3,7
80001354:	00f55693          	srli	a3,a0,0xf
80001358:	01f6f613          	andi	a2,a3,31
8000135c:	01455793          	srli	a5,a0,0x14
80001360:	01f7f813          	andi	a6,a5,31
80001364:	01955693          	srli	a3,a0,0x19
80001368:	00012023          	sw	zero,0(sp)
8000136c:	f6b9e8e3          	bltu	s3,a1,800012dc <rv32i+0xc8>
80001370:	00200713          	li	a4,2
80001374:	02b776e3          	bgeu	a4,a1,80001ba0 <rv32i+0x98c>
80001378:	0ff6ff13          	zext.b	t5,a3
8000137c:	ffd58713          	addi	a4,a1,-3
80001380:	0ff77e93          	zext.b	t4,a4
80001384:	03400e13          	li	t3,52
80001388:	01de6ce3          	bltu	t3,t4,80001ba0 <rv32i+0x98c>
8000138c:	002e9713          	slli	a4,t4,0x2
80001390:	80008e37          	lui	t3,0x80008
80001394:	dbce0e13          	addi	t3,t3,-580 # 80007dbc <_PROCEDURE_LINKAGE_TABLE_+0xe3c>
80001398:	01c70733          	add	a4,a4,t3
8000139c:	00072703          	lw	a4,0(a4)
800013a0:	00070067          	jr	a4
800013a4:	07300793          	li	a5,115
800013a8:	7ef59c63          	bne	a1,a5,80001ba0 <rv32i+0x98c>
800013ac:	07f00793          	li	a5,127
800013b0:	f6a7ece3          	bltu	a5,a0,80001328 <rv32i+0x114>
800013b4:	04412583          	lw	a1,68(sp)
800013b8:	02c00793          	li	a5,44
800013bc:	7cf58463          	beq	a1,a5,80001b84 <rv32i+0x970>
800013c0:	02d00793          	li	a5,45
800013c4:	7cf58a63          	beq	a1,a5,80001b98 <rv32i+0x984>
800013c8:	00048613          	mv	a2,s1
800013cc:	80008537          	lui	a0,0x80008
800013d0:	cf850513          	addi	a0,a0,-776 # 80007cf8 <_PROCEDURE_LINKAGE_TABLE_+0xd78>
800013d4:	03d020ef          	jal	80003c10 <printf>
800013d8:	02012423          	sw	zero,40(sp)
800013dc:	f4dff06f          	j	80001328 <rv32i+0x114>
800013e0:	00289693          	slli	a3,a7,0x2
800013e4:	800087b7          	lui	a5,0x80008
800013e8:	e9078793          	addi	a5,a5,-368 # 80007e90 <_PROCEDURE_LINKAGE_TABLE_+0xf10>
800013ec:	00f686b3          	add	a3,a3,a5
800013f0:	0006a783          	lw	a5,0(a3)
800013f4:	00078067          	jr	a5
800013f8:	02000793          	li	a5,32
800013fc:	02ff0863          	beq	t5,a5,8000142c <rv32i+0x218>
80001400:	00241793          	slli	a5,s0,0x2
80001404:	002787b3          	add	a5,a5,sp
80001408:	00261713          	slli	a4,a2,0x2
8000140c:	00270733          	add	a4,a4,sp
80001410:	00281693          	slli	a3,a6,0x2
80001414:	002686b3          	add	a3,a3,sp
80001418:	00072703          	lw	a4,0(a4)
8000141c:	0006a683          	lw	a3,0(a3)
80001420:	00d70733          	add	a4,a4,a3
80001424:	00e7a023          	sw	a4,0(a5)
80001428:	f01ff06f          	j	80001328 <rv32i+0x114>
8000142c:	00241793          	slli	a5,s0,0x2
80001430:	002787b3          	add	a5,a5,sp
80001434:	00261713          	slli	a4,a2,0x2
80001438:	00270733          	add	a4,a4,sp
8000143c:	00281693          	slli	a3,a6,0x2
80001440:	002686b3          	add	a3,a3,sp
80001444:	00072703          	lw	a4,0(a4)
80001448:	0006a683          	lw	a3,0(a3)
8000144c:	40d70733          	sub	a4,a4,a3
80001450:	00e7a023          	sw	a4,0(a5)
80001454:	ed5ff06f          	j	80001328 <rv32i+0x114>
80001458:	00241793          	slli	a5,s0,0x2
8000145c:	002787b3          	add	a5,a5,sp
80001460:	00261713          	slli	a4,a2,0x2
80001464:	00270733          	add	a4,a4,sp
80001468:	00281693          	slli	a3,a6,0x2
8000146c:	002686b3          	add	a3,a3,sp
80001470:	0006a683          	lw	a3,0(a3)
80001474:	00072703          	lw	a4,0(a4)
80001478:	00d71733          	sll	a4,a4,a3
8000147c:	00e7a023          	sw	a4,0(a5)
80001480:	ea9ff06f          	j	80001328 <rv32i+0x114>
80001484:	00241793          	slli	a5,s0,0x2
80001488:	002787b3          	add	a5,a5,sp
8000148c:	00261713          	slli	a4,a2,0x2
80001490:	00270733          	add	a4,a4,sp
80001494:	00281693          	slli	a3,a6,0x2
80001498:	002686b3          	add	a3,a3,sp
8000149c:	00072703          	lw	a4,0(a4)
800014a0:	0006a683          	lw	a3,0(a3)
800014a4:	00d72733          	slt	a4,a4,a3
800014a8:	00e7a023          	sw	a4,0(a5)
800014ac:	e7dff06f          	j	80001328 <rv32i+0x114>
800014b0:	00241793          	slli	a5,s0,0x2
800014b4:	002787b3          	add	a5,a5,sp
800014b8:	00261713          	slli	a4,a2,0x2
800014bc:	00270733          	add	a4,a4,sp
800014c0:	00281693          	slli	a3,a6,0x2
800014c4:	002686b3          	add	a3,a3,sp
800014c8:	00072703          	lw	a4,0(a4)
800014cc:	0006a683          	lw	a3,0(a3)
800014d0:	00d73733          	sltu	a4,a4,a3
800014d4:	00e7a023          	sw	a4,0(a5)
800014d8:	e51ff06f          	j	80001328 <rv32i+0x114>
800014dc:	00241793          	slli	a5,s0,0x2
800014e0:	002787b3          	add	a5,a5,sp
800014e4:	00261713          	slli	a4,a2,0x2
800014e8:	00270733          	add	a4,a4,sp
800014ec:	00281693          	slli	a3,a6,0x2
800014f0:	002686b3          	add	a3,a3,sp
800014f4:	00072703          	lw	a4,0(a4)
800014f8:	0006a683          	lw	a3,0(a3)
800014fc:	00d74733          	xor	a4,a4,a3
80001500:	00e7a023          	sw	a4,0(a5)
80001504:	e25ff06f          	j	80001328 <rv32i+0x114>
80001508:	02000793          	li	a5,32
8000150c:	02ff0863          	beq	t5,a5,8000153c <rv32i+0x328>
80001510:	00241793          	slli	a5,s0,0x2
80001514:	002787b3          	add	a5,a5,sp
80001518:	00261713          	slli	a4,a2,0x2
8000151c:	00270733          	add	a4,a4,sp
80001520:	00281693          	slli	a3,a6,0x2
80001524:	002686b3          	add	a3,a3,sp
80001528:	0006a683          	lw	a3,0(a3)
8000152c:	00072703          	lw	a4,0(a4)
80001530:	00d75733          	srl	a4,a4,a3
80001534:	00e7a023          	sw	a4,0(a5)
80001538:	df1ff06f          	j	80001328 <rv32i+0x114>
8000153c:	00241793          	slli	a5,s0,0x2
80001540:	002787b3          	add	a5,a5,sp
80001544:	00261713          	slli	a4,a2,0x2
80001548:	00270733          	add	a4,a4,sp
8000154c:	00281693          	slli	a3,a6,0x2
80001550:	002686b3          	add	a3,a3,sp
80001554:	0006a683          	lw	a3,0(a3)
80001558:	00072703          	lw	a4,0(a4)
8000155c:	40d75733          	sra	a4,a4,a3
80001560:	00e7a023          	sw	a4,0(a5)
80001564:	dc5ff06f          	j	80001328 <rv32i+0x114>
80001568:	00241793          	slli	a5,s0,0x2
8000156c:	002787b3          	add	a5,a5,sp
80001570:	00261713          	slli	a4,a2,0x2
80001574:	00270733          	add	a4,a4,sp
80001578:	00281693          	slli	a3,a6,0x2
8000157c:	002686b3          	add	a3,a3,sp
80001580:	00072703          	lw	a4,0(a4)
80001584:	0006a683          	lw	a3,0(a3)
80001588:	00d76733          	or	a4,a4,a3
8000158c:	00e7a023          	sw	a4,0(a5)
80001590:	d99ff06f          	j	80001328 <rv32i+0x114>
80001594:	00241793          	slli	a5,s0,0x2
80001598:	002787b3          	add	a5,a5,sp
8000159c:	00261713          	slli	a4,a2,0x2
800015a0:	00270733          	add	a4,a4,sp
800015a4:	00281693          	slli	a3,a6,0x2
800015a8:	002686b3          	add	a3,a3,sp
800015ac:	00072703          	lw	a4,0(a4)
800015b0:	0006a683          	lw	a3,0(a3)
800015b4:	00d77733          	and	a4,a4,a3
800015b8:	00e7a023          	sw	a4,0(a5)
800015bc:	d6dff06f          	j	80001328 <rv32i+0x114>
800015c0:	01479713          	slli	a4,a5,0x14
800015c4:	00075663          	bgez	a4,800015d0 <rv32i+0x3bc>
800015c8:	fffff737          	lui	a4,0xfffff
800015cc:	00e7e7b3          	or	a5,a5,a4
800015d0:	00078593          	mv	a1,a5
800015d4:	00289693          	slli	a3,a7,0x2
800015d8:	80008737          	lui	a4,0x80008
800015dc:	eb070713          	addi	a4,a4,-336 # 80007eb0 <_PROCEDURE_LINKAGE_TABLE_+0xf30>
800015e0:	00e686b3          	add	a3,a3,a4
800015e4:	0006a703          	lw	a4,0(a3)
800015e8:	00070067          	jr	a4
800015ec:	00241713          	slli	a4,s0,0x2
800015f0:	00270733          	add	a4,a4,sp
800015f4:	00261693          	slli	a3,a2,0x2
800015f8:	002686b3          	add	a3,a3,sp
800015fc:	0006a683          	lw	a3,0(a3)
80001600:	00f687b3          	add	a5,a3,a5
80001604:	00f72023          	sw	a5,0(a4)
80001608:	d21ff06f          	j	80001328 <rv32i+0x114>
8000160c:	00241793          	slli	a5,s0,0x2
80001610:	002787b3          	add	a5,a5,sp
80001614:	00261713          	slli	a4,a2,0x2
80001618:	00270733          	add	a4,a4,sp
8000161c:	00072703          	lw	a4,0(a4)
80001620:	00b72733          	slt	a4,a4,a1
80001624:	00e7a023          	sw	a4,0(a5)
80001628:	d01ff06f          	j	80001328 <rv32i+0x114>
8000162c:	00241713          	slli	a4,s0,0x2
80001630:	00270733          	add	a4,a4,sp
80001634:	00261693          	slli	a3,a2,0x2
80001638:	002686b3          	add	a3,a3,sp
8000163c:	0006a683          	lw	a3,0(a3)
80001640:	00f6b7b3          	sltu	a5,a3,a5
80001644:	00f72023          	sw	a5,0(a4)
80001648:	ce1ff06f          	j	80001328 <rv32i+0x114>
8000164c:	00241713          	slli	a4,s0,0x2
80001650:	00270733          	add	a4,a4,sp
80001654:	00261693          	slli	a3,a2,0x2
80001658:	002686b3          	add	a3,a3,sp
8000165c:	0006a683          	lw	a3,0(a3)
80001660:	00f6c7b3          	xor	a5,a3,a5
80001664:	00f72023          	sw	a5,0(a4)
80001668:	cc1ff06f          	j	80001328 <rv32i+0x114>
8000166c:	00241713          	slli	a4,s0,0x2
80001670:	00270733          	add	a4,a4,sp
80001674:	00261693          	slli	a3,a2,0x2
80001678:	002686b3          	add	a3,a3,sp
8000167c:	0006a683          	lw	a3,0(a3)
80001680:	00f6e7b3          	or	a5,a3,a5
80001684:	00f72023          	sw	a5,0(a4)
80001688:	ca1ff06f          	j	80001328 <rv32i+0x114>
8000168c:	00241713          	slli	a4,s0,0x2
80001690:	00270733          	add	a4,a4,sp
80001694:	00261693          	slli	a3,a2,0x2
80001698:	002686b3          	add	a3,a3,sp
8000169c:	0006a683          	lw	a3,0(a3)
800016a0:	00f6f7b3          	and	a5,a3,a5
800016a4:	00f72023          	sw	a5,0(a4)
800016a8:	c81ff06f          	j	80001328 <rv32i+0x114>
800016ac:	00241713          	slli	a4,s0,0x2
800016b0:	00270733          	add	a4,a4,sp
800016b4:	00261693          	slli	a3,a2,0x2
800016b8:	002686b3          	add	a3,a3,sp
800016bc:	0006a683          	lw	a3,0(a3)
800016c0:	00f697b3          	sll	a5,a3,a5
800016c4:	00f72023          	sw	a5,0(a4)
800016c8:	c61ff06f          	j	80001328 <rv32i+0x114>
800016cc:	02000793          	li	a5,32
800016d0:	02ff0263          	beq	t5,a5,800016f4 <rv32i+0x4e0>
800016d4:	00241793          	slli	a5,s0,0x2
800016d8:	002787b3          	add	a5,a5,sp
800016dc:	00261713          	slli	a4,a2,0x2
800016e0:	00270733          	add	a4,a4,sp
800016e4:	00072703          	lw	a4,0(a4)
800016e8:	00b75733          	srl	a4,a4,a1
800016ec:	00e7a023          	sw	a4,0(a5)
800016f0:	c39ff06f          	j	80001328 <rv32i+0x114>
800016f4:	00241793          	slli	a5,s0,0x2
800016f8:	002787b3          	add	a5,a5,sp
800016fc:	00261713          	slli	a4,a2,0x2
80001700:	00270733          	add	a4,a4,sp
80001704:	00072703          	lw	a4,0(a4)
80001708:	40b75733          	sra	a4,a4,a1
8000170c:	00e7a023          	sw	a4,0(a5)
80001710:	c19ff06f          	j	80001328 <rv32i+0x114>
80001714:	01479713          	slli	a4,a5,0x14
80001718:	00075663          	bgez	a4,80001724 <rv32i+0x510>
8000171c:	fffff737          	lui	a4,0xfffff
80001720:	00e7e7b3          	or	a5,a5,a4
80001724:	00261693          	slli	a3,a2,0x2
80001728:	0e068713          	addi	a4,a3,224
8000172c:	002706b3          	add	a3,a4,sp
80001730:	f206a583          	lw	a1,-224(a3)
80001734:	00b785b3          	add	a1,a5,a1
80001738:	00500793          	li	a5,5
8000173c:	0d17e263          	bltu	a5,a7,80001800 <rv32i+0x5ec>
80001740:	00289793          	slli	a5,a7,0x2
80001744:	80008737          	lui	a4,0x80008
80001748:	ed070713          	addi	a4,a4,-304 # 80007ed0 <_PROCEDURE_LINKAGE_TABLE_+0xf50>
8000174c:	00e787b3          	add	a5,a5,a4
80001750:	0007a783          	lw	a5,0(a5)
80001754:	00078067          	jr	a5
80001758:	00090513          	mv	a0,s2
8000175c:	a39ff0ef          	jal	80001194 <ram_read>
80001760:	00241793          	slli	a5,s0,0x2
80001764:	0e078793          	addi	a5,a5,224
80001768:	002787b3          	add	a5,a5,sp
8000176c:	01851713          	slli	a4,a0,0x18
80001770:	41875713          	srai	a4,a4,0x18
80001774:	f2e7a023          	sw	a4,-224(a5)
80001778:	bb1ff06f          	j	80001328 <rv32i+0x114>
8000177c:	00090513          	mv	a0,s2
80001780:	a15ff0ef          	jal	80001194 <ram_read>
80001784:	00241793          	slli	a5,s0,0x2
80001788:	0e078793          	addi	a5,a5,224
8000178c:	002787b3          	add	a5,a5,sp
80001790:	01051713          	slli	a4,a0,0x10
80001794:	41075713          	srai	a4,a4,0x10
80001798:	f2e7a023          	sw	a4,-224(a5)
8000179c:	b8dff06f          	j	80001328 <rv32i+0x114>
800017a0:	00090513          	mv	a0,s2
800017a4:	9f1ff0ef          	jal	80001194 <ram_read>
800017a8:	00241793          	slli	a5,s0,0x2
800017ac:	0e078793          	addi	a5,a5,224
800017b0:	002787b3          	add	a5,a5,sp
800017b4:	f2a7a023          	sw	a0,-224(a5)
800017b8:	b71ff06f          	j	80001328 <rv32i+0x114>
800017bc:	00090513          	mv	a0,s2
800017c0:	9d5ff0ef          	jal	80001194 <ram_read>
800017c4:	00241793          	slli	a5,s0,0x2
800017c8:	0e078793          	addi	a5,a5,224
800017cc:	002787b3          	add	a5,a5,sp
800017d0:	0ff57713          	zext.b	a4,a0
800017d4:	f2e7a023          	sw	a4,-224(a5)
800017d8:	b51ff06f          	j	80001328 <rv32i+0x114>
800017dc:	00090513          	mv	a0,s2
800017e0:	9b5ff0ef          	jal	80001194 <ram_read>
800017e4:	00241793          	slli	a5,s0,0x2
800017e8:	0e078793          	addi	a5,a5,224
800017ec:	002787b3          	add	a5,a5,sp
800017f0:	01051713          	slli	a4,a0,0x10
800017f4:	01075713          	srli	a4,a4,0x10
800017f8:	f2e7a023          	sw	a4,-224(a5)
800017fc:	b2dff06f          	j	80001328 <rv32i+0x114>
80001800:	00088593          	mv	a1,a7
80001804:	80008537          	lui	a0,0x80008
80001808:	c7450513          	addi	a0,a0,-908 # 80007c74 <_PROCEDURE_LINKAGE_TABLE_+0xcf4>
8000180c:	404020ef          	jal	80003c10 <printf>
80001810:	000b0513          	mv	a0,s6
80001814:	895fe0ef          	jal	800000a8 <exit>
80001818:	b11ff06f          	j	80001328 <rv32i+0x114>
8000181c:	00569693          	slli	a3,a3,0x5
80001820:	01f37793          	andi	a5,t1,31
80001824:	00f6e7b3          	or	a5,a3,a5
80001828:	0157f733          	and	a4,a5,s5
8000182c:	00070663          	beqz	a4,80001838 <rv32i+0x624>
80001830:	fffff737          	lui	a4,0xfffff
80001834:	00e7e7b3          	or	a5,a5,a4
80001838:	00261693          	slli	a3,a2,0x2
8000183c:	002686b3          	add	a3,a3,sp
80001840:	0006a683          	lw	a3,0(a3)
80001844:	00d785b3          	add	a1,a5,a3
80001848:	00281813          	slli	a6,a6,0x2
8000184c:	00280833          	add	a6,a6,sp
80001850:	00082703          	lw	a4,0(a6)
80001854:	07688263          	beq	a7,s6,800018b8 <rv32i+0x6a4>
80001858:	00200793          	li	a5,2
8000185c:	0cf88063          	beq	a7,a5,8000191c <rv32i+0x708>
80001860:	12089463          	bnez	a7,80001988 <rv32i+0x774>
80001864:	003007b7          	lui	a5,0x300
80001868:	02f58663          	beq	a1,a5,80001894 <rv32i+0x680>
8000186c:	0205de63          	bgez	a1,800018a8 <rv32i+0x694>
80001870:	00158693          	addi	a3,a1,1
80001874:	8000f7b7          	lui	a5,0x8000f
80001878:	23078793          	addi	a5,a5,560 # 8000f230 <_erodata+0x620>
8000187c:	02d7e663          	bltu	a5,a3,800018a8 <rv32i+0x694>
80001880:	00bb85b3          	add	a1,s7,a1
80001884:	800007b7          	lui	a5,0x80000
80001888:	00b787b3          	add	a5,a5,a1
8000188c:	00e78023          	sb	a4,0(a5) # 80000000 <_start>
80001890:	a99ff06f          	j	80001328 <rv32i+0x114>
80001894:	0ff77593          	zext.b	a1,a4
80001898:	80008537          	lui	a0,0x80008
8000189c:	c9050513          	addi	a0,a0,-880 # 80007c90 <_PROCEDURE_LINKAGE_TABLE_+0xd10>
800018a0:	370020ef          	jal	80003c10 <printf>
800018a4:	a85ff06f          	j	80001328 <rv32i+0x114>
800018a8:	80008537          	lui	a0,0x80008
800018ac:	c9450513          	addi	a0,a0,-876 # 80007c94 <_PROCEDURE_LINKAGE_TABLE_+0xd14>
800018b0:	360020ef          	jal	80003c10 <printf>
800018b4:	a75ff06f          	j	80001328 <rv32i+0x114>
800018b8:	003007b7          	lui	a5,0x300
800018bc:	02f58e63          	beq	a1,a5,800018f8 <rv32i+0x6e4>
800018c0:	0405d663          	bgez	a1,8000190c <rv32i+0x6f8>
800018c4:	00258693          	addi	a3,a1,2
800018c8:	8000f7b7          	lui	a5,0x8000f
800018cc:	23078793          	addi	a5,a5,560 # 8000f230 <_erodata+0x620>
800018d0:	02d7ee63          	bltu	a5,a3,8000190c <rv32i+0x6f8>
800018d4:	01071713          	slli	a4,a4,0x10
800018d8:	01075713          	srli	a4,a4,0x10
800018dc:	00bb85b3          	add	a1,s7,a1
800018e0:	800007b7          	lui	a5,0x80000
800018e4:	00b787b3          	add	a5,a5,a1
800018e8:	00e78023          	sb	a4,0(a5) # 80000000 <_start>
800018ec:	00875713          	srli	a4,a4,0x8
800018f0:	00e780a3          	sb	a4,1(a5)
800018f4:	a35ff06f          	j	80001328 <rv32i+0x114>
800018f8:	0ff77593          	zext.b	a1,a4
800018fc:	80008537          	lui	a0,0x80008
80001900:	c9050513          	addi	a0,a0,-880 # 80007c90 <_PROCEDURE_LINKAGE_TABLE_+0xd10>
80001904:	30c020ef          	jal	80003c10 <printf>
80001908:	a21ff06f          	j	80001328 <rv32i+0x114>
8000190c:	80008537          	lui	a0,0x80008
80001910:	c9450513          	addi	a0,a0,-876 # 80007c94 <_PROCEDURE_LINKAGE_TABLE_+0xd14>
80001914:	2fc020ef          	jal	80003c10 <printf>
80001918:	a11ff06f          	j	80001328 <rv32i+0x114>
8000191c:	003007b7          	lui	a5,0x300
80001920:	04f58263          	beq	a1,a5,80001964 <rv32i+0x750>
80001924:	0405da63          	bgez	a1,80001978 <rv32i+0x764>
80001928:	00458693          	addi	a3,a1,4
8000192c:	8000f7b7          	lui	a5,0x8000f
80001930:	23078793          	addi	a5,a5,560 # 8000f230 <_erodata+0x620>
80001934:	04d7e263          	bltu	a5,a3,80001978 <rv32i+0x764>
80001938:	00bb87b3          	add	a5,s7,a1
8000193c:	800006b7          	lui	a3,0x80000
80001940:	00f687b3          	add	a5,a3,a5
80001944:	00e78023          	sb	a4,0(a5)
80001948:	00875693          	srli	a3,a4,0x8
8000194c:	00d780a3          	sb	a3,1(a5)
80001950:	01075693          	srli	a3,a4,0x10
80001954:	00d78123          	sb	a3,2(a5)
80001958:	01875713          	srli	a4,a4,0x18
8000195c:	00e781a3          	sb	a4,3(a5)
80001960:	9c9ff06f          	j	80001328 <rv32i+0x114>
80001964:	0ff77593          	zext.b	a1,a4
80001968:	80008537          	lui	a0,0x80008
8000196c:	c9050513          	addi	a0,a0,-880 # 80007c90 <_PROCEDURE_LINKAGE_TABLE_+0xd10>
80001970:	2a0020ef          	jal	80003c10 <printf>
80001974:	9b5ff06f          	j	80001328 <rv32i+0x114>
80001978:	80008537          	lui	a0,0x80008
8000197c:	c9450513          	addi	a0,a0,-876 # 80007c94 <_PROCEDURE_LINKAGE_TABLE_+0xd14>
80001980:	290020ef          	jal	80003c10 <printf>
80001984:	9a5ff06f          	j	80001328 <rv32i+0x114>
80001988:	00088593          	mv	a1,a7
8000198c:	80008537          	lui	a0,0x80008
80001990:	cb850513          	addi	a0,a0,-840 # 80007cb8 <_PROCEDURE_LINKAGE_TABLE_+0xd38>
80001994:	27c020ef          	jal	80003c10 <printf>
80001998:	000b0513          	mv	a0,s6
8000199c:	f0cfe0ef          	jal	800000a8 <exit>
800019a0:	989ff06f          	j	80001328 <rv32i+0x114>
800019a4:	00755593          	srli	a1,a0,0x7
800019a8:	01e5f593          	andi	a1,a1,30
800019ac:	00569693          	slli	a3,a3,0x5
800019b0:	7e06f693          	andi	a3,a3,2016
800019b4:	00d5e5b3          	or	a1,a1,a3
800019b8:	01f55513          	srli	a0,a0,0x1f
800019bc:	00c51513          	slli	a0,a0,0xc
800019c0:	00a5e5b3          	or	a1,a1,a0
800019c4:	00b31793          	slli	a5,t1,0xb
800019c8:	0157f7b3          	and	a5,a5,s5
800019cc:	00f5e5b3          	or	a1,a1,a5
800019d0:	01359793          	slli	a5,a1,0x13
800019d4:	0007d663          	bgez	a5,800019e0 <rv32i+0x7cc>
800019d8:	ffffe7b7          	lui	a5,0xffffe
800019dc:	00f5e5b3          	or	a1,a1,a5
800019e0:	00289793          	slli	a5,a7,0x2
800019e4:	80008737          	lui	a4,0x80008
800019e8:	ee870713          	addi	a4,a4,-280 # 80007ee8 <_PROCEDURE_LINKAGE_TABLE_+0xf68>
800019ec:	00e787b3          	add	a5,a5,a4
800019f0:	0007a783          	lw	a5,0(a5) # ffffe000 <qscmp+0x7ffcbfe8>
800019f4:	00078067          	jr	a5
800019f8:	00261793          	slli	a5,a2,0x2
800019fc:	002787b3          	add	a5,a5,sp
80001a00:	00281713          	slli	a4,a6,0x2
80001a04:	00270733          	add	a4,a4,sp
80001a08:	0007a783          	lw	a5,0(a5)
80001a0c:	00072703          	lw	a4,0(a4)
80001a10:	40e787b3          	sub	a5,a5,a4
80001a14:	0017b793          	seqz	a5,a5
80001a18:	900788e3          	beqz	a5,80001328 <rv32i+0x114>
80001a1c:	06c0006f          	j	80001a88 <rv32i+0x874>
80001a20:	00261793          	slli	a5,a2,0x2
80001a24:	002787b3          	add	a5,a5,sp
80001a28:	00281713          	slli	a4,a6,0x2
80001a2c:	00270733          	add	a4,a4,sp
80001a30:	0007a783          	lw	a5,0(a5)
80001a34:	00072703          	lw	a4,0(a4)
80001a38:	40e787b3          	sub	a5,a5,a4
80001a3c:	00f037b3          	snez	a5,a5
80001a40:	fd9ff06f          	j	80001a18 <rv32i+0x804>
80001a44:	00261793          	slli	a5,a2,0x2
80001a48:	002787b3          	add	a5,a5,sp
80001a4c:	00281713          	slli	a4,a6,0x2
80001a50:	00270733          	add	a4,a4,sp
80001a54:	0007a783          	lw	a5,0(a5)
80001a58:	00072703          	lw	a4,0(a4)
80001a5c:	00e7a7b3          	slt	a5,a5,a4
80001a60:	fb9ff06f          	j	80001a18 <rv32i+0x804>
80001a64:	00261793          	slli	a5,a2,0x2
80001a68:	002787b3          	add	a5,a5,sp
80001a6c:	00281713          	slli	a4,a6,0x2
80001a70:	00270733          	add	a4,a4,sp
80001a74:	0007a783          	lw	a5,0(a5)
80001a78:	00072703          	lw	a4,0(a4)
80001a7c:	00e7a7b3          	slt	a5,a5,a4
80001a80:	0017c793          	xori	a5,a5,1
80001a84:	8a0782e3          	beqz	a5,80001328 <rv32i+0x114>
80001a88:	009585b3          	add	a1,a1,s1
80001a8c:	08b12023          	sw	a1,128(sp)
80001a90:	899ff06f          	j	80001328 <rv32i+0x114>
80001a94:	00261793          	slli	a5,a2,0x2
80001a98:	002787b3          	add	a5,a5,sp
80001a9c:	00281713          	slli	a4,a6,0x2
80001aa0:	00270733          	add	a4,a4,sp
80001aa4:	0007a783          	lw	a5,0(a5)
80001aa8:	00072703          	lw	a4,0(a4)
80001aac:	00e7b7b3          	sltu	a5,a5,a4
80001ab0:	fd5ff06f          	j	80001a84 <rv32i+0x870>
80001ab4:	00261793          	slli	a5,a2,0x2
80001ab8:	002787b3          	add	a5,a5,sp
80001abc:	00281713          	slli	a4,a6,0x2
80001ac0:	00270733          	add	a4,a4,sp
80001ac4:	0007a783          	lw	a5,0(a5)
80001ac8:	00072703          	lw	a4,0(a4)
80001acc:	00e7b7b3          	sltu	a5,a5,a4
80001ad0:	0017c793          	xori	a5,a5,1
80001ad4:	fb1ff06f          	j	80001a84 <rv32i+0x870>
80001ad8:	00088593          	mv	a1,a7
80001adc:	80008537          	lui	a0,0x80008
80001ae0:	cd850513          	addi	a0,a0,-808 # 80007cd8 <_PROCEDURE_LINKAGE_TABLE_+0xd58>
80001ae4:	12c020ef          	jal	80003c10 <printf>
80001ae8:	000b0513          	mv	a0,s6
80001aec:	dbcfe0ef          	jal	800000a8 <exit>
80001af0:	839ff06f          	j	80001328 <rv32i+0x114>
80001af4:	00241413          	slli	s0,s0,0x2
80001af8:	0e040793          	addi	a5,s0,224
80001afc:	00278433          	add	s0,a5,sp
80001b00:	fffff7b7          	lui	a5,0xfffff
80001b04:	00f577b3          	and	a5,a0,a5
80001b08:	f2f42023          	sw	a5,-224(s0)
80001b0c:	81dff06f          	j	80001328 <rv32i+0x114>
80001b10:	00241413          	slli	s0,s0,0x2
80001b14:	0e040793          	addi	a5,s0,224
80001b18:	00278433          	add	s0,a5,sp
80001b1c:	fffff7b7          	lui	a5,0xfffff
80001b20:	00f577b3          	and	a5,a0,a5
80001b24:	009787b3          	add	a5,a5,s1
80001b28:	f2f42023          	sw	a5,-224(s0)
80001b2c:	ffcff06f          	j	80001328 <rv32i+0x114>
80001b30:	01f55693          	srli	a3,a0,0x1f
80001b34:	01469693          	slli	a3,a3,0x14
80001b38:	01857633          	and	a2,a0,s8
80001b3c:	00c6e6b3          	or	a3,a3,a2
80001b40:	01455513          	srli	a0,a0,0x14
80001b44:	7fe57513          	andi	a0,a0,2046
80001b48:	00a6e6b3          	or	a3,a3,a0
80001b4c:	00b79793          	slli	a5,a5,0xb
80001b50:	0157f7b3          	and	a5,a5,s5
80001b54:	00f6e7b3          	or	a5,a3,a5
80001b58:	0146d693          	srli	a3,a3,0x14
80001b5c:	00068663          	beqz	a3,80001b68 <rv32i+0x954>
80001b60:	ffe006b7          	lui	a3,0xffe00
80001b64:	00d7e7b3          	or	a5,a5,a3
80001b68:	00241413          	slli	s0,s0,0x2
80001b6c:	0e040693          	addi	a3,s0,224
80001b70:	00268433          	add	s0,a3,sp
80001b74:	f2e42023          	sw	a4,-224(s0)
80001b78:	009787b3          	add	a5,a5,s1
80001b7c:	08f12023          	sw	a5,128(sp)
80001b80:	fa8ff06f          	j	80001328 <rv32i+0x114>
80001b84:	02814583          	lbu	a1,40(sp)
80001b88:	80008537          	lui	a0,0x80008
80001b8c:	c9050513          	addi	a0,a0,-880 # 80007c90 <_PROCEDURE_LINKAGE_TABLE_+0xd10>
80001b90:	080020ef          	jal	80003c10 <printf>
80001b94:	f94ff06f          	j	80001328 <rv32i+0x114>
80001b98:	02012423          	sw	zero,40(sp)
80001b9c:	f8cff06f          	j	80001328 <rv32i+0x114>
80001ba0:	00050613          	mv	a2,a0
80001ba4:	d1cc8513          	addi	a0,s9,-740 # 80007d1c <_PROCEDURE_LINKAGE_TABLE_+0xd9c>
80001ba8:	068020ef          	jal	80003c10 <printf>
80001bac:	000b0513          	mv	a0,s6
80001bb0:	cf8fe0ef          	jal	800000a8 <exit>
80001bb4:	f74ff06f          	j	80001328 <rv32i+0x114>
80001bb8:	80008537          	lui	a0,0x80008
80001bbc:	c1050513          	addi	a0,a0,-1008 # 80007c10 <_PROCEDURE_LINKAGE_TABLE_+0xc90>
80001bc0:	050020ef          	jal	80003c10 <printf>
80001bc4:	00100513          	li	a0,1
80001bc8:	10c12083          	lw	ra,268(sp)
80001bcc:	11010113          	addi	sp,sp,272
80001bd0:	00008067          	ret

80001bd4 <_prtl10>:
80001bd4:	fd010113          	addi	sp,sp,-48
80001bd8:	02112623          	sw	ra,44(sp)
80001bdc:	02812423          	sw	s0,40(sp)
80001be0:	02912223          	sw	s1,36(sp)
80001be4:	03212023          	sw	s2,32(sp)
80001be8:	01312e23          	sw	s3,28(sp)
80001bec:	01412c23          	sw	s4,24(sp)
80001bf0:	01512a23          	sw	s5,20(sp)
80001bf4:	00050413          	mv	s0,a0
80001bf8:	00058913          	mv	s2,a1
80001bfc:	0c054e63          	bltz	a0,80001cd8 <_prtl10+0x104>
80001c00:	00a00593          	li	a1,10
80001c04:	2b8050ef          	jal	80006ebc <__modsi3>
80001c08:	03050793          	addi	a5,a0,48
80001c0c:	0ff7f793          	zext.b	a5,a5
80001c10:	00a00593          	li	a1,10
80001c14:	00010023          	sb	zero,0(sp)
80001c18:	00f100a3          	sb	a5,1(sp)
80001c1c:	00040513          	mv	a0,s0
80001c20:	218050ef          	jal	80006e38 <__divsi3>
80001c24:	00050413          	mv	s0,a0
80001c28:	00010a93          	mv	s5,sp
80001c2c:	00910a13          	addi	s4,sp,9
80001c30:	00010493          	mv	s1,sp
80001c34:	00a00993          	li	s3,10
80001c38:	00098593          	mv	a1,s3
80001c3c:	00040513          	mv	a0,s0
80001c40:	27c050ef          	jal	80006ebc <__modsi3>
80001c44:	03050513          	addi	a0,a0,48
80001c48:	00a48123          	sb	a0,2(s1)
80001c4c:	00098593          	mv	a1,s3
80001c50:	00040513          	mv	a0,s0
80001c54:	1e4050ef          	jal	80006e38 <__divsi3>
80001c58:	00050413          	mv	s0,a0
80001c5c:	00148493          	addi	s1,s1,1
80001c60:	fd449ce3          	bne	s1,s4,80001c38 <_prtl10+0x64>
80001c64:	00a14703          	lbu	a4,10(sp)
80001c68:	03000793          	li	a5,48
80001c6c:	08f71463          	bne	a4,a5,80001cf4 <_prtl10+0x120>
80001c70:	000a8713          	mv	a4,s5
80001c74:	00078613          	mv	a2,a5
80001c78:	00070793          	mv	a5,a4
80001c7c:	fff70713          	addi	a4,a4,-1
80001c80:	00a74683          	lbu	a3,10(a4)
80001c84:	fec68ae3          	beq	a3,a2,80001c78 <_prtl10+0xa4>
80001c88:	415787b3          	sub	a5,a5,s5
80001c8c:	00978793          	addi	a5,a5,9 # fffff009 <qscmp+0x7ffccff1>
80001c90:	00079463          	bnez	a5,80001c98 <_prtl10+0xc4>
80001c94:	00100793          	li	a5,1
80001c98:	00010693          	mv	a3,sp
80001c9c:	fff78793          	addi	a5,a5,-1
80001ca0:	00190913          	addi	s2,s2,1
80001ca4:	00f68733          	add	a4,a3,a5
80001ca8:	00174703          	lbu	a4,1(a4)
80001cac:	fee90fa3          	sb	a4,-1(s2)
80001cb0:	fe07d6e3          	bgez	a5,80001c9c <_prtl10+0xc8>
80001cb4:	02c12083          	lw	ra,44(sp)
80001cb8:	02812403          	lw	s0,40(sp)
80001cbc:	02412483          	lw	s1,36(sp)
80001cc0:	02012903          	lw	s2,32(sp)
80001cc4:	01c12983          	lw	s3,28(sp)
80001cc8:	01812a03          	lw	s4,24(sp)
80001ccc:	01412a83          	lw	s5,20(sp)
80001cd0:	03010113          	addi	sp,sp,48
80001cd4:	00008067          	ret
80001cd8:	00a00593          	li	a1,10
80001cdc:	1e0050ef          	jal	80006ebc <__modsi3>
80001ce0:	03000793          	li	a5,48
80001ce4:	40a787b3          	sub	a5,a5,a0
80001ce8:	0ff7f793          	zext.b	a5,a5
80001cec:	ff600593          	li	a1,-10
80001cf0:	f25ff06f          	j	80001c14 <_prtl10+0x40>
80001cf4:	00a00793          	li	a5,10
80001cf8:	fa1ff06f          	j	80001c98 <_prtl10+0xc4>

80001cfc <_prtl8>:
80001cfc:	ff010113          	addi	sp,sp,-16
80001d00:	00010223          	sb	zero,4(sp)
80001d04:	00410813          	addi	a6,sp,4
80001d08:	00510793          	addi	a5,sp,5
80001d0c:	01010693          	addi	a3,sp,16
80001d10:	00757713          	andi	a4,a0,7
80001d14:	03070713          	addi	a4,a4,48
80001d18:	00e78023          	sb	a4,0(a5)
80001d1c:	40355513          	srai	a0,a0,0x3
80001d20:	00178793          	addi	a5,a5,1
80001d24:	fed796e3          	bne	a5,a3,80001d10 <_prtl8+0x14>
80001d28:	00f14783          	lbu	a5,15(sp)
80001d2c:	0337f793          	andi	a5,a5,51
80001d30:	00f107a3          	sb	a5,15(sp)
80001d34:	03000713          	li	a4,48
80001d38:	04e79863          	bne	a5,a4,80001d88 <_prtl8+0x8c>
80001d3c:	00080713          	mv	a4,a6
80001d40:	03000613          	li	a2,48
80001d44:	00070793          	mv	a5,a4
80001d48:	fff70713          	addi	a4,a4,-1
80001d4c:	00b74683          	lbu	a3,11(a4)
80001d50:	fec68ae3          	beq	a3,a2,80001d44 <_prtl8+0x48>
80001d54:	410787b3          	sub	a5,a5,a6
80001d58:	00a78793          	addi	a5,a5,10
80001d5c:	00079463          	bnez	a5,80001d64 <_prtl8+0x68>
80001d60:	00100793          	li	a5,1
80001d64:	00410693          	addi	a3,sp,4
80001d68:	fff78793          	addi	a5,a5,-1
80001d6c:	00158593          	addi	a1,a1,1
80001d70:	00f68733          	add	a4,a3,a5
80001d74:	00174703          	lbu	a4,1(a4)
80001d78:	fee58fa3          	sb	a4,-1(a1)
80001d7c:	fe07d6e3          	bgez	a5,80001d68 <_prtl8+0x6c>
80001d80:	01010113          	addi	sp,sp,16
80001d84:	00008067          	ret
80001d88:	00b00793          	li	a5,11
80001d8c:	fd9ff06f          	j	80001d64 <_prtl8+0x68>

80001d90 <_prtl16>:
80001d90:	ff010113          	addi	sp,sp,-16
80001d94:	00010223          	sb	zero,4(sp)
80001d98:	00410693          	addi	a3,sp,4
80001d9c:	00c10893          	addi	a7,sp,12
80001da0:	00068793          	mv	a5,a3
80001da4:	80008837          	lui	a6,0x80008
80001da8:	d4480713          	addi	a4,a6,-700 # 80007d44 <_PROCEDURE_LINKAGE_TABLE_+0xdc4>
80001dac:	00f57613          	andi	a2,a0,15
80001db0:	00c70733          	add	a4,a4,a2
80001db4:	00074703          	lbu	a4,0(a4)
80001db8:	00e780a3          	sb	a4,1(a5)
80001dbc:	40455513          	srai	a0,a0,0x4
80001dc0:	00178793          	addi	a5,a5,1
80001dc4:	ff1792e3          	bne	a5,a7,80001da8 <_prtl16+0x18>
80001dc8:	00c14703          	lbu	a4,12(sp)
80001dcc:	03000793          	li	a5,48
80001dd0:	04f71463          	bne	a4,a5,80001e18 <_prtl16+0x88>
80001dd4:	00800793          	li	a5,8
80001dd8:	03000613          	li	a2,48
80001ddc:	fff78793          	addi	a5,a5,-1
80001de0:	fff68693          	addi	a3,a3,-1 # ffdfffff <qscmp+0x7fdcdfe7>
80001de4:	0086c703          	lbu	a4,8(a3)
80001de8:	fec70ae3          	beq	a4,a2,80001ddc <_prtl16+0x4c>
80001dec:	00079463          	bnez	a5,80001df4 <_prtl16+0x64>
80001df0:	00100793          	li	a5,1
80001df4:	00410693          	addi	a3,sp,4
80001df8:	fff78793          	addi	a5,a5,-1
80001dfc:	00158593          	addi	a1,a1,1
80001e00:	00f68733          	add	a4,a3,a5
80001e04:	00174703          	lbu	a4,1(a4)
80001e08:	fee58fa3          	sb	a4,-1(a1)
80001e0c:	fe07d6e3          	bgez	a5,80001df8 <_prtl16+0x68>
80001e10:	01010113          	addi	sp,sp,16
80001e14:	00008067          	ret
80001e18:	00800793          	li	a5,8
80001e1c:	fd9ff06f          	j	80001df4 <_prtl16+0x64>

80001e20 <_prtX16>:
80001e20:	ff010113          	addi	sp,sp,-16
80001e24:	00010223          	sb	zero,4(sp)
80001e28:	00410693          	addi	a3,sp,4
80001e2c:	00c10893          	addi	a7,sp,12
80001e30:	00068793          	mv	a5,a3
80001e34:	80008837          	lui	a6,0x80008
80001e38:	d5880713          	addi	a4,a6,-680 # 80007d58 <_PROCEDURE_LINKAGE_TABLE_+0xdd8>
80001e3c:	00f57613          	andi	a2,a0,15
80001e40:	00c70733          	add	a4,a4,a2
80001e44:	00074703          	lbu	a4,0(a4)
80001e48:	00e780a3          	sb	a4,1(a5)
80001e4c:	40455513          	srai	a0,a0,0x4
80001e50:	00178793          	addi	a5,a5,1
80001e54:	ff1792e3          	bne	a5,a7,80001e38 <_prtX16+0x18>
80001e58:	00c14703          	lbu	a4,12(sp)
80001e5c:	03000793          	li	a5,48
80001e60:	04f71463          	bne	a4,a5,80001ea8 <_prtX16+0x88>
80001e64:	00800793          	li	a5,8
80001e68:	03000613          	li	a2,48
80001e6c:	fff78793          	addi	a5,a5,-1
80001e70:	fff68693          	addi	a3,a3,-1
80001e74:	0086c703          	lbu	a4,8(a3)
80001e78:	fec70ae3          	beq	a4,a2,80001e6c <_prtX16+0x4c>
80001e7c:	00079463          	bnez	a5,80001e84 <_prtX16+0x64>
80001e80:	00100793          	li	a5,1
80001e84:	00410693          	addi	a3,sp,4
80001e88:	fff78793          	addi	a5,a5,-1
80001e8c:	00158593          	addi	a1,a1,1
80001e90:	00f68733          	add	a4,a3,a5
80001e94:	00174703          	lbu	a4,1(a4)
80001e98:	fee58fa3          	sb	a4,-1(a1)
80001e9c:	fe07d6e3          	bgez	a5,80001e88 <_prtX16+0x68>
80001ea0:	01010113          	addi	sp,sp,16
80001ea4:	00008067          	ret
80001ea8:	00800793          	li	a5,8
80001eac:	fd9ff06f          	j	80001e84 <_prtX16+0x64>

80001eb0 <_prtl2>:
80001eb0:	fd010113          	addi	sp,sp,-48
80001eb4:	00010623          	sb	zero,12(sp)
80001eb8:	00c10813          	addi	a6,sp,12
80001ebc:	00d10793          	addi	a5,sp,13
80001ec0:	02d10693          	addi	a3,sp,45
80001ec4:	00157713          	andi	a4,a0,1
80001ec8:	03070713          	addi	a4,a4,48
80001ecc:	00e78023          	sb	a4,0(a5)
80001ed0:	40155513          	srai	a0,a0,0x1
80001ed4:	00178793          	addi	a5,a5,1
80001ed8:	fed796e3          	bne	a5,a3,80001ec4 <_prtl2+0x14>
80001edc:	02c14703          	lbu	a4,44(sp)
80001ee0:	03000793          	li	a5,48
80001ee4:	04f71863          	bne	a4,a5,80001f34 <_prtl2+0x84>
80001ee8:	00080713          	mv	a4,a6
80001eec:	00078613          	mv	a2,a5
80001ef0:	00070793          	mv	a5,a4
80001ef4:	fff70713          	addi	a4,a4,-1
80001ef8:	02074683          	lbu	a3,32(a4)
80001efc:	fec68ae3          	beq	a3,a2,80001ef0 <_prtl2+0x40>
80001f00:	410787b3          	sub	a5,a5,a6
80001f04:	01f78793          	addi	a5,a5,31
80001f08:	00079463          	bnez	a5,80001f10 <_prtl2+0x60>
80001f0c:	00100793          	li	a5,1
80001f10:	00c10693          	addi	a3,sp,12
80001f14:	fff78793          	addi	a5,a5,-1
80001f18:	00158593          	addi	a1,a1,1
80001f1c:	00f68733          	add	a4,a3,a5
80001f20:	00174703          	lbu	a4,1(a4)
80001f24:	fee58fa3          	sb	a4,-1(a1)
80001f28:	fe07d6e3          	bgez	a5,80001f14 <_prtl2+0x64>
80001f2c:	03010113          	addi	sp,sp,48
80001f30:	00008067          	ret
80001f34:	02000793          	li	a5,32
80001f38:	fd9ff06f          	j	80001f10 <_prtl2+0x60>

80001f3c <_fdoprnt>:
80001f3c:	f7010113          	addi	sp,sp,-144
80001f40:	08112623          	sw	ra,140(sp)
80001f44:	08812423          	sw	s0,136(sp)
80001f48:	08912223          	sw	s1,132(sp)
80001f4c:	09212023          	sw	s2,128(sp)
80001f50:	07312e23          	sw	s3,124(sp)
80001f54:	07412c23          	sw	s4,120(sp)
80001f58:	07512a23          	sw	s5,116(sp)
80001f5c:	07812423          	sw	s8,104(sp)
80001f60:	00050c13          	mv	s8,a0
80001f64:	00058a13          	mv	s4,a1
80001f68:	00060493          	mv	s1,a2
80001f6c:	00068913          	mv	s2,a3
80001f70:	02500993          	li	s3,37
80001f74:	001c0413          	addi	s0,s8,1 # ff001 <_start-0x7ff00fff>
80001f78:	000c4583          	lbu	a1,0(s8)
80001f7c:	03359663          	bne	a1,s3,80001fa8 <_fdoprnt+0x6c>
80001f80:	00040793          	mv	a5,s0
80001f84:	000c0413          	mv	s0,s8
80001f88:	0380006f          	j	80001fc0 <_fdoprnt+0x84>
80001f8c:	07012b03          	lw	s6,112(sp)
80001f90:	06c12b83          	lw	s7,108(sp)
80001f94:	06412c83          	lw	s9,100(sp)
80001f98:	06012d03          	lw	s10,96(sp)
80001f9c:	05c12d83          	lw	s11,92(sp)
80001fa0:	fd5ff06f          	j	80001f74 <_fdoprnt+0x38>
80001fa4:	00078413          	mv	s0,a5
80001fa8:	18058263          	beqz	a1,8000212c <_fdoprnt+0x1f0>
80001fac:	00090513          	mv	a0,s2
80001fb0:	000480e7          	jalr	s1
80001fb4:	00140793          	addi	a5,s0,1
80001fb8:	00044583          	lbu	a1,0(s0)
80001fbc:	ff3594e3          	bne	a1,s3,80001fa4 <_fdoprnt+0x68>
80001fc0:	0007ca83          	lbu	s5,0(a5)
80001fc4:	093a8663          	beq	s5,s3,80002050 <_fdoprnt+0x114>
80001fc8:	07612823          	sw	s6,112(sp)
80001fcc:	07912223          	sw	s9,100(sp)
80001fd0:	02d00713          	li	a4,45
80001fd4:	08ea8863          	beq	s5,a4,80002064 <_fdoprnt+0x128>
80001fd8:	0007cb03          	lbu	s6,0(a5)
80001fdc:	03000713          	li	a4,48
80001fe0:	08eb0663          	beq	s6,a4,8000206c <_fdoprnt+0x130>
80001fe4:	02000b13          	li	s6,32
80001fe8:	0007c683          	lbu	a3,0(a5)
80001fec:	02a00713          	li	a4,42
80001ff0:	08e69263          	bne	a3,a4,80002074 <_fdoprnt+0x138>
80001ff4:	000a2c83          	lw	s9,0(s4)
80001ff8:	00178793          	addi	a5,a5,1
80001ffc:	004a0a13          	addi	s4,s4,4
80002000:	0007c683          	lbu	a3,0(a5)
80002004:	02e00713          	li	a4,46
80002008:	00000413          	li	s0,0
8000200c:	0ae68663          	beq	a3,a4,800020b8 <_fdoprnt+0x17c>
80002010:	00178c13          	addi	s8,a5,1
80002014:	0007c583          	lbu	a1,0(a5)
80002018:	10058063          	beqz	a1,80002118 <_fdoprnt+0x1dc>
8000201c:	07712623          	sw	s7,108(sp)
80002020:	07a12023          	sw	s10,96(sp)
80002024:	05b12e23          	sw	s11,92(sp)
80002028:	fa858793          	addi	a5,a1,-88
8000202c:	0ff7f693          	zext.b	a3,a5
80002030:	02000713          	li	a4,32
80002034:	2ed76c63          	bltu	a4,a3,8000232c <_fdoprnt+0x3f0>
80002038:	00269793          	slli	a5,a3,0x2
8000203c:	8000f737          	lui	a4,0x8000f
80002040:	90c70713          	addi	a4,a4,-1780 # 8000e90c <rv32+0x6a04>
80002044:	00e787b3          	add	a5,a5,a4
80002048:	0007a783          	lw	a5,0(a5)
8000204c:	00078067          	jr	a5
80002050:	00240c13          	addi	s8,s0,2
80002054:	02500593          	li	a1,37
80002058:	00090513          	mv	a0,s2
8000205c:	000480e7          	jalr	s1
80002060:	f15ff06f          	j	80001f74 <_fdoprnt+0x38>
80002064:	00240793          	addi	a5,s0,2
80002068:	f71ff06f          	j	80001fd8 <_fdoprnt+0x9c>
8000206c:	00178793          	addi	a5,a5,1
80002070:	f79ff06f          	j	80001fe8 <_fdoprnt+0xac>
80002074:	fd068713          	addi	a4,a3,-48
80002078:	0ff77713          	zext.b	a4,a4
8000207c:	00900593          	li	a1,9
80002080:	00000c93          	li	s9,0
80002084:	00058613          	mv	a2,a1
80002088:	f6e5ece3          	bltu	a1,a4,80002000 <_fdoprnt+0xc4>
8000208c:	00178793          	addi	a5,a5,1
80002090:	002c9713          	slli	a4,s9,0x2
80002094:	01970733          	add	a4,a4,s9
80002098:	00171713          	slli	a4,a4,0x1
8000209c:	00d70733          	add	a4,a4,a3
800020a0:	fd070c93          	addi	s9,a4,-48
800020a4:	0007c683          	lbu	a3,0(a5)
800020a8:	fd068713          	addi	a4,a3,-48
800020ac:	0ff77713          	zext.b	a4,a4
800020b0:	fce67ee3          	bgeu	a2,a4,8000208c <_fdoprnt+0x150>
800020b4:	f4dff06f          	j	80002000 <_fdoprnt+0xc4>
800020b8:	0017c683          	lbu	a3,1(a5)
800020bc:	02a00713          	li	a4,42
800020c0:	00e69a63          	bne	a3,a4,800020d4 <_fdoprnt+0x198>
800020c4:	000a2403          	lw	s0,0(s4)
800020c8:	00278793          	addi	a5,a5,2
800020cc:	004a0a13          	addi	s4,s4,4
800020d0:	f41ff06f          	j	80002010 <_fdoprnt+0xd4>
800020d4:	00178793          	addi	a5,a5,1
800020d8:	fd068713          	addi	a4,a3,-48
800020dc:	0ff77713          	zext.b	a4,a4
800020e0:	00900593          	li	a1,9
800020e4:	00058613          	mv	a2,a1
800020e8:	f2e5e4e3          	bltu	a1,a4,80002010 <_fdoprnt+0xd4>
800020ec:	00178793          	addi	a5,a5,1
800020f0:	00241713          	slli	a4,s0,0x2
800020f4:	00870733          	add	a4,a4,s0
800020f8:	00171713          	slli	a4,a4,0x1
800020fc:	00d70733          	add	a4,a4,a3
80002100:	fd070413          	addi	s0,a4,-48
80002104:	0007c683          	lbu	a3,0(a5)
80002108:	fd068713          	addi	a4,a3,-48
8000210c:	0ff77713          	zext.b	a4,a4
80002110:	fce67ee3          	bgeu	a2,a4,800020ec <_fdoprnt+0x1b0>
80002114:	efdff06f          	j	80002010 <_fdoprnt+0xd4>
80002118:	02500593          	li	a1,37
8000211c:	00090513          	mv	a0,s2
80002120:	000480e7          	jalr	s1
80002124:	07012b03          	lw	s6,112(sp)
80002128:	06412c83          	lw	s9,100(sp)
8000212c:	08c12083          	lw	ra,140(sp)
80002130:	08812403          	lw	s0,136(sp)
80002134:	08412483          	lw	s1,132(sp)
80002138:	08012903          	lw	s2,128(sp)
8000213c:	07c12983          	lw	s3,124(sp)
80002140:	07812a03          	lw	s4,120(sp)
80002144:	07412a83          	lw	s5,116(sp)
80002148:	06812c03          	lw	s8,104(sp)
8000214c:	09010113          	addi	sp,sp,144
80002150:	00008067          	ret
80002154:	000a2783          	lw	a5,0(s4)
80002158:	00f10023          	sb	a5,0(sp)
8000215c:	000100a3          	sb	zero,1(sp)
80002160:	004a0a13          	addi	s4,s4,4
80002164:	00000d93          	li	s11,0
80002168:	00000413          	li	s0,0
8000216c:	02000b13          	li	s6,32
80002170:	00010d13          	mv	s10,sp
80002174:	000d4783          	lbu	a5,0(s10)
80002178:	1e078063          	beqz	a5,80002358 <_fdoprnt+0x41c>
8000217c:	00000b93          	li	s7,0
80002180:	001b8b93          	addi	s7,s7,1
80002184:	017d07b3          	add	a5,s10,s7
80002188:	0007c783          	lbu	a5,0(a5)
8000218c:	fe079ae3          	bnez	a5,80002180 <_fdoprnt+0x244>
80002190:	05000793          	li	a5,80
80002194:	0197f463          	bgeu	a5,s9,8000219c <_fdoprnt+0x260>
80002198:	00000c93          	li	s9,0
8000219c:	05000793          	li	a5,80
800021a0:	2487e263          	bltu	a5,s0,800023e4 <_fdoprnt+0x4a8>
800021a4:	008ce7b3          	or	a5,s9,s0
800021a8:	1c078a63          	beqz	a5,8000237c <_fdoprnt+0x440>
800021ac:	00040663          	beqz	s0,800021b8 <_fdoprnt+0x27c>
800021b0:	01745463          	bge	s0,s7,800021b8 <_fdoprnt+0x27c>
800021b4:	00040b93          	mv	s7,s0
800021b8:	220c9863          	bnez	s9,800023e8 <_fdoprnt+0x4ac>
800021bc:	02d00793          	li	a5,45
800021c0:	1afd8063          	beq	s11,a5,80002360 <_fdoprnt+0x424>
800021c4:	02d00793          	li	a5,45
800021c8:	22fa8463          	beq	s5,a5,800023f0 <_fdoprnt+0x4b4>
800021cc:	1b905e63          	blez	s9,80002388 <_fdoprnt+0x44c>
800021d0:	00000413          	li	s0,0
800021d4:	000b0593          	mv	a1,s6
800021d8:	00090513          	mv	a0,s2
800021dc:	000480e7          	jalr	s1
800021e0:	00140413          	addi	s0,s0,1
800021e4:	ff9418e3          	bne	s0,s9,800021d4 <_fdoprnt+0x298>
800021e8:	02d00793          	li	a5,45
800021ec:	18fd9e63          	bne	s11,a5,80002388 <_fdoprnt+0x44c>
800021f0:	02000793          	li	a5,32
800021f4:	18fb1a63          	bne	s6,a5,80002388 <_fdoprnt+0x44c>
800021f8:	02d00593          	li	a1,45
800021fc:	00090513          	mv	a0,s2
80002200:	000480e7          	jalr	s1
80002204:	1840006f          	j	80002388 <_fdoprnt+0x44c>
80002208:	004a0793          	addi	a5,s4,4
8000220c:	000a2d03          	lw	s10,0(s4)
80002210:	120d0863          	beqz	s10,80002340 <_fdoprnt+0x404>
80002214:	00078a13          	mv	s4,a5
80002218:	00000d93          	li	s11,0
8000221c:	02000b13          	li	s6,32
80002220:	f55ff06f          	j	80002174 <_fdoprnt+0x238>
80002224:	004a0b93          	addi	s7,s4,4
80002228:	000a2503          	lw	a0,0(s4)
8000222c:	00000d93          	li	s11,0
80002230:	00054c63          	bltz	a0,80002248 <_fdoprnt+0x30c>
80002234:	00010d13          	mv	s10,sp
80002238:	00010593          	mv	a1,sp
8000223c:	999ff0ef          	jal	80001bd4 <_prtl10>
80002240:	000b8a13          	mv	s4,s7
80002244:	f31ff06f          	j	80002174 <_fdoprnt+0x238>
80002248:	40a00533          	neg	a0,a0
8000224c:	02d00d93          	li	s11,45
80002250:	fe5ff06f          	j	80002234 <_fdoprnt+0x2f8>
80002254:	004a0b93          	addi	s7,s4,4
80002258:	000a2503          	lw	a0,0(s4)
8000225c:	00000413          	li	s0,0
80002260:	00055a63          	bgez	a0,80002274 <_fdoprnt+0x338>
80002264:	4d2fa7b7          	lui	a5,0x4d2fa
80002268:	20078793          	addi	a5,a5,512 # 4d2fa200 <_start-0x32d05e00>
8000226c:	00f50533          	add	a0,a0,a5
80002270:	00300413          	li	s0,3
80002274:	00010d13          	mv	s10,sp
80002278:	00010593          	mv	a1,sp
8000227c:	959ff0ef          	jal	80001bd4 <_prtl10>
80002280:	00014783          	lbu	a5,0(sp)
80002284:	00f40433          	add	s0,s0,a5
80002288:	00810023          	sb	s0,0(sp)
8000228c:	000b8a13          	mv	s4,s7
80002290:	00000d93          	li	s11,0
80002294:	00000413          	li	s0,0
80002298:	eddff06f          	j	80002174 <_fdoprnt+0x238>
8000229c:	004a0413          	addi	s0,s4,4
800022a0:	00010d13          	mv	s10,sp
800022a4:	00010593          	mv	a1,sp
800022a8:	000a2503          	lw	a0,0(s4)
800022ac:	a51ff0ef          	jal	80001cfc <_prtl8>
800022b0:	00040a13          	mv	s4,s0
800022b4:	00000d93          	li	s11,0
800022b8:	00000413          	li	s0,0
800022bc:	eb9ff06f          	j	80002174 <_fdoprnt+0x238>
800022c0:	004a0413          	addi	s0,s4,4
800022c4:	00010d13          	mv	s10,sp
800022c8:	00010593          	mv	a1,sp
800022cc:	000a2503          	lw	a0,0(s4)
800022d0:	b51ff0ef          	jal	80001e20 <_prtX16>
800022d4:	00040a13          	mv	s4,s0
800022d8:	00000d93          	li	s11,0
800022dc:	00000413          	li	s0,0
800022e0:	e95ff06f          	j	80002174 <_fdoprnt+0x238>
800022e4:	004a0413          	addi	s0,s4,4
800022e8:	00010d13          	mv	s10,sp
800022ec:	00010593          	mv	a1,sp
800022f0:	000a2503          	lw	a0,0(s4)
800022f4:	a9dff0ef          	jal	80001d90 <_prtl16>
800022f8:	00040a13          	mv	s4,s0
800022fc:	00000d93          	li	s11,0
80002300:	00000413          	li	s0,0
80002304:	e71ff06f          	j	80002174 <_fdoprnt+0x238>
80002308:	004a0413          	addi	s0,s4,4
8000230c:	00010d13          	mv	s10,sp
80002310:	00010593          	mv	a1,sp
80002314:	000a2503          	lw	a0,0(s4)
80002318:	b99ff0ef          	jal	80001eb0 <_prtl2>
8000231c:	00040a13          	mv	s4,s0
80002320:	00000d93          	li	s11,0
80002324:	00000413          	li	s0,0
80002328:	e4dff06f          	j	80002174 <_fdoprnt+0x238>
8000232c:	00090513          	mv	a0,s2
80002330:	000480e7          	jalr	s1
80002334:	00000d93          	li	s11,0
80002338:	00010d13          	mv	s10,sp
8000233c:	e39ff06f          	j	80002174 <_fdoprnt+0x238>
80002340:	00078a13          	mv	s4,a5
80002344:	00000d93          	li	s11,0
80002348:	02000b13          	li	s6,32
8000234c:	80008d37          	lui	s10,0x80008
80002350:	d6cd0d13          	addi	s10,s10,-660 # 80007d6c <_PROCEDURE_LINKAGE_TABLE_+0xdec>
80002354:	e29ff06f          	j	8000217c <_fdoprnt+0x240>
80002358:	00000b93          	li	s7,0
8000235c:	e35ff06f          	j	80002190 <_fdoprnt+0x254>
80002360:	fffc8c93          	addi	s9,s9,-1
80002364:	03000793          	li	a5,48
80002368:	06fb0063          	beq	s6,a5,800023c8 <_fdoprnt+0x48c>
8000236c:	02d00793          	li	a5,45
80002370:	e8fa84e3          	beq	s5,a5,800021f8 <_fdoprnt+0x2bc>
80002374:	e5904ee3          	bgtz	s9,800021d0 <_fdoprnt+0x294>
80002378:	e81ff06f          	j	800021f8 <_fdoprnt+0x2bc>
8000237c:	02d00793          	li	a5,45
80002380:	00000c93          	li	s9,0
80002384:	fefd80e3          	beq	s11,a5,80002364 <_fdoprnt+0x428>
80002388:	03705063          	blez	s7,800023a8 <_fdoprnt+0x46c>
8000238c:	000d0413          	mv	s0,s10
80002390:	017d0d33          	add	s10,s10,s7
80002394:	00044583          	lbu	a1,0(s0)
80002398:	00090513          	mv	a0,s2
8000239c:	000480e7          	jalr	s1
800023a0:	00140413          	addi	s0,s0,1
800023a4:	fe8d18e3          	bne	s10,s0,80002394 <_fdoprnt+0x458>
800023a8:	02d00793          	li	a5,45
800023ac:	04fa8463          	beq	s5,a5,800023f4 <_fdoprnt+0x4b8>
800023b0:	07012b03          	lw	s6,112(sp)
800023b4:	06c12b83          	lw	s7,108(sp)
800023b8:	06412c83          	lw	s9,100(sp)
800023bc:	06012d03          	lw	s10,96(sp)
800023c0:	05c12d83          	lw	s11,92(sp)
800023c4:	bb1ff06f          	j	80001f74 <_fdoprnt+0x38>
800023c8:	02d00593          	li	a1,45
800023cc:	00090513          	mv	a0,s2
800023d0:	000480e7          	jalr	s1
800023d4:	02d00793          	li	a5,45
800023d8:	00fa8c63          	beq	s5,a5,800023f0 <_fdoprnt+0x4b4>
800023dc:	df904ae3          	bgtz	s9,800021d0 <_fdoprnt+0x294>
800023e0:	fa9ff06f          	j	80002388 <_fdoprnt+0x44c>
800023e4:	f80c8ce3          	beqz	s9,8000237c <_fdoprnt+0x440>
800023e8:	417c8cb3          	sub	s9,s9,s7
800023ec:	dd1ff06f          	j	800021bc <_fdoprnt+0x280>
800023f0:	f9704ee3          	bgtz	s7,8000238c <_fdoprnt+0x450>
800023f4:	b9905ce3          	blez	s9,80001f8c <_fdoprnt+0x50>
800023f8:	00000413          	li	s0,0
800023fc:	000b0593          	mv	a1,s6
80002400:	00090513          	mv	a0,s2
80002404:	000480e7          	jalr	s1
80002408:	00140413          	addi	s0,s0,1
8000240c:	ff9418e3          	bne	s0,s9,800023fc <_fdoprnt+0x4c0>
80002410:	07012b03          	lw	s6,112(sp)
80002414:	06c12b83          	lw	s7,108(sp)
80002418:	06412c83          	lw	s9,100(sp)
8000241c:	06012d03          	lw	s10,96(sp)
80002420:	05c12d83          	lw	s11,92(sp)
80002424:	b51ff06f          	j	80001f74 <_fdoprnt+0x38>

80002428 <_prtdbl>:
80002428:	fd010113          	addi	sp,sp,-48
8000242c:	02112623          	sw	ra,44(sp)
80002430:	02812423          	sw	s0,40(sp)
80002434:	02912223          	sw	s1,36(sp)
80002438:	03212023          	sw	s2,32(sp)
8000243c:	01312e23          	sw	s3,28(sp)
80002440:	01412c23          	sw	s4,24(sp)
80002444:	01512a23          	sw	s5,20(sp)
80002448:	01612823          	sw	s6,16(sp)
8000244c:	01712623          	sw	s7,12(sp)
80002450:	00050b93          	mv	s7,a0
80002454:	00058b13          	mv	s6,a1
80002458:	00068413          	mv	s0,a3
8000245c:	0cc05a63          	blez	a2,80002530 <_prtdbl+0x108>
80002460:	00100493          	li	s1,1
80002464:	00000713          	li	a4,0
80002468:	00170713          	addi	a4,a4,1
8000246c:	00249793          	slli	a5,s1,0x2
80002470:	009787b3          	add	a5,a5,s1
80002474:	00179493          	slli	s1,a5,0x1
80002478:	fee618e3          	bne	a2,a4,80002468 <_prtdbl+0x40>
8000247c:	00000613          	li	a2,0
80002480:	00000693          	li	a3,0
80002484:	000b8513          	mv	a0,s7
80002488:	000b0593          	mv	a1,s6
8000248c:	4e8020ef          	jal	80004974 <__ledf2>
80002490:	0a054463          	bltz	a0,80002538 <_prtdbl+0x110>
80002494:	000b8513          	mv	a0,s7
80002498:	000b0593          	mv	a1,s6
8000249c:	4f5020ef          	jal	80005190 <__fixdfsi>
800024a0:	00050a13          	mv	s4,a0
800024a4:	00048513          	mv	a0,s1
800024a8:	56d020ef          	jal	80005214 <__floatsidf>
800024ac:	000b8613          	mv	a2,s7
800024b0:	000b0693          	mv	a3,s6
800024b4:	5c0020ef          	jal	80004a74 <__muldf3>
800024b8:	4d9020ef          	jal	80005190 <__fixdfsi>
800024bc:	00050913          	mv	s2,a0
800024c0:	00048593          	mv	a1,s1
800024c4:	000a0513          	mv	a0,s4
800024c8:	14d040ef          	jal	80006e14 <__mulsi3>
800024cc:	40a90933          	sub	s2,s2,a0
800024d0:	00040593          	mv	a1,s0
800024d4:	000a0513          	mv	a0,s4
800024d8:	efcff0ef          	jal	80001bd4 <_prtl10>
800024dc:	00044783          	lbu	a5,0(s0)
800024e0:	00078863          	beqz	a5,800024f0 <_prtdbl+0xc8>
800024e4:	00140413          	addi	s0,s0,1
800024e8:	00044783          	lbu	a5,0(s0)
800024ec:	fe079ce3          	bnez	a5,800024e4 <_prtdbl+0xbc>
800024f0:	02e00793          	li	a5,46
800024f4:	00f40023          	sb	a5,0(s0)
800024f8:	00140593          	addi	a1,s0,1
800024fc:	00090513          	mv	a0,s2
80002500:	ed4ff0ef          	jal	80001bd4 <_prtl10>
80002504:	02c12083          	lw	ra,44(sp)
80002508:	02812403          	lw	s0,40(sp)
8000250c:	02412483          	lw	s1,36(sp)
80002510:	02012903          	lw	s2,32(sp)
80002514:	01c12983          	lw	s3,28(sp)
80002518:	01812a03          	lw	s4,24(sp)
8000251c:	01412a83          	lw	s5,20(sp)
80002520:	01012b03          	lw	s6,16(sp)
80002524:	00c12b83          	lw	s7,12(sp)
80002528:	03010113          	addi	sp,sp,48
8000252c:	00008067          	ret
80002530:	00100493          	li	s1,1
80002534:	f49ff06f          	j	8000247c <_prtdbl+0x54>
80002538:	800007b7          	lui	a5,0x80000
8000253c:	00fb4b33          	xor	s6,s6,a5
80002540:	f55ff06f          	j	80002494 <_prtdbl+0x6c>

80002544 <_doprnt>:
80002544:	fa010113          	addi	sp,sp,-96
80002548:	04112e23          	sw	ra,92(sp)
8000254c:	04812c23          	sw	s0,88(sp)
80002550:	04912a23          	sw	s1,84(sp)
80002554:	05212823          	sw	s2,80(sp)
80002558:	05412423          	sw	s4,72(sp)
8000255c:	05512223          	sw	s5,68(sp)
80002560:	03812c23          	sw	s8,56(sp)
80002564:	00050c13          	mv	s8,a0
80002568:	00058a13          	mv	s4,a1
8000256c:	00060493          	mv	s1,a2
80002570:	02500913          	li	s2,37
80002574:	001c0413          	addi	s0,s8,1
80002578:	000c4503          	lbu	a0,0(s8)
8000257c:	03251663          	bne	a0,s2,800025a8 <_doprnt+0x64>
80002580:	00040793          	mv	a5,s0
80002584:	000c0413          	mv	s0,s8
80002588:	0340006f          	j	800025bc <_doprnt+0x78>
8000258c:	04c12983          	lw	s3,76(sp)
80002590:	04012b03          	lw	s6,64(sp)
80002594:	03c12b83          	lw	s7,60(sp)
80002598:	03412c83          	lw	s9,52(sp)
8000259c:	03012d03          	lw	s10,48(sp)
800025a0:	fd5ff06f          	j	80002574 <_doprnt+0x30>
800025a4:	00078413          	mv	s0,a5
800025a8:	16050c63          	beqz	a0,80002720 <_doprnt+0x1dc>
800025ac:	000480e7          	jalr	s1
800025b0:	00140793          	addi	a5,s0,1
800025b4:	00044503          	lbu	a0,0(s0)
800025b8:	ff2516e3          	bne	a0,s2,800025a4 <_doprnt+0x60>
800025bc:	0007ca83          	lbu	s5,0(a5) # 80000000 <_start>
800025c0:	092a8663          	beq	s5,s2,8000264c <_doprnt+0x108>
800025c4:	05612023          	sw	s6,64(sp)
800025c8:	03912a23          	sw	s9,52(sp)
800025cc:	02d00713          	li	a4,45
800025d0:	08ea8663          	beq	s5,a4,8000265c <_doprnt+0x118>
800025d4:	0007cb03          	lbu	s6,0(a5)
800025d8:	03000713          	li	a4,48
800025dc:	08eb0463          	beq	s6,a4,80002664 <_doprnt+0x120>
800025e0:	02000b13          	li	s6,32
800025e4:	0007c683          	lbu	a3,0(a5)
800025e8:	02a00713          	li	a4,42
800025ec:	08e69063          	bne	a3,a4,8000266c <_doprnt+0x128>
800025f0:	000a2c83          	lw	s9,0(s4)
800025f4:	00178793          	addi	a5,a5,1
800025f8:	004a0a13          	addi	s4,s4,4
800025fc:	0007c683          	lbu	a3,0(a5)
80002600:	02e00713          	li	a4,46
80002604:	00000413          	li	s0,0
80002608:	0ae68463          	beq	a3,a4,800026b0 <_doprnt+0x16c>
8000260c:	00178c13          	addi	s8,a5,1
80002610:	0007c503          	lbu	a0,0(a5)
80002614:	0e050e63          	beqz	a0,80002710 <_doprnt+0x1cc>
80002618:	05312623          	sw	s3,76(sp)
8000261c:	03712e23          	sw	s7,60(sp)
80002620:	03a12823          	sw	s10,48(sp)
80002624:	fb850793          	addi	a5,a0,-72
80002628:	0ff7f693          	zext.b	a3,a5
8000262c:	03000713          	li	a4,48
80002630:	38d76463          	bltu	a4,a3,800029b8 <_doprnt+0x474>
80002634:	00269793          	slli	a5,a3,0x2
80002638:	8000f737          	lui	a4,0x8000f
8000263c:	99070713          	addi	a4,a4,-1648 # 8000e990 <rv32+0x6a88>
80002640:	00e787b3          	add	a5,a5,a4
80002644:	0007a783          	lw	a5,0(a5)
80002648:	00078067          	jr	a5
8000264c:	00240c13          	addi	s8,s0,2
80002650:	02500513          	li	a0,37
80002654:	000480e7          	jalr	s1
80002658:	f1dff06f          	j	80002574 <_doprnt+0x30>
8000265c:	00240793          	addi	a5,s0,2
80002660:	f75ff06f          	j	800025d4 <_doprnt+0x90>
80002664:	00178793          	addi	a5,a5,1
80002668:	f7dff06f          	j	800025e4 <_doprnt+0xa0>
8000266c:	fd068713          	addi	a4,a3,-48
80002670:	0ff77713          	zext.b	a4,a4
80002674:	00900593          	li	a1,9
80002678:	00000c93          	li	s9,0
8000267c:	00058613          	mv	a2,a1
80002680:	f6e5eee3          	bltu	a1,a4,800025fc <_doprnt+0xb8>
80002684:	00178793          	addi	a5,a5,1
80002688:	002c9713          	slli	a4,s9,0x2
8000268c:	01970733          	add	a4,a4,s9
80002690:	00171713          	slli	a4,a4,0x1
80002694:	00d70733          	add	a4,a4,a3
80002698:	fd070c93          	addi	s9,a4,-48
8000269c:	0007c683          	lbu	a3,0(a5)
800026a0:	fd068713          	addi	a4,a3,-48
800026a4:	0ff77713          	zext.b	a4,a4
800026a8:	fce67ee3          	bgeu	a2,a4,80002684 <_doprnt+0x140>
800026ac:	f51ff06f          	j	800025fc <_doprnt+0xb8>
800026b0:	0017c683          	lbu	a3,1(a5)
800026b4:	02a00713          	li	a4,42
800026b8:	00e69a63          	bne	a3,a4,800026cc <_doprnt+0x188>
800026bc:	000a2403          	lw	s0,0(s4)
800026c0:	00278793          	addi	a5,a5,2
800026c4:	004a0a13          	addi	s4,s4,4
800026c8:	f45ff06f          	j	8000260c <_doprnt+0xc8>
800026cc:	00178793          	addi	a5,a5,1
800026d0:	fd068713          	addi	a4,a3,-48
800026d4:	0ff77713          	zext.b	a4,a4
800026d8:	00900593          	li	a1,9
800026dc:	00058613          	mv	a2,a1
800026e0:	f2e5e6e3          	bltu	a1,a4,8000260c <_doprnt+0xc8>
800026e4:	00178793          	addi	a5,a5,1
800026e8:	00241713          	slli	a4,s0,0x2
800026ec:	00870733          	add	a4,a4,s0
800026f0:	00171713          	slli	a4,a4,0x1
800026f4:	00d70733          	add	a4,a4,a3
800026f8:	fd070413          	addi	s0,a4,-48
800026fc:	0007c683          	lbu	a3,0(a5)
80002700:	fd068713          	addi	a4,a3,-48
80002704:	0ff77713          	zext.b	a4,a4
80002708:	fce67ee3          	bgeu	a2,a4,800026e4 <_doprnt+0x1a0>
8000270c:	f01ff06f          	j	8000260c <_doprnt+0xc8>
80002710:	02500513          	li	a0,37
80002714:	000480e7          	jalr	s1
80002718:	04012b03          	lw	s6,64(sp)
8000271c:	03412c83          	lw	s9,52(sp)
80002720:	05c12083          	lw	ra,92(sp)
80002724:	05812403          	lw	s0,88(sp)
80002728:	05412483          	lw	s1,84(sp)
8000272c:	05012903          	lw	s2,80(sp)
80002730:	04812a03          	lw	s4,72(sp)
80002734:	04412a83          	lw	s5,68(sp)
80002738:	03812c03          	lw	s8,56(sp)
8000273c:	06010113          	addi	sp,sp,96
80002740:	00008067          	ret
80002744:	000a2783          	lw	a5,0(s4)
80002748:	00f10423          	sb	a5,8(sp)
8000274c:	000104a3          	sb	zero,9(sp)
80002750:	004a0a13          	addi	s4,s4,4
80002754:	00000d13          	li	s10,0
80002758:	00000413          	li	s0,0
8000275c:	02000b13          	li	s6,32
80002760:	00810b93          	addi	s7,sp,8
80002764:	000bc783          	lbu	a5,0(s7)
80002768:	26078c63          	beqz	a5,800029e0 <_doprnt+0x49c>
8000276c:	00000993          	li	s3,0
80002770:	00198993          	addi	s3,s3,1
80002774:	013b87b3          	add	a5,s7,s3
80002778:	0007c783          	lbu	a5,0(a5)
8000277c:	fe079ae3          	bnez	a5,80002770 <_doprnt+0x22c>
80002780:	05000793          	li	a5,80
80002784:	0197f463          	bgeu	a5,s9,8000278c <_doprnt+0x248>
80002788:	00000c93          	li	s9,0
8000278c:	05000793          	li	a5,80
80002790:	2a87e263          	bltu	a5,s0,80002a34 <_doprnt+0x4f0>
80002794:	019467b3          	or	a5,s0,s9
80002798:	24079863          	bnez	a5,800029e8 <_doprnt+0x4a4>
8000279c:	02d00793          	li	a5,45
800027a0:	00000c93          	li	s9,0
800027a4:	24fd0e63          	beq	s10,a5,80002a00 <_doprnt+0x4bc>
800027a8:	01305e63          	blez	s3,800027c4 <_doprnt+0x280>
800027ac:	000b8413          	mv	s0,s7
800027b0:	013b8bb3          	add	s7,s7,s3
800027b4:	00044503          	lbu	a0,0(s0)
800027b8:	000480e7          	jalr	s1
800027bc:	00140413          	addi	s0,s0,1
800027c0:	fe8b9ae3          	bne	s7,s0,800027b4 <_doprnt+0x270>
800027c4:	02d00793          	li	a5,45
800027c8:	28fa8463          	beq	s5,a5,80002a50 <_doprnt+0x50c>
800027cc:	04c12983          	lw	s3,76(sp)
800027d0:	04012b03          	lw	s6,64(sp)
800027d4:	03c12b83          	lw	s7,60(sp)
800027d8:	03412c83          	lw	s9,52(sp)
800027dc:	03012d03          	lw	s10,48(sp)
800027e0:	d95ff06f          	j	80002574 <_doprnt+0x30>
800027e4:	004a0793          	addi	a5,s4,4
800027e8:	000a2b83          	lw	s7,0(s4)
800027ec:	1c0b8e63          	beqz	s7,800029c8 <_doprnt+0x484>
800027f0:	00078a13          	mv	s4,a5
800027f4:	00000d13          	li	s10,0
800027f8:	02000b13          	li	s6,32
800027fc:	f69ff06f          	j	80002764 <_doprnt+0x220>
80002800:	004a0993          	addi	s3,s4,4
80002804:	000a2503          	lw	a0,0(s4)
80002808:	41f55d13          	srai	s10,a0,0x1f
8000280c:	02dd7d13          	andi	s10,s10,45
80002810:	00810b93          	addi	s7,sp,8
80002814:	000b8593          	mv	a1,s7
80002818:	bbcff0ef          	jal	80001bd4 <_prtl10>
8000281c:	00098a13          	mv	s4,s3
80002820:	f45ff06f          	j	80002764 <_doprnt+0x220>
80002824:	007a0793          	addi	a5,s4,7
80002828:	ff87f793          	andi	a5,a5,-8
8000282c:	00878a13          	addi	s4,a5,8
80002830:	0007a503          	lw	a0,0(a5)
80002834:	0047a583          	lw	a1,4(a5)
80002838:	41c040ef          	jal	80006c54 <__truncdfsf2>
8000283c:	00050993          	mv	s3,a0
80002840:	00000593          	li	a1,0
80002844:	4b0030ef          	jal	80005cf4 <__lesf2>
80002848:	41f55d13          	srai	s10,a0,0x1f
8000284c:	02dd7d13          	andi	s10,s10,45
80002850:	00810b93          	addi	s7,sp,8
80002854:	00400693          	li	a3,4
80002858:	000b8613          	mv	a2,s7
8000285c:	00600593          	li	a1,6
80002860:	00098513          	mv	a0,s3
80002864:	3dd000ef          	jal	80003440 <ftoa>
80002868:	00098513          	mv	a0,s3
8000286c:	2e0040ef          	jal	80006b4c <__extendsfdf2>
80002870:	000b8693          	mv	a3,s7
80002874:	00600613          	li	a2,6
80002878:	bb1ff0ef          	jal	80002428 <_prtdbl>
8000287c:	ee9ff06f          	j	80002764 <_doprnt+0x220>
80002880:	004a0993          	addi	s3,s4,4
80002884:	000a2503          	lw	a0,0(s4)
80002888:	00000413          	li	s0,0
8000288c:	00055a63          	bgez	a0,800028a0 <_doprnt+0x35c>
80002890:	4d2fa7b7          	lui	a5,0x4d2fa
80002894:	20078793          	addi	a5,a5,512 # 4d2fa200 <_start-0x32d05e00>
80002898:	00f50533          	add	a0,a0,a5
8000289c:	00300413          	li	s0,3
800028a0:	00810b93          	addi	s7,sp,8
800028a4:	000b8593          	mv	a1,s7
800028a8:	b2cff0ef          	jal	80001bd4 <_prtl10>
800028ac:	00814783          	lbu	a5,8(sp)
800028b0:	00f40433          	add	s0,s0,a5
800028b4:	00810423          	sb	s0,8(sp)
800028b8:	00098a13          	mv	s4,s3
800028bc:	00000d13          	li	s10,0
800028c0:	00000413          	li	s0,0
800028c4:	ea1ff06f          	j	80002764 <_doprnt+0x220>
800028c8:	004a0413          	addi	s0,s4,4
800028cc:	00810b93          	addi	s7,sp,8
800028d0:	000b8593          	mv	a1,s7
800028d4:	000a2503          	lw	a0,0(s4)
800028d8:	c24ff0ef          	jal	80001cfc <_prtl8>
800028dc:	00040a13          	mv	s4,s0
800028e0:	00000d13          	li	s10,0
800028e4:	00000413          	li	s0,0
800028e8:	e7dff06f          	j	80002764 <_doprnt+0x220>
800028ec:	004a0413          	addi	s0,s4,4
800028f0:	00810b93          	addi	s7,sp,8
800028f4:	000b8593          	mv	a1,s7
800028f8:	000a2503          	lw	a0,0(s4)
800028fc:	d24ff0ef          	jal	80001e20 <_prtX16>
80002900:	00040a13          	mv	s4,s0
80002904:	00000d13          	li	s10,0
80002908:	00000413          	li	s0,0
8000290c:	e59ff06f          	j	80002764 <_doprnt+0x220>
80002910:	004a0413          	addi	s0,s4,4
80002914:	00810b93          	addi	s7,sp,8
80002918:	000b8593          	mv	a1,s7
8000291c:	000a2503          	lw	a0,0(s4)
80002920:	c70ff0ef          	jal	80001d90 <_prtl16>
80002924:	00040a13          	mv	s4,s0
80002928:	00000d13          	li	s10,0
8000292c:	00000413          	li	s0,0
80002930:	e35ff06f          	j	80002764 <_doprnt+0x220>
80002934:	00810b93          	addi	s7,sp,8
80002938:	000b8593          	mv	a1,s7
8000293c:	000a2503          	lw	a0,0(s4)
80002940:	ce0ff0ef          	jal	80001e20 <_prtX16>
80002944:	008a0413          	addi	s0,s4,8
80002948:	01010593          	addi	a1,sp,16
8000294c:	004a2503          	lw	a0,4(s4)
80002950:	cd0ff0ef          	jal	80001e20 <_prtX16>
80002954:	00040a13          	mv	s4,s0
80002958:	00000d13          	li	s10,0
8000295c:	00000413          	li	s0,0
80002960:	e05ff06f          	j	80002764 <_doprnt+0x220>
80002964:	00810b93          	addi	s7,sp,8
80002968:	000b8593          	mv	a1,s7
8000296c:	000a2503          	lw	a0,0(s4)
80002970:	c20ff0ef          	jal	80001d90 <_prtl16>
80002974:	008a0413          	addi	s0,s4,8
80002978:	01010593          	addi	a1,sp,16
8000297c:	004a2503          	lw	a0,4(s4)
80002980:	c10ff0ef          	jal	80001d90 <_prtl16>
80002984:	00040a13          	mv	s4,s0
80002988:	00000d13          	li	s10,0
8000298c:	00000413          	li	s0,0
80002990:	dd5ff06f          	j	80002764 <_doprnt+0x220>
80002994:	004a0413          	addi	s0,s4,4
80002998:	00810b93          	addi	s7,sp,8
8000299c:	000b8593          	mv	a1,s7
800029a0:	000a2503          	lw	a0,0(s4)
800029a4:	d0cff0ef          	jal	80001eb0 <_prtl2>
800029a8:	00040a13          	mv	s4,s0
800029ac:	00000d13          	li	s10,0
800029b0:	00000413          	li	s0,0
800029b4:	db1ff06f          	j	80002764 <_doprnt+0x220>
800029b8:	000480e7          	jalr	s1
800029bc:	00000d13          	li	s10,0
800029c0:	00810b93          	addi	s7,sp,8
800029c4:	da1ff06f          	j	80002764 <_doprnt+0x220>
800029c8:	00078a13          	mv	s4,a5
800029cc:	00000d13          	li	s10,0
800029d0:	02000b13          	li	s6,32
800029d4:	80008bb7          	lui	s7,0x80008
800029d8:	d6cb8b93          	addi	s7,s7,-660 # 80007d6c <_PROCEDURE_LINKAGE_TABLE_+0xdec>
800029dc:	d91ff06f          	j	8000276c <_doprnt+0x228>
800029e0:	00000993          	li	s3,0
800029e4:	d9dff06f          	j	80002780 <_doprnt+0x23c>
800029e8:	00040663          	beqz	s0,800029f4 <_doprnt+0x4b0>
800029ec:	01345463          	bge	s0,s3,800029f4 <_doprnt+0x4b0>
800029f0:	00040993          	mv	s3,s0
800029f4:	040c8463          	beqz	s9,80002a3c <_doprnt+0x4f8>
800029f8:	0400006f          	j	80002a38 <_doprnt+0x4f4>
800029fc:	fffc8c93          	addi	s9,s9,-1
80002a00:	03000793          	li	a5,48
80002a04:	00fb0c63          	beq	s6,a5,80002a1c <_doprnt+0x4d8>
80002a08:	02d00793          	li	a5,45
80002a0c:	06fa9e63          	bne	s5,a5,80002a88 <_doprnt+0x544>
80002a10:	02d00513          	li	a0,45
80002a14:	000480e7          	jalr	s1
80002a18:	d91ff06f          	j	800027a8 <_doprnt+0x264>
80002a1c:	02d00513          	li	a0,45
80002a20:	000480e7          	jalr	s1
80002a24:	02d00793          	li	a5,45
80002a28:	02fa8263          	beq	s5,a5,80002a4c <_doprnt+0x508>
80002a2c:	07904063          	bgtz	s9,80002a8c <_doprnt+0x548>
80002a30:	d79ff06f          	j	800027a8 <_doprnt+0x264>
80002a34:	d60c84e3          	beqz	s9,8000279c <_doprnt+0x258>
80002a38:	413c8cb3          	sub	s9,s9,s3
80002a3c:	02d00793          	li	a5,45
80002a40:	fafd0ee3          	beq	s10,a5,800029fc <_doprnt+0x4b8>
80002a44:	02d00793          	li	a5,45
80002a48:	02fa9c63          	bne	s5,a5,80002a80 <_doprnt+0x53c>
80002a4c:	d73040e3          	bgtz	s3,800027ac <_doprnt+0x268>
80002a50:	b3905ee3          	blez	s9,8000258c <_doprnt+0x48>
80002a54:	00000413          	li	s0,0
80002a58:	000b0513          	mv	a0,s6
80002a5c:	000480e7          	jalr	s1
80002a60:	00140413          	addi	s0,s0,1
80002a64:	fe8c9ae3          	bne	s9,s0,80002a58 <_doprnt+0x514>
80002a68:	04c12983          	lw	s3,76(sp)
80002a6c:	04012b03          	lw	s6,64(sp)
80002a70:	03c12b83          	lw	s7,60(sp)
80002a74:	03412c83          	lw	s9,52(sp)
80002a78:	03012d03          	lw	s10,48(sp)
80002a7c:	af9ff06f          	j	80002574 <_doprnt+0x30>
80002a80:	01904663          	bgtz	s9,80002a8c <_doprnt+0x548>
80002a84:	d25ff06f          	j	800027a8 <_doprnt+0x264>
80002a88:	f99054e3          	blez	s9,80002a10 <_doprnt+0x4cc>
80002a8c:	00000413          	li	s0,0
80002a90:	000b0513          	mv	a0,s6
80002a94:	000480e7          	jalr	s1
80002a98:	00140413          	addi	s0,s0,1
80002a9c:	ff941ae3          	bne	s0,s9,80002a90 <_doprnt+0x54c>
80002aa0:	02d00793          	li	a5,45
80002aa4:	d0fd12e3          	bne	s10,a5,800027a8 <_doprnt+0x264>
80002aa8:	02000793          	li	a5,32
80002aac:	cefb1ee3          	bne	s6,a5,800027a8 <_doprnt+0x264>
80002ab0:	f61ff06f          	j	80002a10 <_doprnt+0x4cc>

80002ab4 <memchr>:
80002ab4:	02060063          	beqz	a2,80002ad4 <memchr+0x20>
80002ab8:	00c50633          	add	a2,a0,a2
80002abc:	00054783          	lbu	a5,0(a0)
80002ac0:	00b78c63          	beq	a5,a1,80002ad8 <memchr+0x24>
80002ac4:	00150513          	addi	a0,a0,1
80002ac8:	fea61ae3          	bne	a2,a0,80002abc <memchr+0x8>
80002acc:	00000513          	li	a0,0
80002ad0:	00008067          	ret
80002ad4:	00000513          	li	a0,0
80002ad8:	00008067          	ret

80002adc <memcmp>:
80002adc:	02060e63          	beqz	a2,80002b18 <memcmp+0x3c>
80002ae0:	00050793          	mv	a5,a0
80002ae4:	00c50533          	add	a0,a0,a2
80002ae8:	0007c683          	lbu	a3,0(a5)
80002aec:	0005c703          	lbu	a4,0(a1)
80002af0:	00e69c63          	bne	a3,a4,80002b08 <memcmp+0x2c>
80002af4:	00178793          	addi	a5,a5,1
80002af8:	00158593          	addi	a1,a1,1
80002afc:	fea796e3          	bne	a5,a0,80002ae8 <memcmp+0xc>
80002b00:	00000513          	li	a0,0
80002b04:	00008067          	ret
80002b08:	fff00513          	li	a0,-1
80002b0c:	00d77863          	bgeu	a4,a3,80002b1c <memcmp+0x40>
80002b10:	00100513          	li	a0,1
80002b14:	00008067          	ret
80002b18:	00060513          	mv	a0,a2
80002b1c:	00008067          	ret

80002b20 <memset>:
80002b20:	00c50633          	add	a2,a0,a2
80002b24:	00c57863          	bgeu	a0,a2,80002b34 <memset+0x14>
80002b28:	00b50023          	sb	a1,0(a0)
80002b2c:	00150513          	addi	a0,a0,1
80002b30:	fea61ce3          	bne	a2,a0,80002b28 <memset+0x8>
80002b34:	00008067          	ret

80002b38 <memcpy>:
80002b38:	02c05063          	blez	a2,80002b58 <memcpy+0x20>
80002b3c:	00c50633          	add	a2,a0,a2
80002b40:	00050793          	mv	a5,a0
80002b44:	00158593          	addi	a1,a1,1
80002b48:	00178793          	addi	a5,a5,1
80002b4c:	fff5c703          	lbu	a4,-1(a1)
80002b50:	fee78fa3          	sb	a4,-1(a5)
80002b54:	fef618e3          	bne	a2,a5,80002b44 <memcpy+0xc>
80002b58:	00008067          	ret

80002b5c <memmove>:
80002b5c:	02a5e463          	bltu	a1,a0,80002b84 <memmove+0x28>
80002b60:	00c58733          	add	a4,a1,a2
80002b64:	00060e63          	beqz	a2,80002b80 <memmove+0x24>
80002b68:	00158593          	addi	a1,a1,1
80002b6c:	00150513          	addi	a0,a0,1
80002b70:	fff5c783          	lbu	a5,-1(a1)
80002b74:	fef50fa3          	sb	a5,-1(a0)
80002b78:	feb718e3          	bne	a4,a1,80002b68 <memmove+0xc>
80002b7c:	00008067          	ret
80002b80:	00008067          	ret
80002b84:	fff60793          	addi	a5,a2,-1
80002b88:	fe060ae3          	beqz	a2,80002b7c <memmove+0x20>
80002b8c:	fff00613          	li	a2,-1
80002b90:	00f58733          	add	a4,a1,a5
80002b94:	00074683          	lbu	a3,0(a4)
80002b98:	00f50733          	add	a4,a0,a5
80002b9c:	00d70023          	sb	a3,0(a4)
80002ba0:	fff78793          	addi	a5,a5,-1
80002ba4:	fec796e3          	bne	a5,a2,80002b90 <memmove+0x34>
80002ba8:	00008067          	ret

80002bac <strchr>:
80002bac:	00054783          	lbu	a5,0(a0)
80002bb0:	00078713          	mv	a4,a5
80002bb4:	00f58e63          	beq	a1,a5,80002bd0 <strchr+0x24>
80002bb8:	00078e63          	beqz	a5,80002bd4 <strchr+0x28>
80002bbc:	00150513          	addi	a0,a0,1
80002bc0:	00054783          	lbu	a5,0(a0)
80002bc4:	00078713          	mv	a4,a5
80002bc8:	feb798e3          	bne	a5,a1,80002bb8 <strchr+0xc>
80002bcc:	00008067          	ret
80002bd0:	00008067          	ret
80002bd4:	40e585b3          	sub	a1,a1,a4
80002bd8:	0015b593          	seqz	a1,a1
80002bdc:	40b005b3          	neg	a1,a1
80002be0:	00b57533          	and	a0,a0,a1
80002be4:	00008067          	ret

80002be8 <strlen>:
80002be8:	00050713          	mv	a4,a0
80002bec:	00054783          	lbu	a5,0(a0)
80002bf0:	00078e63          	beqz	a5,80002c0c <strlen+0x24>
80002bf4:	00000513          	li	a0,0
80002bf8:	00150513          	addi	a0,a0,1
80002bfc:	00a707b3          	add	a5,a4,a0
80002c00:	0007c783          	lbu	a5,0(a5)
80002c04:	fe079ae3          	bnez	a5,80002bf8 <strlen+0x10>
80002c08:	00008067          	ret
80002c0c:	00000513          	li	a0,0
80002c10:	00008067          	ret

80002c14 <strreverse>:
80002c14:	04050063          	beqz	a0,80002c54 <strreverse+0x40>
80002c18:	00054783          	lbu	a5,0(a0)
80002c1c:	02078c63          	beqz	a5,80002c54 <strreverse+0x40>
80002c20:	00050713          	mv	a4,a0
80002c24:	00070793          	mv	a5,a4
80002c28:	00170713          	addi	a4,a4,1
80002c2c:	00074683          	lbu	a3,0(a4)
80002c30:	fe069ae3          	bnez	a3,80002c24 <strreverse+0x10>
80002c34:	02f57063          	bgeu	a0,a5,80002c54 <strreverse+0x40>
80002c38:	00054703          	lbu	a4,0(a0)
80002c3c:	00150513          	addi	a0,a0,1
80002c40:	0007c683          	lbu	a3,0(a5)
80002c44:	fed50fa3          	sb	a3,-1(a0)
80002c48:	fff78793          	addi	a5,a5,-1
80002c4c:	00e780a3          	sb	a4,1(a5)
80002c50:	fef564e3          	bltu	a0,a5,80002c38 <strreverse+0x24>
80002c54:	00008067          	ret

80002c58 <strcmp>:
80002c58:	00054703          	lbu	a4,0(a0)
80002c5c:	0005c783          	lbu	a5,0(a1)
80002c60:	02f71063          	bne	a4,a5,80002c80 <strcmp+0x28>
80002c64:	02070663          	beqz	a4,80002c90 <strcmp+0x38>
80002c68:	00078c63          	beqz	a5,80002c80 <strcmp+0x28>
80002c6c:	00150513          	addi	a0,a0,1
80002c70:	00158593          	addi	a1,a1,1
80002c74:	00054703          	lbu	a4,0(a0)
80002c78:	0005c783          	lbu	a5,0(a1)
80002c7c:	fef704e3          	beq	a4,a5,80002c64 <strcmp+0xc>
80002c80:	fff00513          	li	a0,-1
80002c84:	00e7f463          	bgeu	a5,a4,80002c8c <strcmp+0x34>
80002c88:	00100513          	li	a0,1
80002c8c:	00008067          	ret
80002c90:	00000513          	li	a0,0
80002c94:	fe078ce3          	beqz	a5,80002c8c <strcmp+0x34>
80002c98:	fe9ff06f          	j	80002c80 <strcmp+0x28>

80002c9c <strncmp>:
80002c9c:	00054783          	lbu	a5,0(a0)
80002ca0:	0005c703          	lbu	a4,0(a1)
80002ca4:	06e79263          	bne	a5,a4,80002d08 <strncmp+0x6c>
80002ca8:	04078063          	beqz	a5,80002ce8 <strncmp+0x4c>
80002cac:	02070063          	beqz	a4,80002ccc <strncmp+0x30>
80002cb0:	02060863          	beqz	a2,80002ce0 <strncmp+0x44>
80002cb4:	00150513          	addi	a0,a0,1
80002cb8:	00158593          	addi	a1,a1,1
80002cbc:	fff60613          	addi	a2,a2,-1
80002cc0:	00054783          	lbu	a5,0(a0)
80002cc4:	0005c703          	lbu	a4,0(a1)
80002cc8:	fee780e3          	beq	a5,a4,80002ca8 <strncmp+0xc>
80002ccc:	02060a63          	beqz	a2,80002d00 <strncmp+0x64>
80002cd0:	fff00513          	li	a0,-1
80002cd4:	02f77063          	bgeu	a4,a5,80002cf4 <strncmp+0x58>
80002cd8:	00100513          	li	a0,1
80002cdc:	00008067          	ret
80002ce0:	00060513          	mv	a0,a2
80002ce4:	00008067          	ret
80002ce8:	00060863          	beqz	a2,80002cf8 <strncmp+0x5c>
80002cec:	00000513          	li	a0,0
80002cf0:	fe0710e3          	bnez	a4,80002cd0 <strncmp+0x34>
80002cf4:	00008067          	ret
80002cf8:	00060513          	mv	a0,a2
80002cfc:	00008067          	ret
80002d00:	00060513          	mv	a0,a2
80002d04:	00008067          	ret
80002d08:	00060513          	mv	a0,a2
80002d0c:	fc0612e3          	bnez	a2,80002cd0 <strncmp+0x34>
80002d10:	00008067          	ret

80002d14 <strncpy>:
80002d14:	0005c703          	lbu	a4,0(a1)
80002d18:	00050793          	mv	a5,a0
80002d1c:	fff60813          	addi	a6,a2,-1
80002d20:	00a80833          	add	a6,a6,a0
80002d24:	00c508b3          	add	a7,a0,a2
80002d28:	02070263          	beqz	a4,80002d4c <strncpy+0x38>
80002d2c:	40f80633          	sub	a2,a6,a5
80002d30:	40f886b3          	sub	a3,a7,a5
80002d34:	00d05c63          	blez	a3,80002d4c <strncpy+0x38>
80002d38:	00158593          	addi	a1,a1,1
80002d3c:	00178793          	addi	a5,a5,1
80002d40:	fee78fa3          	sb	a4,-1(a5)
80002d44:	0005c703          	lbu	a4,0(a1)
80002d48:	fe0712e3          	bnez	a4,80002d2c <strncpy+0x18>
80002d4c:	00c78733          	add	a4,a5,a2
80002d50:	00c05a63          	blez	a2,80002d64 <strncpy+0x50>
80002d54:	00178793          	addi	a5,a5,1
80002d58:	fe078fa3          	sb	zero,-1(a5)
80002d5c:	fee79ce3          	bne	a5,a4,80002d54 <strncpy+0x40>
80002d60:	00008067          	ret
80002d64:	00008067          	ret

80002d68 <chrnlst>:
80002d68:	0005c783          	lbu	a5,0(a1)
80002d6c:	02078063          	beqz	a5,80002d8c <chrnlst+0x24>
80002d70:	00158593          	addi	a1,a1,1
80002d74:	02f50063          	beq	a0,a5,80002d94 <chrnlst+0x2c>
80002d78:	00158593          	addi	a1,a1,1
80002d7c:	fff5c783          	lbu	a5,-1(a1)
80002d80:	fe079ae3          	bnez	a5,80002d74 <chrnlst+0xc>
80002d84:	00000513          	li	a0,0
80002d88:	00008067          	ret
80002d8c:	00000513          	li	a0,0
80002d90:	00008067          	ret
80002d94:	00100513          	li	a0,1
80002d98:	00008067          	ret

80002d9c <strncat>:
80002d9c:	00050793          	mv	a5,a0
80002da0:	00078713          	mv	a4,a5
80002da4:	00178793          	addi	a5,a5,1
80002da8:	fff7c683          	lbu	a3,-1(a5)
80002dac:	fe069ae3          	bnez	a3,80002da0 <strncat+0x4>
80002db0:	00070793          	mv	a5,a4
80002db4:	00c706b3          	add	a3,a4,a2
80002db8:	00158593          	addi	a1,a1,1
80002dbc:	00078613          	mv	a2,a5
80002dc0:	00178793          	addi	a5,a5,1
80002dc4:	fff5c703          	lbu	a4,-1(a1)
80002dc8:	fee78fa3          	sb	a4,-1(a5)
80002dcc:	00070a63          	beqz	a4,80002de0 <strncat+0x44>
80002dd0:	40f68733          	sub	a4,a3,a5
80002dd4:	fe0752e3          	bgez	a4,80002db8 <strncat+0x1c>
80002dd8:	00060023          	sb	zero,0(a2)
80002ddc:	00008067          	ret
80002de0:	00008067          	ret

80002de4 <strstr>:
80002de4:	00054783          	lbu	a5,0(a0)
80002de8:	06078063          	beqz	a5,80002e48 <strstr+0x64>
80002dec:	0005c803          	lbu	a6,0(a1)
80002df0:	01c0006f          	j	80002e0c <strstr+0x28>
80002df4:	00008067          	ret
80002df8:	0007c783          	lbu	a5,0(a5)
80002dfc:	04078863          	beqz	a5,80002e4c <strstr+0x68>
80002e00:	00150513          	addi	a0,a0,1
80002e04:	00054783          	lbu	a5,0(a0)
80002e08:	02078c63          	beqz	a5,80002e40 <strstr+0x5c>
80002e0c:	fef81ae3          	bne	a6,a5,80002e00 <strstr+0x1c>
80002e10:	00054703          	lbu	a4,0(a0)
80002e14:	00058793          	mv	a5,a1
80002e18:	00050613          	mv	a2,a0
80002e1c:	fe0702e3          	beqz	a4,80002e00 <strstr+0x1c>
80002e20:	0007c683          	lbu	a3,0(a5)
80002e24:	fc0688e3          	beqz	a3,80002df4 <strstr+0x10>
80002e28:	fce698e3          	bne	a3,a4,80002df8 <strstr+0x14>
80002e2c:	00160613          	addi	a2,a2,1
80002e30:	00178793          	addi	a5,a5,1
80002e34:	00064703          	lbu	a4,0(a2)
80002e38:	fe0714e3          	bnez	a4,80002e20 <strstr+0x3c>
80002e3c:	fbdff06f          	j	80002df8 <strstr+0x14>
80002e40:	00000513          	li	a0,0
80002e44:	00008067          	ret
80002e48:	00000513          	li	a0,0
80002e4c:	00008067          	ret

80002e50 <strcpy>:
80002e50:	00158593          	addi	a1,a1,1
80002e54:	00150513          	addi	a0,a0,1
80002e58:	fff5c783          	lbu	a5,-1(a1)
80002e5c:	fef50fa3          	sb	a5,-1(a0)
80002e60:	fe0798e3          	bnez	a5,80002e50 <strcpy>
80002e64:	00000513          	li	a0,0
80002e68:	00008067          	ret

80002e6c <strspn>:
80002e6c:	00054683          	lbu	a3,0(a0)
80002e70:	04068063          	beqz	a3,80002eb0 <strspn+0x44>
80002e74:	0005c803          	lbu	a6,0(a1)
80002e78:	00050613          	mv	a2,a0
80002e7c:	0100006f          	j	80002e8c <strspn+0x20>
80002e80:	00160613          	addi	a2,a2,1
80002e84:	00064683          	lbu	a3,0(a2)
80002e88:	02068063          	beqz	a3,80002ea8 <strspn+0x3c>
80002e8c:	00080e63          	beqz	a6,80002ea8 <strspn+0x3c>
80002e90:	00058713          	mv	a4,a1
80002e94:	00080793          	mv	a5,a6
80002e98:	fed784e3          	beq	a5,a3,80002e80 <strspn+0x14>
80002e9c:	00170713          	addi	a4,a4,1
80002ea0:	00074783          	lbu	a5,0(a4)
80002ea4:	fe079ae3          	bnez	a5,80002e98 <strspn+0x2c>
80002ea8:	40a60533          	sub	a0,a2,a0
80002eac:	00008067          	ret
80002eb0:	00050613          	mv	a2,a0
80002eb4:	ff5ff06f          	j	80002ea8 <strspn+0x3c>

80002eb8 <strcat>:
80002eb8:	ff010113          	addi	sp,sp,-16
80002ebc:	00112623          	sw	ra,12(sp)
80002ec0:	00812423          	sw	s0,8(sp)
80002ec4:	00912223          	sw	s1,4(sp)
80002ec8:	00050413          	mv	s0,a0
80002ecc:	00058493          	mv	s1,a1
80002ed0:	d19ff0ef          	jal	80002be8 <strlen>
80002ed4:	00048593          	mv	a1,s1
80002ed8:	00a40533          	add	a0,s0,a0
80002edc:	f75ff0ef          	jal	80002e50 <strcpy>
80002ee0:	00040513          	mv	a0,s0
80002ee4:	00c12083          	lw	ra,12(sp)
80002ee8:	00812403          	lw	s0,8(sp)
80002eec:	00412483          	lw	s1,4(sp)
80002ef0:	01010113          	addi	sp,sp,16
80002ef4:	00008067          	ret

80002ef8 <strcspn>:
80002ef8:	00050613          	mv	a2,a0
80002efc:	00160813          	addi	a6,a2,1
80002f00:	00064683          	lbu	a3,0(a2)
80002f04:	00058793          	mv	a5,a1
80002f08:	00178793          	addi	a5,a5,1
80002f0c:	fff7c703          	lbu	a4,-1(a5)
80002f10:	00e68863          	beq	a3,a4,80002f20 <strcspn+0x28>
80002f14:	fe071ae3          	bnez	a4,80002f08 <strcspn+0x10>
80002f18:	00080613          	mv	a2,a6
80002f1c:	fe1ff06f          	j	80002efc <strcspn+0x4>
80002f20:	40a60533          	sub	a0,a2,a0
80002f24:	00008067          	ret

80002f28 <strnlen>:
80002f28:	00050713          	mv	a4,a0
80002f2c:	00054783          	lbu	a5,0(a0)
80002f30:	00000513          	li	a0,0
80002f34:	00078e63          	beqz	a5,80002f50 <strnlen+0x28>
80002f38:	00b55a63          	bge	a0,a1,80002f4c <strnlen+0x24>
80002f3c:	00150513          	addi	a0,a0,1
80002f40:	00a707b3          	add	a5,a4,a0
80002f44:	0007c783          	lbu	a5,0(a5)
80002f48:	fe0798e3          	bnez	a5,80002f38 <strnlen+0x10>
80002f4c:	00008067          	ret
80002f50:	00008067          	ret

80002f54 <strtok>:
80002f54:	00051c63          	bnez	a0,80002f6c <strtok+0x18>
80002f58:	800327b7          	lui	a5,0x80032
80002f5c:	0087a503          	lw	a0,8(a5) # 80032008 <last.0>
80002f60:	00051663          	bnez	a0,80002f6c <strtok+0x18>
80002f64:	00008067          	ret
80002f68:	00060513          	mv	a0,a2
80002f6c:	00150613          	addi	a2,a0,1
80002f70:	00054683          	lbu	a3,0(a0)
80002f74:	00058793          	mv	a5,a1
80002f78:	00178793          	addi	a5,a5,1
80002f7c:	fff7c703          	lbu	a4,-1(a5)
80002f80:	00070663          	beqz	a4,80002f8c <strtok+0x38>
80002f84:	fee69ae3          	bne	a3,a4,80002f78 <strtok+0x24>
80002f88:	fe1ff06f          	j	80002f68 <strtok+0x14>
80002f8c:	02068463          	beqz	a3,80002fb4 <strtok+0x60>
80002f90:	00160813          	addi	a6,a2,1
80002f94:	00064683          	lbu	a3,0(a2)
80002f98:	00058793          	mv	a5,a1
80002f9c:	00178793          	addi	a5,a5,1
80002fa0:	fff7c703          	lbu	a4,-1(a5)
80002fa4:	02e68063          	beq	a3,a4,80002fc4 <strtok+0x70>
80002fa8:	fe071ae3          	bnez	a4,80002f9c <strtok+0x48>
80002fac:	00080613          	mv	a2,a6
80002fb0:	fe1ff06f          	j	80002f90 <strtok+0x3c>
80002fb4:	800327b7          	lui	a5,0x80032
80002fb8:	0007a423          	sw	zero,8(a5) # 80032008 <last.0>
80002fbc:	00000513          	li	a0,0
80002fc0:	00008067          	ret
80002fc4:	00068663          	beqz	a3,80002fd0 <strtok+0x7c>
80002fc8:	00060023          	sb	zero,0(a2)
80002fcc:	0080006f          	j	80002fd4 <strtok+0x80>
80002fd0:	00000813          	li	a6,0
80002fd4:	800327b7          	lui	a5,0x80032
80002fd8:	0107a423          	sw	a6,8(a5) # 80032008 <last.0>
80002fdc:	00008067          	ret

80002fe0 <strrchr>:
80002fe0:	00050793          	mv	a5,a0
80002fe4:	00054703          	lbu	a4,0(a0)
80002fe8:	02070463          	beqz	a4,80003010 <strrchr+0x30>
80002fec:	00000513          	li	a0,0
80002ff0:	0ff5f693          	zext.b	a3,a1
80002ff4:	0100006f          	j	80003004 <strrchr+0x24>
80002ff8:	00178793          	addi	a5,a5,1
80002ffc:	0007c703          	lbu	a4,0(a5)
80003000:	00070a63          	beqz	a4,80003014 <strrchr+0x34>
80003004:	fee69ae3          	bne	a3,a4,80002ff8 <strrchr+0x18>
80003008:	00078513          	mv	a0,a5
8000300c:	fedff06f          	j	80002ff8 <strrchr+0x18>
80003010:	00000513          	li	a0,0
80003014:	0ff5f593          	zext.b	a1,a1
80003018:	00058463          	beqz	a1,80003020 <strrchr+0x40>
8000301c:	00008067          	ret
80003020:	00078513          	mv	a0,a5
80003024:	00008067          	ret

80003028 <labs>:
80003028:	41f55793          	srai	a5,a0,0x1f
8000302c:	00a7c533          	xor	a0,a5,a0
80003030:	40f50533          	sub	a0,a0,a5
80003034:	00008067          	ret

80003038 <abs>:
80003038:	41f55793          	srai	a5,a0,0x1f
8000303c:	00a7c533          	xor	a0,a5,a0
80003040:	40f50533          	sub	a0,a0,a5
80003044:	00008067          	ret

80003048 <strndup>:
80003048:	ff010113          	addi	sp,sp,-16
8000304c:	00112623          	sw	ra,12(sp)
80003050:	00812423          	sw	s0,8(sp)
80003054:	00912223          	sw	s1,4(sp)
80003058:	01212023          	sw	s2,0(sp)
8000305c:	00050913          	mv	s2,a0
80003060:	ec9ff0ef          	jal	80002f28 <strnlen>
80003064:	00050413          	mv	s0,a0
80003068:	00150513          	addi	a0,a0,1
8000306c:	654000ef          	jal	800036c0 <malloc>
80003070:	00050493          	mv	s1,a0
80003074:	00050c63          	beqz	a0,8000308c <strndup+0x44>
80003078:	00040613          	mv	a2,s0
8000307c:	00090593          	mv	a1,s2
80003080:	c95ff0ef          	jal	80002d14 <strncpy>
80003084:	00848433          	add	s0,s1,s0
80003088:	00040023          	sb	zero,0(s0)
8000308c:	00048513          	mv	a0,s1
80003090:	00c12083          	lw	ra,12(sp)
80003094:	00812403          	lw	s0,8(sp)
80003098:	00412483          	lw	s1,4(sp)
8000309c:	00012903          	lw	s2,0(sp)
800030a0:	01010113          	addi	sp,sp,16
800030a4:	00008067          	ret

800030a8 <strdup>:
800030a8:	ff010113          	addi	sp,sp,-16
800030ac:	00112623          	sw	ra,12(sp)
800030b0:	00812423          	sw	s0,8(sp)
800030b4:	00050413          	mv	s0,a0
800030b8:	b31ff0ef          	jal	80002be8 <strlen>
800030bc:	00050593          	mv	a1,a0
800030c0:	00040513          	mv	a0,s0
800030c4:	f85ff0ef          	jal	80003048 <strndup>
800030c8:	00c12083          	lw	ra,12(sp)
800030cc:	00812403          	lw	s0,8(sp)
800030d0:	01010113          	addi	sp,sp,16
800030d4:	00008067          	ret

800030d8 <atol>:
800030d8:	00050713          	mv	a4,a0
800030dc:	02b00693          	li	a3,43
800030e0:	00074783          	lbu	a5,0(a4)
800030e4:	08d78863          	beq	a5,a3,80003174 <atol+0x9c>
800030e8:	00f6ee63          	bltu	a3,a5,80003104 <atol+0x2c>
800030ec:	00900613          	li	a2,9
800030f0:	06c78e63          	beq	a5,a2,8000316c <atol+0x94>
800030f4:	02000613          	li	a2,32
800030f8:	06c78a63          	beq	a5,a2,8000316c <atol+0x94>
800030fc:	00000593          	li	a1,0
80003100:	0140006f          	j	80003114 <atol+0x3c>
80003104:	02d00693          	li	a3,45
80003108:	00100593          	li	a1,1
8000310c:	04d79c63          	bne	a5,a3,80003164 <atol+0x8c>
80003110:	00170713          	addi	a4,a4,1
80003114:	00074683          	lbu	a3,0(a4)
80003118:	fd068793          	addi	a5,a3,-48
8000311c:	0ff7f793          	zext.b	a5,a5
80003120:	00900813          	li	a6,9
80003124:	00000513          	li	a0,0
80003128:	00080613          	mv	a2,a6
8000312c:	02f86663          	bltu	a6,a5,80003158 <atol+0x80>
80003130:	00170713          	addi	a4,a4,1
80003134:	00251793          	slli	a5,a0,0x2
80003138:	00a787b3          	add	a5,a5,a0
8000313c:	00179793          	slli	a5,a5,0x1
80003140:	00d787b3          	add	a5,a5,a3
80003144:	fd078513          	addi	a0,a5,-48
80003148:	00074683          	lbu	a3,0(a4)
8000314c:	fd068793          	addi	a5,a3,-48
80003150:	0ff7f793          	zext.b	a5,a5
80003154:	fcf67ee3          	bgeu	a2,a5,80003130 <atol+0x58>
80003158:	00058463          	beqz	a1,80003160 <atol+0x88>
8000315c:	40a00533          	neg	a0,a0
80003160:	00008067          	ret
80003164:	00000593          	li	a1,0
80003168:	fadff06f          	j	80003114 <atol+0x3c>
8000316c:	00170713          	addi	a4,a4,1
80003170:	f71ff06f          	j	800030e0 <atol+0x8>
80003174:	00000593          	li	a1,0
80003178:	f99ff06f          	j	80003110 <atol+0x38>

8000317c <atoi>:
8000317c:	fe010113          	addi	sp,sp,-32
80003180:	00112e23          	sw	ra,28(sp)
80003184:	00812c23          	sw	s0,24(sp)
80003188:	00912a23          	sw	s1,20(sp)
8000318c:	01212823          	sw	s2,16(sp)
80003190:	01312623          	sw	s3,12(sp)
80003194:	00050413          	mv	s0,a0
80003198:	00000493          	li	s1,0
8000319c:	800089b7          	lui	s3,0x80008
800031a0:	0080006f          	j	800031a8 <atoi+0x2c>
800031a4:	00148493          	addi	s1,s1,1
800031a8:	009407b3          	add	a5,s0,s1
800031ac:	0007c903          	lbu	s2,0(a5)
800031b0:	d7498593          	addi	a1,s3,-652 # 80007d74 <_PROCEDURE_LINKAGE_TABLE_+0xdf4>
800031b4:	00090513          	mv	a0,s2
800031b8:	bb1ff0ef          	jal	80002d68 <chrnlst>
800031bc:	00050593          	mv	a1,a0
800031c0:	fe0512e3          	bnez	a0,800031a4 <atoi+0x28>
800031c4:	02d00793          	li	a5,45
800031c8:	08f90663          	beq	s2,a5,80003254 <atoi+0xd8>
800031cc:	fd590913          	addi	s2,s2,-43
800031d0:	00193913          	seqz	s2,s2
800031d4:	012484b3          	add	s1,s1,s2
800031d8:	009407b3          	add	a5,s0,s1
800031dc:	0007c703          	lbu	a4,0(a5)
800031e0:	fd070793          	addi	a5,a4,-48
800031e4:	0ff7f793          	zext.b	a5,a5
800031e8:	00900693          	li	a3,9
800031ec:	00050613          	mv	a2,a0
800031f0:	08f6e663          	bltu	a3,a5,8000327c <atoi+0x100>
800031f4:	00148493          	addi	s1,s1,1
800031f8:	00940533          	add	a0,s0,s1
800031fc:	00900693          	li	a3,9
80003200:	00259793          	slli	a5,a1,0x2
80003204:	00b787b3          	add	a5,a5,a1
80003208:	00179793          	slli	a5,a5,0x1
8000320c:	fd070713          	addi	a4,a4,-48
80003210:	00f705b3          	add	a1,a4,a5
80003214:	00054703          	lbu	a4,0(a0)
80003218:	00150513          	addi	a0,a0,1
8000321c:	fd070793          	addi	a5,a4,-48
80003220:	0ff7f793          	zext.b	a5,a5
80003224:	fcf6fee3          	bgeu	a3,a5,80003200 <atoi+0x84>
80003228:	00163513          	seqz	a0,a2
8000322c:	00151513          	slli	a0,a0,0x1
80003230:	fff50513          	addi	a0,a0,-1
80003234:	3e1030ef          	jal	80006e14 <__mulsi3>
80003238:	01c12083          	lw	ra,28(sp)
8000323c:	01812403          	lw	s0,24(sp)
80003240:	01412483          	lw	s1,20(sp)
80003244:	01012903          	lw	s2,16(sp)
80003248:	00c12983          	lw	s3,12(sp)
8000324c:	02010113          	addi	sp,sp,32
80003250:	00008067          	ret
80003254:	00148493          	addi	s1,s1,1
80003258:	009407b3          	add	a5,s0,s1
8000325c:	0007c703          	lbu	a4,0(a5)
80003260:	fd070793          	addi	a5,a4,-48
80003264:	0ff7f793          	zext.b	a5,a5
80003268:	00900693          	li	a3,9
8000326c:	00100613          	li	a2,1
80003270:	fff00513          	li	a0,-1
80003274:	f8f6f0e3          	bgeu	a3,a5,800031f4 <atoi+0x78>
80003278:	fbdff06f          	j	80003234 <atoi+0xb8>
8000327c:	00100513          	li	a0,1
80003280:	fb5ff06f          	j	80003234 <atoi+0xb8>

80003284 <uitoa>:
80003284:	fa010113          	addi	sp,sp,-96
80003288:	04112e23          	sw	ra,92(sp)
8000328c:	04912a23          	sw	s1,84(sp)
80003290:	05212823          	sw	s2,80(sp)
80003294:	05412423          	sw	s4,72(sp)
80003298:	03712e23          	sw	s7,60(sp)
8000329c:	00050493          	mv	s1,a0
800032a0:	00058a13          	mv	s4,a1
800032a4:	00060b93          	mv	s7,a2
800032a8:	00068913          	mv	s2,a3
800032ac:	800087b7          	lui	a5,0x80008
800032b0:	d7c78793          	addi	a5,a5,-644 # 80007d7c <_PROCEDURE_LINKAGE_TABLE_+0xdfc>
800032b4:	0007a303          	lw	t1,0(a5)
800032b8:	0047a883          	lw	a7,4(a5)
800032bc:	0087a803          	lw	a6,8(a5)
800032c0:	00c7a503          	lw	a0,12(a5)
800032c4:	0107a583          	lw	a1,16(a5)
800032c8:	0147a603          	lw	a2,20(a5)
800032cc:	0187a683          	lw	a3,24(a5)
800032d0:	01c7a703          	lw	a4,28(a5)
800032d4:	0207a783          	lw	a5,32(a5)
800032d8:	00612623          	sw	t1,12(sp)
800032dc:	01112823          	sw	a7,16(sp)
800032e0:	01012a23          	sw	a6,20(sp)
800032e4:	00a12c23          	sw	a0,24(sp)
800032e8:	00b12e23          	sw	a1,28(sp)
800032ec:	02c12023          	sw	a2,32(sp)
800032f0:	02d12223          	sw	a3,36(sp)
800032f4:	02e12423          	sw	a4,40(sp)
800032f8:	02f12623          	sw	a5,44(sp)
800032fc:	0a0b8c63          	beqz	s7,800033b4 <uitoa+0x130>
80003300:	ffe90793          	addi	a5,s2,-2
80003304:	02200713          	li	a4,34
80003308:	0af76a63          	bltu	a4,a5,800033bc <uitoa+0x138>
8000330c:	04812c23          	sw	s0,88(sp)
80003310:	05312623          	sw	s3,76(sp)
80003314:	05512223          	sw	s5,68(sp)
80003318:	05612023          	sw	s6,64(sp)
8000331c:	000b8a93          	mv	s5,s7
80003320:	00000413          	li	s0,0
80003324:	0080006f          	j	8000332c <uitoa+0xa8>
80003328:	00050493          	mv	s1,a0
8000332c:	00140413          	addi	s0,s0,1
80003330:	00040b13          	mv	s6,s0
80003334:	008a09b3          	add	s3,s4,s0
80003338:	00090593          	mv	a1,s2
8000333c:	00048513          	mv	a0,s1
80003340:	349030ef          	jal	80006e88 <__umodsi3>
80003344:	03050793          	addi	a5,a0,48
80003348:	00278533          	add	a0,a5,sp
8000334c:	fdc54783          	lbu	a5,-36(a0)
80003350:	fef98fa3          	sb	a5,-1(s3)
80003354:	01540c63          	beq	s0,s5,8000336c <uitoa+0xe8>
80003358:	00090593          	mv	a1,s2
8000335c:	00048513          	mv	a0,s1
80003360:	2e1030ef          	jal	80006e40 <__hidden___udivsi3>
80003364:	fd24f2e3          	bgeu	s1,s2,80003328 <uitoa+0xa4>
80003368:	00040a93          	mv	s5,s0
8000336c:	00000513          	li	a0,0
80003370:	056b8a63          	beq	s7,s6,800033c4 <uitoa+0x140>
80003374:	015a0ab3          	add	s5,s4,s5
80003378:	000a8023          	sb	zero,0(s5)
8000337c:	000a0513          	mv	a0,s4
80003380:	895ff0ef          	jal	80002c14 <strreverse>
80003384:	000a0513          	mv	a0,s4
80003388:	05812403          	lw	s0,88(sp)
8000338c:	04c12983          	lw	s3,76(sp)
80003390:	04412a83          	lw	s5,68(sp)
80003394:	04012b03          	lw	s6,64(sp)
80003398:	05c12083          	lw	ra,92(sp)
8000339c:	05412483          	lw	s1,84(sp)
800033a0:	05012903          	lw	s2,80(sp)
800033a4:	04812a03          	lw	s4,72(sp)
800033a8:	03c12b83          	lw	s7,60(sp)
800033ac:	06010113          	addi	sp,sp,96
800033b0:	00008067          	ret
800033b4:	00000513          	li	a0,0
800033b8:	fe1ff06f          	j	80003398 <uitoa+0x114>
800033bc:	00000513          	li	a0,0
800033c0:	fd9ff06f          	j	80003398 <uitoa+0x114>
800033c4:	05812403          	lw	s0,88(sp)
800033c8:	04c12983          	lw	s3,76(sp)
800033cc:	04412a83          	lw	s5,68(sp)
800033d0:	04012b03          	lw	s6,64(sp)
800033d4:	fc5ff06f          	j	80003398 <uitoa+0x114>

800033d8 <itoa>:
800033d8:	04060c63          	beqz	a2,80003430 <itoa+0x58>
800033dc:	ffe68793          	addi	a5,a3,-2
800033e0:	02200713          	li	a4,34
800033e4:	04f76a63          	bltu	a4,a5,80003438 <itoa+0x60>
800033e8:	ff010113          	addi	sp,sp,-16
800033ec:	00112623          	sw	ra,12(sp)
800033f0:	02054063          	bltz	a0,80003410 <itoa+0x38>
800033f4:	02a05a63          	blez	a0,80003428 <itoa+0x50>
800033f8:	00000793          	li	a5,0
800033fc:	00f585b3          	add	a1,a1,a5
80003400:	e85ff0ef          	jal	80003284 <uitoa>
80003404:	00c12083          	lw	ra,12(sp)
80003408:	01010113          	addi	sp,sp,16
8000340c:	00008067          	ret
80003410:	02d00793          	li	a5,45
80003414:	00f58023          	sb	a5,0(a1)
80003418:	fff60613          	addi	a2,a2,-1
8000341c:	00100793          	li	a5,1
80003420:	40a00533          	neg	a0,a0
80003424:	fd9ff06f          	j	800033fc <itoa+0x24>
80003428:	00000793          	li	a5,0
8000342c:	ff5ff06f          	j	80003420 <itoa+0x48>
80003430:	00000513          	li	a0,0
80003434:	00008067          	ret
80003438:	00000513          	li	a0,0
8000343c:	00008067          	ret

80003440 <ftoa>:
80003440:	fa010113          	addi	sp,sp,-96
80003444:	04112e23          	sw	ra,92(sp)
80003448:	05312623          	sw	s3,76(sp)
8000344c:	00b12623          	sw	a1,12(sp)
80003450:	00060993          	mv	s3,a2
80003454:	22060e63          	beqz	a2,80003690 <ftoa+0x250>
80003458:	05412423          	sw	s4,72(sp)
8000345c:	03712e23          	sw	s7,60(sp)
80003460:	00050b93          	mv	s7,a0
80003464:	00068a13          	mv	s4,a3
80003468:	00900793          	li	a5,9
8000346c:	22d7f663          	bgeu	a5,a3,80003698 <ftoa+0x258>
80003470:	04812c23          	sw	s0,88(sp)
80003474:	04912a23          	sw	s1,84(sp)
80003478:	05512223          	sw	s5,68(sp)
8000347c:	03812c23          	sw	s8,56(sp)
80003480:	00000593          	li	a1,0
80003484:	071020ef          	jal	80005cf4 <__lesf2>
80003488:	00098493          	mv	s1,s3
8000348c:	0c054463          	bltz	a0,80003554 <ftoa+0x114>
80003490:	000b8513          	mv	a0,s7
80003494:	3d0030ef          	jal	80006864 <__fixunssfsi>
80003498:	00050c13          	mv	s8,a0
8000349c:	0c051863          	bnez	a0,8000356c <ftoa+0x12c>
800034a0:	03000793          	li	a5,48
800034a4:	00f10a23          	sb	a5,20(sp)
800034a8:	00100413          	li	s0,1
800034ac:	01410713          	addi	a4,sp,20
800034b0:	00e40433          	add	s0,s0,a4
800034b4:	fffa0693          	addi	a3,s4,-1
800034b8:	413487b3          	sub	a5,s1,s3
800034bc:	18d7da63          	bge	a5,a3,80003650 <ftoa+0x210>
800034c0:	00148493          	addi	s1,s1,1
800034c4:	fff44783          	lbu	a5,-1(s0)
800034c8:	fef48fa3          	sb	a5,-1(s1)
800034cc:	fff40413          	addi	s0,s0,-1
800034d0:	fee414e3          	bne	s0,a4,800034b8 <ftoa+0x78>
800034d4:	00c12a83          	lw	s5,12(sp)
800034d8:	17505c63          	blez	s5,80003650 <ftoa+0x210>
800034dc:	05612023          	sw	s6,64(sp)
800034e0:	fffa0b13          	addi	s6,s4,-1
800034e4:	413487b3          	sub	a5,s1,s3
800034e8:	1767d263          	bge	a5,s6,8000364c <ftoa+0x20c>
800034ec:	05212823          	sw	s2,80(sp)
800034f0:	00600793          	li	a5,6
800034f4:	0157d463          	bge	a5,s5,800034fc <ftoa+0xbc>
800034f8:	00078a93          	mv	s5,a5
800034fc:	fffac793          	not	a5,s5
80003500:	41f7d793          	srai	a5,a5,0x1f
80003504:	00fafab3          	and	s5,s5,a5
80003508:	00148913          	addi	s2,s1,1
8000350c:	02e00793          	li	a5,46
80003510:	00f48023          	sb	a5,0(s1)
80003514:	000c0513          	mv	a0,s8
80003518:	4e4030ef          	jal	800069fc <__floatunsisf>
8000351c:	00050593          	mv	a1,a0
80003520:	000b8513          	mv	a0,s7
80003524:	4bd020ef          	jal	800061e0 <__subsf3>
80003528:	8000f7b7          	lui	a5,0x8000f
8000352c:	2647a583          	lw	a1,612(a5) # 8000f264 <_erodata+0x654>
80003530:	099020ef          	jal	80005dc8 <__mulsf3>
80003534:	8000f7b7          	lui	a5,0x8000f
80003538:	2707a583          	lw	a1,624(a5) # 8000f270 <_erodata+0x660>
8000353c:	5a1010ef          	jal	800052dc <__addsf3>
80003540:	324030ef          	jal	80006864 <__fixunssfsi>
80003544:	00050493          	mv	s1,a0
80003548:	00000413          	li	s0,0
8000354c:	00a00b93          	li	s7,10
80003550:	0b80006f          	j	80003608 <ftoa+0x1c8>
80003554:	00198493          	addi	s1,s3,1
80003558:	02d00793          	li	a5,45
8000355c:	00f98023          	sb	a5,0(s3)
80003560:	800007b7          	lui	a5,0x80000
80003564:	0177cbb3          	xor	s7,a5,s7
80003568:	f29ff06f          	j	80003490 <ftoa+0x50>
8000356c:	05212823          	sw	s2,80(sp)
80003570:	05612023          	sw	s6,64(sp)
80003574:	03912a23          	sw	s9,52(sp)
80003578:	03a12823          	sw	s10,48(sp)
8000357c:	03b12623          	sw	s11,44(sp)
80003580:	00050913          	mv	s2,a0
80003584:	00000413          	li	s0,0
80003588:	01410d93          	addi	s11,sp,20
8000358c:	00a00a93          	li	s5,10
80003590:	00900d13          	li	s10,9
80003594:	00040c93          	mv	s9,s0
80003598:	00140413          	addi	s0,s0,1
8000359c:	008d8b33          	add	s6,s11,s0
800035a0:	000a8593          	mv	a1,s5
800035a4:	00090513          	mv	a0,s2
800035a8:	0e1030ef          	jal	80006e88 <__umodsi3>
800035ac:	03050513          	addi	a0,a0,48
800035b0:	feab0fa3          	sb	a0,-1(s6)
800035b4:	00090b13          	mv	s6,s2
800035b8:	000a8593          	mv	a1,s5
800035bc:	00090513          	mv	a0,s2
800035c0:	081030ef          	jal	80006e40 <__hidden___udivsi3>
800035c4:	00050913          	mv	s2,a0
800035c8:	fd6d66e3          	bltu	s10,s6,80003594 <ftoa+0x154>
800035cc:	000cce63          	bltz	s9,800035e8 <ftoa+0x1a8>
800035d0:	05012903          	lw	s2,80(sp)
800035d4:	04012b03          	lw	s6,64(sp)
800035d8:	03412c83          	lw	s9,52(sp)
800035dc:	03012d03          	lw	s10,48(sp)
800035e0:	02c12d83          	lw	s11,44(sp)
800035e4:	ec9ff06f          	j	800034ac <ftoa+0x6c>
800035e8:	05012903          	lw	s2,80(sp)
800035ec:	04012b03          	lw	s6,64(sp)
800035f0:	03412c83          	lw	s9,52(sp)
800035f4:	03012d03          	lw	s10,48(sp)
800035f8:	02c12d83          	lw	s11,44(sp)
800035fc:	ed9ff06f          	j	800034d4 <ftoa+0x94>
80003600:	00140413          	addi	s0,s0,1
80003604:	03545c63          	bge	s0,s5,8000363c <ftoa+0x1fc>
80003608:	413907b3          	sub	a5,s2,s3
8000360c:	ff67dae3          	bge	a5,s6,80003600 <ftoa+0x1c0>
80003610:	000b8593          	mv	a1,s7
80003614:	00048513          	mv	a0,s1
80003618:	029030ef          	jal	80006e40 <__hidden___udivsi3>
8000361c:	00050493          	mv	s1,a0
80003620:	00190c13          	addi	s8,s2,1
80003624:	000b8593          	mv	a1,s7
80003628:	061030ef          	jal	80006e88 <__umodsi3>
8000362c:	03050513          	addi	a0,a0,48
80003630:	00a90023          	sb	a0,0(s2)
80003634:	000c0913          	mv	s2,s8
80003638:	fc9ff06f          	j	80003600 <ftoa+0x1c0>
8000363c:	00090493          	mv	s1,s2
80003640:	05012903          	lw	s2,80(sp)
80003644:	04012b03          	lw	s6,64(sp)
80003648:	0080006f          	j	80003650 <ftoa+0x210>
8000364c:	04012b03          	lw	s6,64(sp)
80003650:	413487b3          	sub	a5,s1,s3
80003654:	0147c663          	blt	a5,s4,80003660 <ftoa+0x220>
80003658:	fffa0a13          	addi	s4,s4,-1
8000365c:	014984b3          	add	s1,s3,s4
80003660:	00048023          	sb	zero,0(s1)
80003664:	00098513          	mv	a0,s3
80003668:	05812403          	lw	s0,88(sp)
8000366c:	05412483          	lw	s1,84(sp)
80003670:	04812a03          	lw	s4,72(sp)
80003674:	04412a83          	lw	s5,68(sp)
80003678:	03c12b83          	lw	s7,60(sp)
8000367c:	03812c03          	lw	s8,56(sp)
80003680:	05c12083          	lw	ra,92(sp)
80003684:	04c12983          	lw	s3,76(sp)
80003688:	06010113          	addi	sp,sp,96
8000368c:	00008067          	ret
80003690:	00060513          	mv	a0,a2
80003694:	fedff06f          	j	80003680 <ftoa+0x240>
80003698:	00000513          	li	a0,0
8000369c:	04812a03          	lw	s4,72(sp)
800036a0:	03c12b83          	lw	s7,60(sp)
800036a4:	fddff06f          	j	80003680 <ftoa+0x240>

800036a8 <bzero>:
800036a8:	00b05a63          	blez	a1,800036bc <bzero+0x14>
800036ac:	00b505b3          	add	a1,a0,a1
800036b0:	00150513          	addi	a0,a0,1
800036b4:	fe050fa3          	sb	zero,-1(a0)
800036b8:	feb51ce3          	bne	a0,a1,800036b0 <bzero+0x8>
800036bc:	00008067          	ret

800036c0 <malloc>:
800036c0:	04050063          	beqz	a0,80003700 <malloc+0x40>
800036c4:	ff010113          	addi	sp,sp,-16
800036c8:	00112623          	sw	ra,12(sp)
800036cc:	00812423          	sw	s0,8(sp)
800036d0:	00850413          	addi	s0,a0,8
800036d4:	00040513          	mv	a0,s0
800036d8:	2c0000ef          	jal	80003998 <getmem>
800036dc:	fff00793          	li	a5,-1
800036e0:	02f50463          	beq	a0,a5,80003708 <malloc+0x48>
800036e4:	00a52023          	sw	a0,0(a0)
800036e8:	00852223          	sw	s0,4(a0)
800036ec:	00850513          	addi	a0,a0,8
800036f0:	00c12083          	lw	ra,12(sp)
800036f4:	00812403          	lw	s0,8(sp)
800036f8:	01010113          	addi	sp,sp,16
800036fc:	00008067          	ret
80003700:	00000513          	li	a0,0
80003704:	00008067          	ret
80003708:	00000513          	li	a0,0
8000370c:	fe5ff06f          	j	800036f0 <malloc+0x30>

80003710 <free>:
80003710:	00050863          	beqz	a0,80003720 <free+0x10>
80003714:	ff850793          	addi	a5,a0,-8
80003718:	ff852703          	lw	a4,-8(a0)
8000371c:	00f70463          	beq	a4,a5,80003724 <free+0x14>
80003720:	00008067          	ret
80003724:	ff010113          	addi	sp,sp,-16
80003728:	00112623          	sw	ra,12(sp)
8000372c:	ffc52583          	lw	a1,-4(a0)
80003730:	00078513          	mv	a0,a5
80003734:	124000ef          	jal	80003858 <freemem>
80003738:	00c12083          	lw	ra,12(sp)
8000373c:	01010113          	addi	sp,sp,16
80003740:	00008067          	ret

80003744 <realloc>:
80003744:	ff010113          	addi	sp,sp,-16
80003748:	00112623          	sw	ra,12(sp)
8000374c:	01212023          	sw	s2,0(sp)
80003750:	00000913          	li	s2,0
80003754:	04058263          	beqz	a1,80003798 <realloc+0x54>
80003758:	00812423          	sw	s0,8(sp)
8000375c:	00912223          	sw	s1,4(sp)
80003760:	00050493          	mv	s1,a0
80003764:	00058413          	mv	s0,a1
80003768:	04050263          	beqz	a0,800037ac <realloc+0x68>
8000376c:	00058513          	mv	a0,a1
80003770:	f51ff0ef          	jal	800036c0 <malloc>
80003774:	00050913          	mv	s2,a0
80003778:	04050663          	beqz	a0,800037c4 <realloc+0x80>
8000377c:	00040613          	mv	a2,s0
80003780:	00048593          	mv	a1,s1
80003784:	bb4ff0ef          	jal	80002b38 <memcpy>
80003788:	00048513          	mv	a0,s1
8000378c:	f85ff0ef          	jal	80003710 <free>
80003790:	00812403          	lw	s0,8(sp)
80003794:	00412483          	lw	s1,4(sp)
80003798:	00090513          	mv	a0,s2
8000379c:	00c12083          	lw	ra,12(sp)
800037a0:	00012903          	lw	s2,0(sp)
800037a4:	01010113          	addi	sp,sp,16
800037a8:	00008067          	ret
800037ac:	00058513          	mv	a0,a1
800037b0:	f11ff0ef          	jal	800036c0 <malloc>
800037b4:	00050913          	mv	s2,a0
800037b8:	00812403          	lw	s0,8(sp)
800037bc:	00412483          	lw	s1,4(sp)
800037c0:	fd9ff06f          	j	80003798 <realloc+0x54>
800037c4:	00812403          	lw	s0,8(sp)
800037c8:	00412483          	lw	s1,4(sp)
800037cc:	fcdff06f          	j	80003798 <realloc+0x54>

800037d0 <calloc>:
800037d0:	ff010113          	addi	sp,sp,-16
800037d4:	00112623          	sw	ra,12(sp)
800037d8:	00812423          	sw	s0,8(sp)
800037dc:	00912223          	sw	s1,4(sp)
800037e0:	634030ef          	jal	80006e14 <__mulsi3>
800037e4:	00050493          	mv	s1,a0
800037e8:	ed9ff0ef          	jal	800036c0 <malloc>
800037ec:	00050413          	mv	s0,a0
800037f0:	00050863          	beqz	a0,80003800 <calloc+0x30>
800037f4:	00048613          	mv	a2,s1
800037f8:	00000593          	li	a1,0
800037fc:	b24ff0ef          	jal	80002b20 <memset>
80003800:	00040513          	mv	a0,s0
80003804:	00c12083          	lw	ra,12(sp)
80003808:	00812403          	lw	s0,8(sp)
8000380c:	00412483          	lw	s1,4(sp)
80003810:	01010113          	addi	sp,sp,16
80003814:	00008067          	ret

80003818 <meminit>:
80003818:	80011637          	lui	a2,0x80011
8000381c:	e4060693          	addi	a3,a2,-448 # 80010e40 <_end>
80003820:	800327b7          	lui	a5,0x80032
80003824:	00d7a823          	sw	a3,16(a5) # 80032010 <minheap>
80003828:	800327b7          	lui	a5,0x80032
8000382c:	80078793          	addi	a5,a5,-2048 # 80031800 <__global_pointer$+0x1fa40>
80003830:	80032737          	lui	a4,0x80032
80003834:	00f72623          	sw	a5,12(a4) # 8003200c <maxheap>
80003838:	80032737          	lui	a4,0x80032
8000383c:	00070713          	mv	a4,a4
80003840:	00d72023          	sw	a3,0(a4) # 80032000 <memlist>
80003844:	e4062023          	sw	zero,-448(a2)
80003848:	40d787b3          	sub	a5,a5,a3
8000384c:	00f6a223          	sw	a5,4(a3)
80003850:	00f72223          	sw	a5,4(a4)
80003854:	00008067          	ret

80003858 <freemem>:
80003858:	ff010113          	addi	sp,sp,-16
8000385c:	00112623          	sw	ra,12(sp)
80003860:	00812423          	sw	s0,8(sp)
80003864:	00912223          	sw	s1,4(sp)
80003868:	00050413          	mv	s0,a0
8000386c:	00058493          	mv	s1,a1
80003870:	845fc0ef          	jal	800000b4 <disable>
80003874:	04048a63          	beqz	s1,800038c8 <freemem+0x70>
80003878:	00040613          	mv	a2,s0
8000387c:	800327b7          	lui	a5,0x80032
80003880:	0107a783          	lw	a5,16(a5) # 80032010 <minheap>
80003884:	04f46263          	bltu	s0,a5,800038c8 <freemem+0x70>
80003888:	800327b7          	lui	a5,0x80032
8000388c:	00c7a783          	lw	a5,12(a5) # 8003200c <maxheap>
80003890:	0287ec63          	bltu	a5,s0,800038c8 <freemem+0x70>
80003894:	00748493          	addi	s1,s1,7
80003898:	ff84f493          	andi	s1,s1,-8
8000389c:	800327b7          	lui	a5,0x80032
800038a0:	0007a783          	lw	a5,0(a5) # 80032000 <memlist>
800038a4:	800326b7          	lui	a3,0x80032
800038a8:	00068693          	mv	a3,a3
800038ac:	02078c63          	beqz	a5,800038e4 <freemem+0x8c>
800038b0:	0487f463          	bgeu	a5,s0,800038f8 <freemem+0xa0>
800038b4:	0007a703          	lw	a4,0(a5)
800038b8:	00078693          	mv	a3,a5
800038bc:	02070c63          	beqz	a4,800038f4 <freemem+0x9c>
800038c0:	00070793          	mv	a5,a4
800038c4:	fedff06f          	j	800038b0 <freemem+0x58>
800038c8:	ff4fc0ef          	jal	800000bc <restore>
800038cc:	fff00513          	li	a0,-1
800038d0:	00c12083          	lw	ra,12(sp)
800038d4:	00812403          	lw	s0,8(sp)
800038d8:	00412483          	lw	s1,4(sp)
800038dc:	01010113          	addi	sp,sp,16
800038e0:	00008067          	ret
800038e4:	800326b7          	lui	a3,0x80032
800038e8:	00068693          	mv	a3,a3
800038ec:	00000713          	li	a4,0
800038f0:	02c0006f          	j	8000391c <freemem+0xc4>
800038f4:	00070793          	mv	a5,a4
800038f8:	80032737          	lui	a4,0x80032
800038fc:	00070713          	mv	a4,a4
80003900:	04e68c63          	beq	a3,a4,80003958 <freemem+0x100>
80003904:	0046a703          	lw	a4,4(a3) # 80032004 <memlist+0x4>
80003908:	00e68733          	add	a4,a3,a4
8000390c:	04e66a63          	bltu	a2,a4,80003960 <freemem+0x108>
80003910:	00078663          	beqz	a5,8000391c <freemem+0xc4>
80003914:	009605b3          	add	a1,a2,s1
80003918:	04b7e463          	bltu	a5,a1,80003960 <freemem+0x108>
8000391c:	800325b7          	lui	a1,0x80032
80003920:	00058593          	mv	a1,a1
80003924:	0045a803          	lw	a6,4(a1) # 80032004 <memlist+0x4>
80003928:	00980833          	add	a6,a6,s1
8000392c:	0105a223          	sw	a6,4(a1)
80003930:	02e60e63          	beq	a2,a4,8000396c <freemem+0x114>
80003934:	00f42023          	sw	a5,0(s0)
80003938:	00942223          	sw	s1,4(s0)
8000393c:	0086a023          	sw	s0,0(a3)
80003940:	00442703          	lw	a4,4(s0)
80003944:	00e406b3          	add	a3,s0,a4
80003948:	02d78c63          	beq	a5,a3,80003980 <freemem+0x128>
8000394c:	f70fc0ef          	jal	800000bc <restore>
80003950:	00100513          	li	a0,1
80003954:	f7dff06f          	j	800038d0 <freemem+0x78>
80003958:	00000713          	li	a4,0
8000395c:	fb5ff06f          	j	80003910 <freemem+0xb8>
80003960:	f5cfc0ef          	jal	800000bc <restore>
80003964:	fff00513          	li	a0,-1
80003968:	f69ff06f          	j	800038d0 <freemem+0x78>
8000396c:	0046a703          	lw	a4,4(a3)
80003970:	00970733          	add	a4,a4,s1
80003974:	00e6a223          	sw	a4,4(a3)
80003978:	00068413          	mv	s0,a3
8000397c:	fc5ff06f          	j	80003940 <freemem+0xe8>
80003980:	0047a683          	lw	a3,4(a5)
80003984:	00e68733          	add	a4,a3,a4
80003988:	00e42223          	sw	a4,4(s0)
8000398c:	0007a783          	lw	a5,0(a5)
80003990:	00f42023          	sw	a5,0(s0)
80003994:	fb9ff06f          	j	8000394c <freemem+0xf4>

80003998 <getmem>:
80003998:	ff010113          	addi	sp,sp,-16
8000399c:	00112623          	sw	ra,12(sp)
800039a0:	00812423          	sw	s0,8(sp)
800039a4:	00050413          	mv	s0,a0
800039a8:	f0cfc0ef          	jal	800000b4 <disable>
800039ac:	02040063          	beqz	s0,800039cc <getmem+0x34>
800039b0:	00740793          	addi	a5,s0,7
800039b4:	ff87f793          	andi	a5,a5,-8
800039b8:	80032737          	lui	a4,0x80032
800039bc:	00072403          	lw	s0,0(a4) # 80032000 <memlist>
800039c0:	02040a63          	beqz	s0,800039f4 <getmem+0x5c>
800039c4:	00070693          	mv	a3,a4
800039c8:	0140006f          	j	800039dc <getmem+0x44>
800039cc:	ef0fc0ef          	jal	800000bc <restore>
800039d0:	fff00413          	li	s0,-1
800039d4:	0280006f          	j	800039fc <getmem+0x64>
800039d8:	00070413          	mv	s0,a4
800039dc:	00442703          	lw	a4,4(s0)
800039e0:	02f70863          	beq	a4,a5,80003a10 <getmem+0x78>
800039e4:	04e7e863          	bltu	a5,a4,80003a34 <getmem+0x9c>
800039e8:	00042703          	lw	a4,0(s0)
800039ec:	00040693          	mv	a3,s0
800039f0:	fe0714e3          	bnez	a4,800039d8 <getmem+0x40>
800039f4:	ec8fc0ef          	jal	800000bc <restore>
800039f8:	fff00413          	li	s0,-1
800039fc:	00040513          	mv	a0,s0
80003a00:	00c12083          	lw	ra,12(sp)
80003a04:	00812403          	lw	s0,8(sp)
80003a08:	01010113          	addi	sp,sp,16
80003a0c:	00008067          	ret
80003a10:	00042703          	lw	a4,0(s0)
80003a14:	00e6a023          	sw	a4,0(a3)
80003a18:	80032737          	lui	a4,0x80032
80003a1c:	00070713          	mv	a4,a4
80003a20:	00472683          	lw	a3,4(a4) # 80032004 <memlist+0x4>
80003a24:	40f687b3          	sub	a5,a3,a5
80003a28:	00f72223          	sw	a5,4(a4)
80003a2c:	e90fc0ef          	jal	800000bc <restore>
80003a30:	fcdff06f          	j	800039fc <getmem+0x64>
80003a34:	00f40733          	add	a4,s0,a5
80003a38:	00e6a023          	sw	a4,0(a3)
80003a3c:	00042683          	lw	a3,0(s0)
80003a40:	00d72023          	sw	a3,0(a4)
80003a44:	00442683          	lw	a3,4(s0)
80003a48:	40f686b3          	sub	a3,a3,a5
80003a4c:	00d72223          	sw	a3,4(a4)
80003a50:	80032737          	lui	a4,0x80032
80003a54:	00070713          	mv	a4,a4
80003a58:	00472683          	lw	a3,4(a4) # 80032004 <memlist+0x4>
80003a5c:	40f687b3          	sub	a5,a3,a5
80003a60:	00f72223          	sw	a5,4(a4)
80003a64:	e58fc0ef          	jal	800000bc <restore>
80003a68:	f95ff06f          	j	800039fc <getmem+0x64>

80003a6c <getstk>:
80003a6c:	ff010113          	addi	sp,sp,-16
80003a70:	00112623          	sw	ra,12(sp)
80003a74:	00812423          	sw	s0,8(sp)
80003a78:	00050413          	mv	s0,a0
80003a7c:	e38fc0ef          	jal	800000b4 <disable>
80003a80:	02040863          	beqz	s0,80003ab0 <getstk+0x44>
80003a84:	00740413          	addi	s0,s0,7
80003a88:	ff847413          	andi	s0,s0,-8
80003a8c:	800327b7          	lui	a5,0x80032
80003a90:	0007a783          	lw	a5,0(a5) # 80032000 <memlist>
80003a94:	08078e63          	beqz	a5,80003b30 <getstk+0xc4>
80003a98:	00912223          	sw	s1,4(sp)
80003a9c:	00000613          	li	a2,0
80003aa0:	00000493          	li	s1,0
80003aa4:	800326b7          	lui	a3,0x80032
80003aa8:	00068693          	mv	a3,a3
80003aac:	0200006f          	j	80003acc <getstk+0x60>
80003ab0:	e0cfc0ef          	jal	800000bc <restore>
80003ab4:	fff00513          	li	a0,-1
80003ab8:	0640006f          	j	80003b1c <getstk+0xb0>
80003abc:	0007a703          	lw	a4,0(a5)
80003ac0:	00078693          	mv	a3,a5
80003ac4:	00070e63          	beqz	a4,80003ae0 <getstk+0x74>
80003ac8:	00070793          	mv	a5,a4
80003acc:	0047a703          	lw	a4,4(a5)
80003ad0:	fe8766e3          	bltu	a4,s0,80003abc <getstk+0x50>
80003ad4:	00068613          	mv	a2,a3
80003ad8:	00078493          	mv	s1,a5
80003adc:	fe1ff06f          	j	80003abc <getstk+0x50>
80003ae0:	04048663          	beqz	s1,80003b2c <getstk+0xc0>
80003ae4:	0044a783          	lw	a5,4(s1)
80003ae8:	04878a63          	beq	a5,s0,80003b3c <getstk+0xd0>
80003aec:	408787b3          	sub	a5,a5,s0
80003af0:	00f4a223          	sw	a5,4(s1)
80003af4:	00f484b3          	add	s1,s1,a5
80003af8:	800327b7          	lui	a5,0x80032
80003afc:	00078793          	mv	a5,a5
80003b00:	0047a703          	lw	a4,4(a5) # 80032004 <memlist+0x4>
80003b04:	40870733          	sub	a4,a4,s0
80003b08:	00e7a223          	sw	a4,4(a5)
80003b0c:	db0fc0ef          	jal	800000bc <restore>
80003b10:	ffc40413          	addi	s0,s0,-4
80003b14:	00848533          	add	a0,s1,s0
80003b18:	00412483          	lw	s1,4(sp)
80003b1c:	00c12083          	lw	ra,12(sp)
80003b20:	00812403          	lw	s0,8(sp)
80003b24:	01010113          	addi	sp,sp,16
80003b28:	00008067          	ret
80003b2c:	00412483          	lw	s1,4(sp)
80003b30:	d8cfc0ef          	jal	800000bc <restore>
80003b34:	fff00513          	li	a0,-1
80003b38:	fe5ff06f          	j	80003b1c <getstk+0xb0>
80003b3c:	0004a783          	lw	a5,0(s1)
80003b40:	00f62023          	sw	a5,0(a2)
80003b44:	fb5ff06f          	j	80003af8 <getstk+0x8c>

80003b48 <heap_free>:
80003b48:	800327b7          	lui	a5,0x80032
80003b4c:	0007a783          	lw	a5,0(a5) # 80032000 <memlist>
80003b50:	00078e63          	beqz	a5,80003b6c <heap_free+0x24>
80003b54:	00000513          	li	a0,0
80003b58:	0047a703          	lw	a4,4(a5)
80003b5c:	00e50533          	add	a0,a0,a4
80003b60:	0007a783          	lw	a5,0(a5)
80003b64:	fe079ae3          	bnez	a5,80003b58 <heap_free+0x10>
80003b68:	00008067          	ret
80003b6c:	00000513          	li	a0,0
80003b70:	00008067          	ret

80003b74 <kputc>:
80003b74:	ff010113          	addi	sp,sp,-16
80003b78:	00112623          	sw	ra,12(sp)
80003b7c:	00812423          	sw	s0,8(sp)
80003b80:	00050413          	mv	s0,a0
80003b84:	00a00793          	li	a5,10
80003b88:	02f50263          	beq	a0,a5,80003bac <kputc+0x38>
80003b8c:	02c00893          	li	a7,44
80003b90:	00040513          	mv	a0,s0
80003b94:	00000073          	ecall
80003b98:	00000513          	li	a0,0
80003b9c:	00c12083          	lw	ra,12(sp)
80003ba0:	00812403          	lw	s0,8(sp)
80003ba4:	01010113          	addi	sp,sp,16
80003ba8:	00008067          	ret
80003bac:	00d00513          	li	a0,13
80003bb0:	fc5ff0ef          	jal	80003b74 <kputc>
80003bb4:	fd9ff06f          	j	80003b8c <kputc+0x18>

80003bb8 <sprntf>:
80003bb8:	00052783          	lw	a5,0(a0)
80003bbc:	00178713          	addi	a4,a5,1
80003bc0:	00e52023          	sw	a4,0(a0)
80003bc4:	00b78023          	sb	a1,0(a5)
80003bc8:	0ff5f513          	zext.b	a0,a1
80003bcc:	00008067          	ret

80003bd0 <putchar>:
80003bd0:	ff010113          	addi	sp,sp,-16
80003bd4:	00112623          	sw	ra,12(sp)
80003bd8:	00812423          	sw	s0,8(sp)
80003bdc:	00050413          	mv	s0,a0
80003be0:	00a00793          	li	a5,10
80003be4:	02f50063          	beq	a0,a5,80003c04 <putchar+0x34>
80003be8:	003007b7          	lui	a5,0x300
80003bec:	0087a023          	sw	s0,0(a5) # 300000 <_start-0x7fd00000>
80003bf0:	00000513          	li	a0,0
80003bf4:	00c12083          	lw	ra,12(sp)
80003bf8:	00812403          	lw	s0,8(sp)
80003bfc:	01010113          	addi	sp,sp,16
80003c00:	00008067          	ret
80003c04:	00d00513          	li	a0,13
80003c08:	fc9ff0ef          	jal	80003bd0 <putchar>
80003c0c:	fddff06f          	j	80003be8 <putchar+0x18>

80003c10 <printf>:
80003c10:	fc010113          	addi	sp,sp,-64
80003c14:	00112e23          	sw	ra,28(sp)
80003c18:	02b12223          	sw	a1,36(sp)
80003c1c:	02c12423          	sw	a2,40(sp)
80003c20:	02d12623          	sw	a3,44(sp)
80003c24:	02e12823          	sw	a4,48(sp)
80003c28:	02f12a23          	sw	a5,52(sp)
80003c2c:	03012c23          	sw	a6,56(sp)
80003c30:	03112e23          	sw	a7,60(sp)
80003c34:	02410593          	addi	a1,sp,36
80003c38:	00b12623          	sw	a1,12(sp)
80003c3c:	80004637          	lui	a2,0x80004
80003c40:	b7460613          	addi	a2,a2,-1164 # 80003b74 <kputc>
80003c44:	901fe0ef          	jal	80002544 <_doprnt>
80003c48:	00000513          	li	a0,0
80003c4c:	01c12083          	lw	ra,28(sp)
80003c50:	04010113          	addi	sp,sp,64
80003c54:	00008067          	ret

80003c58 <sprintf>:
80003c58:	fc010113          	addi	sp,sp,-64
80003c5c:	00112e23          	sw	ra,28(sp)
80003c60:	00812c23          	sw	s0,24(sp)
80003c64:	00050413          	mv	s0,a0
80003c68:	00058513          	mv	a0,a1
80003c6c:	02c12423          	sw	a2,40(sp)
80003c70:	02d12623          	sw	a3,44(sp)
80003c74:	02e12823          	sw	a4,48(sp)
80003c78:	02f12a23          	sw	a5,52(sp)
80003c7c:	03012c23          	sw	a6,56(sp)
80003c80:	03112e23          	sw	a7,60(sp)
80003c84:	00812423          	sw	s0,8(sp)
80003c88:	02810593          	addi	a1,sp,40
80003c8c:	00b12623          	sw	a1,12(sp)
80003c90:	00810693          	addi	a3,sp,8
80003c94:	80004637          	lui	a2,0x80004
80003c98:	bb860613          	addi	a2,a2,-1096 # 80003bb8 <sprntf>
80003c9c:	aa0fe0ef          	jal	80001f3c <_fdoprnt>
80003ca0:	00812783          	lw	a5,8(sp)
80003ca4:	00078023          	sb	zero,0(a5)
80003ca8:	00040513          	mv	a0,s0
80003cac:	01c12083          	lw	ra,28(sp)
80003cb0:	01812403          	lw	s0,24(sp)
80003cb4:	04010113          	addi	sp,sp,64
80003cb8:	00008067          	ret

80003cbc <hexDump2>:
80003cbc:	fb010113          	addi	sp,sp,-80
80003cc0:	04112623          	sw	ra,76(sp)
80003cc4:	14c05a63          	blez	a2,80003e18 <hexDump2+0x15c>
80003cc8:	04812423          	sw	s0,72(sp)
80003ccc:	04912223          	sw	s1,68(sp)
80003cd0:	05212023          	sw	s2,64(sp)
80003cd4:	03312e23          	sw	s3,60(sp)
80003cd8:	03412c23          	sw	s4,56(sp)
80003cdc:	03512a23          	sw	s5,52(sp)
80003ce0:	03612823          	sw	s6,48(sp)
80003ce4:	03712623          	sw	s7,44(sp)
80003ce8:	03812423          	sw	s8,40(sp)
80003cec:	03912223          	sw	s9,36(sp)
80003cf0:	00050a93          	mv	s5,a0
80003cf4:	00060913          	mv	s2,a2
80003cf8:	00058493          	mv	s1,a1
80003cfc:	00000413          	li	s0,0
80003d00:	80008bb7          	lui	s7,0x80008
80003d04:	00c10c93          	addi	s9,sp,12
80003d08:	80008c37          	lui	s8,0x80008
80003d0c:	80008a37          	lui	s4,0x80008
80003d10:	05e00993          	li	s3,94
80003d14:	02e00b13          	li	s6,46
80003d18:	0780006f          	j	80003d90 <hexDump2+0xd4>
80003d1c:	015405b3          	add	a1,s0,s5
80003d20:	da8b8513          	addi	a0,s7,-600 # 80007da8 <_PROCEDURE_LINKAGE_TABLE_+0xe28>
80003d24:	eedff0ef          	jal	80003c10 <printf>
80003d28:	0004c583          	lbu	a1,0(s1)
80003d2c:	db0a0513          	addi	a0,s4,-592 # 80007db0 <_PROCEDURE_LINKAGE_TABLE_+0xe30>
80003d30:	ee1ff0ef          	jal	80003c10 <printf>
80003d34:	0004c703          	lbu	a4,0(s1)
80003d38:	fe070793          	addi	a5,a4,-32
80003d3c:	0ff7f793          	zext.b	a5,a5
80003d40:	06f9f663          	bgeu	s3,a5,80003dac <hexDump2+0xf0>
80003d44:	41f45713          	srai	a4,s0,0x1f
80003d48:	01c75713          	srli	a4,a4,0x1c
80003d4c:	00e407b3          	add	a5,s0,a4
80003d50:	00f7f793          	andi	a5,a5,15
80003d54:	40e787b3          	sub	a5,a5,a4
80003d58:	02078793          	addi	a5,a5,32
80003d5c:	002787b3          	add	a5,a5,sp
80003d60:	ff678623          	sb	s6,-20(a5)
80003d64:	41f45713          	srai	a4,s0,0x1f
80003d68:	01c75713          	srli	a4,a4,0x1c
80003d6c:	00e407b3          	add	a5,s0,a4
80003d70:	00f7f793          	andi	a5,a5,15
80003d74:	40e787b3          	sub	a5,a5,a4
80003d78:	02078793          	addi	a5,a5,32
80003d7c:	002787b3          	add	a5,a5,sp
80003d80:	fe0786a3          	sb	zero,-19(a5)
80003d84:	00140413          	addi	s0,s0,1
80003d88:	00148493          	addi	s1,s1,1
80003d8c:	04890263          	beq	s2,s0,80003dd0 <hexDump2+0x114>
80003d90:	00f47793          	andi	a5,s0,15
80003d94:	f8079ae3          	bnez	a5,80003d28 <hexDump2+0x6c>
80003d98:	f80402e3          	beqz	s0,80003d1c <hexDump2+0x60>
80003d9c:	000c8593          	mv	a1,s9
80003da0:	da0c0513          	addi	a0,s8,-608 # 80007da0 <_PROCEDURE_LINKAGE_TABLE_+0xe20>
80003da4:	e6dff0ef          	jal	80003c10 <printf>
80003da8:	f75ff06f          	j	80003d1c <hexDump2+0x60>
80003dac:	41f45693          	srai	a3,s0,0x1f
80003db0:	01c6d693          	srli	a3,a3,0x1c
80003db4:	00d407b3          	add	a5,s0,a3
80003db8:	00f7f793          	andi	a5,a5,15
80003dbc:	40d787b3          	sub	a5,a5,a3
80003dc0:	02078793          	addi	a5,a5,32
80003dc4:	002787b3          	add	a5,a5,sp
80003dc8:	fee78623          	sb	a4,-20(a5)
80003dcc:	f99ff06f          	j	80003d64 <hexDump2+0xa8>
80003dd0:	00f47793          	andi	a5,s0,15
80003dd4:	06078063          	beqz	a5,80003e34 <hexDump2+0x178>
80003dd8:	800084b7          	lui	s1,0x80008
80003ddc:	db848513          	addi	a0,s1,-584 # 80007db8 <_PROCEDURE_LINKAGE_TABLE_+0xe38>
80003de0:	e31ff0ef          	jal	80003c10 <printf>
80003de4:	00140413          	addi	s0,s0,1
80003de8:	00f47793          	andi	a5,s0,15
80003dec:	fe0798e3          	bnez	a5,80003ddc <hexDump2+0x120>
80003df0:	04812403          	lw	s0,72(sp)
80003df4:	04412483          	lw	s1,68(sp)
80003df8:	04012903          	lw	s2,64(sp)
80003dfc:	03c12983          	lw	s3,60(sp)
80003e00:	03812a03          	lw	s4,56(sp)
80003e04:	03412a83          	lw	s5,52(sp)
80003e08:	03012b03          	lw	s6,48(sp)
80003e0c:	02c12b83          	lw	s7,44(sp)
80003e10:	02812c03          	lw	s8,40(sp)
80003e14:	02412c83          	lw	s9,36(sp)
80003e18:	00c10593          	addi	a1,sp,12
80003e1c:	80008537          	lui	a0,0x80008
80003e20:	da050513          	addi	a0,a0,-608 # 80007da0 <_PROCEDURE_LINKAGE_TABLE_+0xe20>
80003e24:	dedff0ef          	jal	80003c10 <printf>
80003e28:	04c12083          	lw	ra,76(sp)
80003e2c:	05010113          	addi	sp,sp,80
80003e30:	00008067          	ret
80003e34:	04812403          	lw	s0,72(sp)
80003e38:	04412483          	lw	s1,68(sp)
80003e3c:	04012903          	lw	s2,64(sp)
80003e40:	03c12983          	lw	s3,60(sp)
80003e44:	03812a03          	lw	s4,56(sp)
80003e48:	03412a83          	lw	s5,52(sp)
80003e4c:	03012b03          	lw	s6,48(sp)
80003e50:	02c12b83          	lw	s7,44(sp)
80003e54:	02812c03          	lw	s8,40(sp)
80003e58:	02412c83          	lw	s9,36(sp)
80003e5c:	fbdff06f          	j	80003e18 <hexDump2+0x15c>

80003e60 <qsexc>:
80003e60:	800327b7          	lui	a5,0x80032
80003e64:	0147a683          	lw	a3,20(a5) # 80032014 <qses>
80003e68:	00d506b3          	add	a3,a0,a3
80003e6c:	00054783          	lbu	a5,0(a0)
80003e70:	00150513          	addi	a0,a0,1
80003e74:	0005c703          	lbu	a4,0(a1)
80003e78:	fee50fa3          	sb	a4,-1(a0)
80003e7c:	00158593          	addi	a1,a1,1
80003e80:	fef58fa3          	sb	a5,-1(a1)
80003e84:	fed514e3          	bne	a0,a3,80003e6c <qsexc+0xc>
80003e88:	00008067          	ret

80003e8c <qstexc>:
80003e8c:	800327b7          	lui	a5,0x80032
80003e90:	0147a683          	lw	a3,20(a5) # 80032014 <qses>
80003e94:	00d506b3          	add	a3,a0,a3
80003e98:	00054783          	lbu	a5,0(a0)
80003e9c:	00150513          	addi	a0,a0,1
80003ea0:	00064703          	lbu	a4,0(a2)
80003ea4:	fee50fa3          	sb	a4,-1(a0)
80003ea8:	00160613          	addi	a2,a2,1
80003eac:	0005c703          	lbu	a4,0(a1)
80003eb0:	fee60fa3          	sb	a4,-1(a2)
80003eb4:	00158593          	addi	a1,a1,1
80003eb8:	fef58fa3          	sb	a5,-1(a1)
80003ebc:	fcd51ee3          	bne	a0,a3,80003e98 <qstexc+0xc>
80003ec0:	00008067          	ret

80003ec4 <qs1>:
80003ec4:	fd010113          	addi	sp,sp,-48
80003ec8:	02112623          	sw	ra,44(sp)
80003ecc:	01512a23          	sw	s5,20(sp)
80003ed0:	01712623          	sw	s7,12(sp)
80003ed4:	00050b93          	mv	s7,a0
80003ed8:	800327b7          	lui	a5,0x80032
80003edc:	0147aa83          	lw	s5,20(a5) # 80032014 <qses>
80003ee0:	40a58533          	sub	a0,a1,a0
80003ee4:	06aaf263          	bgeu	s5,a0,80003f48 <qs1+0x84>
80003ee8:	02812423          	sw	s0,40(sp)
80003eec:	02912223          	sw	s1,36(sp)
80003ef0:	03212023          	sw	s2,32(sp)
80003ef4:	01312e23          	sw	s3,28(sp)
80003ef8:	01412c23          	sw	s4,24(sp)
80003efc:	01612823          	sw	s6,16(sp)
80003f00:	01812423          	sw	s8,8(sp)
80003f04:	01912223          	sw	s9,4(sp)
80003f08:	01a12023          	sw	s10,0(sp)
80003f0c:	00058c13          	mv	s8,a1
80003f10:	000a8d13          	mv	s10,s5
80003f14:	001a9c93          	slli	s9,s5,0x1
80003f18:	41500b33          	neg	s6,s5
80003f1c:	80032a37          	lui	s4,0x80032
80003f20:	13c0006f          	j	8000405c <qs1+0x198>
80003f24:	02812403          	lw	s0,40(sp)
80003f28:	02412483          	lw	s1,36(sp)
80003f2c:	02012903          	lw	s2,32(sp)
80003f30:	01c12983          	lw	s3,28(sp)
80003f34:	01812a03          	lw	s4,24(sp)
80003f38:	01012b03          	lw	s6,16(sp)
80003f3c:	00812c03          	lw	s8,8(sp)
80003f40:	00412c83          	lw	s9,4(sp)
80003f44:	00012d03          	lw	s10,0(sp)
80003f48:	02c12083          	lw	ra,44(sp)
80003f4c:	01412a83          	lw	s5,20(sp)
80003f50:	00c12b83          	lw	s7,12(sp)
80003f54:	03010113          	addi	sp,sp,48
80003f58:	00008067          	ret
80003f5c:	016989b3          	add	s3,s3,s6
80003f60:	00098593          	mv	a1,s3
80003f64:	00048513          	mv	a0,s1
80003f68:	ef9ff0ef          	jal	80003e60 <qsexc>
80003f6c:	0a40006f          	j	80004010 <qs1+0x14c>
80003f70:	06896863          	bltu	s2,s0,80003fe0 <qs1+0x11c>
80003f74:	0d348063          	beq	s1,s3,80004034 <qs1+0x170>
80003f78:	016989b3          	add	s3,s3,s6
80003f7c:	00048613          	mv	a2,s1
80003f80:	00098593          	mv	a1,s3
80003f84:	00040513          	mv	a0,s0
80003f88:	f05ff0ef          	jal	80003e8c <qstexc>
80003f8c:	01690433          	add	s0,s2,s6
80003f90:	00040913          	mv	s2,s0
80003f94:	07c0006f          	j	80004010 <qs1+0x14c>
80003f98:	015484b3          	add	s1,s1,s5
80003f9c:	0740006f          	j	80004010 <qs1+0x14c>
80003fa0:	01590933          	add	s2,s2,s5
80003fa4:	00040593          	mv	a1,s0
80003fa8:	00090513          	mv	a0,s2
80003fac:	eb5ff0ef          	jal	80003e60 <qsexc>
80003fb0:	02c0006f          	j	80003fdc <qs1+0x118>
80003fb4:	01590933          	add	s2,s2,s5
80003fb8:	00040613          	mv	a2,s0
80003fbc:	00090593          	mv	a1,s2
80003fc0:	00048513          	mv	a0,s1
80003fc4:	ec9ff0ef          	jal	80003e8c <qstexc>
80003fc8:	015984b3          	add	s1,s3,s5
80003fcc:	06897663          	bgeu	s2,s0,80004038 <qs1+0x174>
80003fd0:	00048993          	mv	s3,s1
80003fd4:	00c0006f          	j	80003fe0 <qs1+0x11c>
80003fd8:	01640433          	add	s0,s0,s6
80003fdc:	f8897ce3          	bgeu	s2,s0,80003f74 <qs1+0xb0>
80003fe0:	018a2783          	lw	a5,24(s4) # 80032018 <qscmp>
80003fe4:	00040593          	mv	a1,s0
80003fe8:	00090513          	mv	a0,s2
80003fec:	000780e7          	jalr	a5
80003ff0:	fa0508e3          	beqz	a0,80003fa0 <qs1+0xdc>
80003ff4:	fea052e3          	blez	a0,80003fd8 <qs1+0x114>
80003ff8:	fb348ee3          	beq	s1,s3,80003fb4 <qs1+0xf0>
80003ffc:	00040593          	mv	a1,s0
80004000:	00048513          	mv	a0,s1
80004004:	e5dff0ef          	jal	80003e60 <qsexc>
80004008:	01640433          	add	s0,s0,s6
8000400c:	015484b3          	add	s1,s1,s5
80004010:	f734f0e3          	bgeu	s1,s3,80003f70 <qs1+0xac>
80004014:	018a2783          	lw	a5,24(s4)
80004018:	00098593          	mv	a1,s3
8000401c:	00048513          	mv	a0,s1
80004020:	000780e7          	jalr	a5
80004024:	f2050ce3          	beqz	a0,80003f5c <qs1+0x98>
80004028:	f60548e3          	bltz	a0,80003f98 <qs1+0xd4>
8000402c:	fa896ae3          	bltu	s2,s0,80003fe0 <qs1+0x11c>
80004030:	f49ff06f          	j	80003f78 <qs1+0xb4>
80004034:	00098493          	mv	s1,s3
80004038:	417487b3          	sub	a5,s1,s7
8000403c:	412c0733          	sub	a4,s8,s2
80004040:	04e7c063          	blt	a5,a4,80004080 <qs1+0x1bc>
80004044:	000c0593          	mv	a1,s8
80004048:	01590533          	add	a0,s2,s5
8000404c:	e79ff0ef          	jal	80003ec4 <qs1>
80004050:	00048c13          	mv	s8,s1
80004054:	417c0533          	sub	a0,s8,s7
80004058:	ecad76e3          	bgeu	s10,a0,80003f24 <qs1+0x60>
8000405c:	000c8593          	mv	a1,s9
80004060:	5e1020ef          	jal	80006e40 <__hidden___udivsi3>
80004064:	000a8593          	mv	a1,s5
80004068:	5ad020ef          	jal	80006e14 <__mulsi3>
8000406c:	00ab89b3          	add	s3,s7,a0
80004070:	016c0433          	add	s0,s8,s6
80004074:	00098913          	mv	s2,s3
80004078:	000b8493          	mv	s1,s7
8000407c:	f95ff06f          	j	80004010 <qs1+0x14c>
80004080:	00048593          	mv	a1,s1
80004084:	000b8513          	mv	a0,s7
80004088:	e3dff0ef          	jal	80003ec4 <qs1>
8000408c:	01590bb3          	add	s7,s2,s5
80004090:	fc5ff06f          	j	80004054 <qs1+0x190>

80004094 <qsort>:
80004094:	ff010113          	addi	sp,sp,-16
80004098:	00112623          	sw	ra,12(sp)
8000409c:	00812423          	sw	s0,8(sp)
800040a0:	00050413          	mv	s0,a0
800040a4:	00060513          	mv	a0,a2
800040a8:	800327b7          	lui	a5,0x80032
800040ac:	00d7ac23          	sw	a3,24(a5) # 80032018 <qscmp>
800040b0:	800327b7          	lui	a5,0x80032
800040b4:	00c7aa23          	sw	a2,20(a5) # 80032014 <qses>
800040b8:	55d020ef          	jal	80006e14 <__mulsi3>
800040bc:	00a405b3          	add	a1,s0,a0
800040c0:	00040513          	mv	a0,s0
800040c4:	e01ff0ef          	jal	80003ec4 <qs1>
800040c8:	00c12083          	lw	ra,12(sp)
800040cc:	00812403          	lw	s0,8(sp)
800040d0:	01010113          	addi	sp,sp,16
800040d4:	00008067          	ret

800040d8 <rand>:
800040d8:	ff010113          	addi	sp,sp,-16
800040dc:	00112623          	sw	ra,12(sp)
800040e0:	00812423          	sw	s0,8(sp)
800040e4:	80011437          	lui	s0,0x80011
800040e8:	dc442683          	lw	a3,-572(s0) # 80010dc4 <rand_seed>
800040ec:	00269713          	slli	a4,a3,0x2
800040f0:	00d70733          	add	a4,a4,a3
800040f4:	00471793          	slli	a5,a4,0x4
800040f8:	40e787b3          	sub	a5,a5,a4
800040fc:	00579793          	slli	a5,a5,0x5
80004100:	00d787b3          	add	a5,a5,a3
80004104:	00379513          	slli	a0,a5,0x3
80004108:	800005b7          	lui	a1,0x80000
8000410c:	ffe58593          	addi	a1,a1,-2 # 7ffffffe <_start-0x2>
80004110:	40f50533          	sub	a0,a0,a5
80004114:	575020ef          	jal	80006e88 <__umodsi3>
80004118:	dca42223          	sw	a0,-572(s0)
8000411c:	00c12083          	lw	ra,12(sp)
80004120:	00812403          	lw	s0,8(sp)
80004124:	01010113          	addi	sp,sp,16
80004128:	00008067          	ret

8000412c <rand_r>:
8000412c:	ff010113          	addi	sp,sp,-16
80004130:	00112623          	sw	ra,12(sp)
80004134:	00812423          	sw	s0,8(sp)
80004138:	00050413          	mv	s0,a0
8000413c:	00052683          	lw	a3,0(a0)
80004140:	00269713          	slli	a4,a3,0x2
80004144:	00d70733          	add	a4,a4,a3
80004148:	00471793          	slli	a5,a4,0x4
8000414c:	40e787b3          	sub	a5,a5,a4
80004150:	00579793          	slli	a5,a5,0x5
80004154:	00d787b3          	add	a5,a5,a3
80004158:	00379513          	slli	a0,a5,0x3
8000415c:	800005b7          	lui	a1,0x80000
80004160:	ffe58593          	addi	a1,a1,-2 # 7ffffffe <_start-0x2>
80004164:	40f50533          	sub	a0,a0,a5
80004168:	521020ef          	jal	80006e88 <__umodsi3>
8000416c:	00a42023          	sw	a0,0(s0)
80004170:	00c12083          	lw	ra,12(sp)
80004174:	00812403          	lw	s0,8(sp)
80004178:	01010113          	addi	sp,sp,16
8000417c:	00008067          	ret

80004180 <srand>:
80004180:	800117b7          	lui	a5,0x80011
80004184:	dca7a223          	sw	a0,-572(a5) # 80010dc4 <rand_seed>
80004188:	00008067          	ret

8000418c <__divdf3>:
8000418c:	fd010113          	addi	sp,sp,-48
80004190:	0145d793          	srli	a5,a1,0x14
80004194:	02812423          	sw	s0,40(sp)
80004198:	02912223          	sw	s1,36(sp)
8000419c:	01412c23          	sw	s4,24(sp)
800041a0:	01512a23          	sw	s5,20(sp)
800041a4:	01912223          	sw	s9,4(sp)
800041a8:	00c59493          	slli	s1,a1,0xc
800041ac:	02112623          	sw	ra,44(sp)
800041b0:	03212023          	sw	s2,32(sp)
800041b4:	01312e23          	sw	s3,28(sp)
800041b8:	01612823          	sw	s6,16(sp)
800041bc:	01712623          	sw	s7,12(sp)
800041c0:	01812423          	sw	s8,8(sp)
800041c4:	01a12023          	sw	s10,0(sp)
800041c8:	7ff7f793          	andi	a5,a5,2047
800041cc:	00050413          	mv	s0,a0
800041d0:	00060c93          	mv	s9,a2
800041d4:	00068a13          	mv	s4,a3
800041d8:	00c4d493          	srli	s1,s1,0xc
800041dc:	01f5da93          	srli	s5,a1,0x1f
800041e0:	1a078863          	beqz	a5,80004390 <__divdf3+0x204>
800041e4:	7ff00713          	li	a4,2047
800041e8:	08e78a63          	beq	a5,a4,8000427c <__divdf3+0xf0>
800041ec:	00349493          	slli	s1,s1,0x3
800041f0:	01d55b93          	srli	s7,a0,0x1d
800041f4:	009bebb3          	or	s7,s7,s1
800041f8:	00800737          	lui	a4,0x800
800041fc:	c0178b13          	addi	s6,a5,-1023
80004200:	00351c13          	slli	s8,a0,0x3
80004204:	00ebebb3          	or	s7,s7,a4
80004208:	00000493          	li	s1,0
8000420c:	00000d13          	li	s10,0
80004210:	014a5793          	srli	a5,s4,0x14
80004214:	00ca1413          	slli	s0,s4,0xc
80004218:	7ff7f793          	andi	a5,a5,2047
8000421c:	00c45413          	srli	s0,s0,0xc
80004220:	01fa5a13          	srli	s4,s4,0x1f
80004224:	08078463          	beqz	a5,800042ac <__divdf3+0x120>
80004228:	7ff00713          	li	a4,2047
8000422c:	14e78463          	beq	a5,a4,80004374 <__divdf3+0x1e8>
80004230:	00341413          	slli	s0,s0,0x3
80004234:	01dcd713          	srli	a4,s9,0x1d
80004238:	c0178793          	addi	a5,a5,-1023
8000423c:	00876733          	or	a4,a4,s0
80004240:	00800437          	lui	s0,0x800
80004244:	40fb0b33          	sub	s6,s6,a5
80004248:	00876433          	or	s0,a4,s0
8000424c:	003c9793          	slli	a5,s9,0x3
80004250:	00000613          	li	a2,0
80004254:	00f00713          	li	a4,15
80004258:	014ac5b3          	xor	a1,s5,s4
8000425c:	24976663          	bltu	a4,s1,800044a8 <__divdf3+0x31c>
80004260:	0000a697          	auipc	a3,0xa
80004264:	7f468693          	addi	a3,a3,2036 # 8000ea54 <rv32+0x6b4c>
80004268:	00249493          	slli	s1,s1,0x2
8000426c:	00d484b3          	add	s1,s1,a3
80004270:	0004a703          	lw	a4,0(s1)
80004274:	00d70733          	add	a4,a4,a3
80004278:	00070067          	jr	a4 # 800000 <_start-0x7f800000>
8000427c:	00a4ebb3          	or	s7,s1,a0
80004280:	1c0b9e63          	bnez	s7,8000445c <__divdf3+0x2d0>
80004284:	00078b13          	mv	s6,a5
80004288:	014a5793          	srli	a5,s4,0x14
8000428c:	00ca1413          	slli	s0,s4,0xc
80004290:	7ff7f793          	andi	a5,a5,2047
80004294:	00000c13          	li	s8,0
80004298:	00800493          	li	s1,8
8000429c:	00200d13          	li	s10,2
800042a0:	00c45413          	srli	s0,s0,0xc
800042a4:	01fa5a13          	srli	s4,s4,0x1f
800042a8:	f80790e3          	bnez	a5,80004228 <__divdf3+0x9c>
800042ac:	019467b3          	or	a5,s0,s9
800042b0:	1c078c63          	beqz	a5,80004488 <__divdf3+0x2fc>
800042b4:	48040263          	beqz	s0,80004738 <__divdf3+0x5ac>
800042b8:	00040513          	mv	a0,s0
800042bc:	431020ef          	jal	80006eec <__clzsi2>
800042c0:	00050713          	mv	a4,a0
800042c4:	ff550793          	addi	a5,a0,-11
800042c8:	01d00693          	li	a3,29
800042cc:	40f686b3          	sub	a3,a3,a5
800042d0:	ff870793          	addi	a5,a4,-8
800042d4:	00f41433          	sll	s0,s0,a5
800042d8:	00dcd6b3          	srl	a3,s9,a3
800042dc:	0086e433          	or	s0,a3,s0
800042e0:	00fc97b3          	sll	a5,s9,a5
800042e4:	01670733          	add	a4,a4,s6
800042e8:	3f370b13          	addi	s6,a4,1011
800042ec:	00000613          	li	a2,0
800042f0:	f65ff06f          	j	80004254 <__divdf3+0xc8>
800042f4:	7ff00793          	li	a5,2047
800042f8:	00000693          	li	a3,0
800042fc:	00000713          	li	a4,0
80004300:	02c12083          	lw	ra,44(sp)
80004304:	02812403          	lw	s0,40(sp)
80004308:	01479793          	slli	a5,a5,0x14
8000430c:	01f59593          	slli	a1,a1,0x1f
80004310:	00d7e7b3          	or	a5,a5,a3
80004314:	00b7e7b3          	or	a5,a5,a1
80004318:	02412483          	lw	s1,36(sp)
8000431c:	02012903          	lw	s2,32(sp)
80004320:	01c12983          	lw	s3,28(sp)
80004324:	01812a03          	lw	s4,24(sp)
80004328:	01412a83          	lw	s5,20(sp)
8000432c:	01012b03          	lw	s6,16(sp)
80004330:	00c12b83          	lw	s7,12(sp)
80004334:	00812c03          	lw	s8,8(sp)
80004338:	00412c83          	lw	s9,4(sp)
8000433c:	00012d03          	lw	s10,0(sp)
80004340:	00070513          	mv	a0,a4
80004344:	00078593          	mv	a1,a5
80004348:	03010113          	addi	sp,sp,48
8000434c:	00008067          	ret
80004350:	00000793          	li	a5,0
80004354:	00000693          	li	a3,0
80004358:	00000713          	li	a4,0
8000435c:	fa5ff06f          	j	80004300 <__divdf3+0x174>
80004360:	00000593          	li	a1,0
80004364:	7ff00793          	li	a5,2047
80004368:	000806b7          	lui	a3,0x80
8000436c:	00000713          	li	a4,0
80004370:	f91ff06f          	j	80004300 <__divdf3+0x174>
80004374:	019467b3          	or	a5,s0,s9
80004378:	801b0b13          	addi	s6,s6,-2047
8000437c:	10079e63          	bnez	a5,80004498 <__divdf3+0x30c>
80004380:	0024e493          	ori	s1,s1,2
80004384:	00000413          	li	s0,0
80004388:	00200613          	li	a2,2
8000438c:	ec9ff06f          	j	80004254 <__divdf3+0xc8>
80004390:	00a4ebb3          	or	s7,s1,a0
80004394:	0e0b8063          	beqz	s7,80004474 <__divdf3+0x2e8>
80004398:	36048e63          	beqz	s1,80004714 <__divdf3+0x588>
8000439c:	00048513          	mv	a0,s1
800043a0:	34d020ef          	jal	80006eec <__clzsi2>
800043a4:	00050713          	mv	a4,a0
800043a8:	ff550793          	addi	a5,a0,-11
800043ac:	01d00b93          	li	s7,29
800043b0:	ff870c13          	addi	s8,a4,-8
800043b4:	40fb8bb3          	sub	s7,s7,a5
800043b8:	018494b3          	sll	s1,s1,s8
800043bc:	01745bb3          	srl	s7,s0,s7
800043c0:	009bebb3          	or	s7,s7,s1
800043c4:	01841c33          	sll	s8,s0,s8
800043c8:	c0d00793          	li	a5,-1011
800043cc:	40e78b33          	sub	s6,a5,a4
800043d0:	00000493          	li	s1,0
800043d4:	00000d13          	li	s10,0
800043d8:	e39ff06f          	j	80004210 <__divdf3+0x84>
800043dc:	000a8593          	mv	a1,s5
800043e0:	000b8413          	mv	s0,s7
800043e4:	000c0793          	mv	a5,s8
800043e8:	00200713          	li	a4,2
800043ec:	f0ed04e3          	beq	s10,a4,800042f4 <__divdf3+0x168>
800043f0:	00300713          	li	a4,3
800043f4:	f6ed06e3          	beq	s10,a4,80004360 <__divdf3+0x1d4>
800043f8:	00100713          	li	a4,1
800043fc:	f4ed0ae3          	beq	s10,a4,80004350 <__divdf3+0x1c4>
80004400:	3ffb0f93          	addi	t6,s6,1023
80004404:	000f8713          	mv	a4,t6
80004408:	4df05863          	blez	t6,800048d8 <__divdf3+0x74c>
8000440c:	0077f693          	andi	a3,a5,7
80004410:	3e069663          	bnez	a3,800047fc <__divdf3+0x670>
80004414:	0037d513          	srli	a0,a5,0x3
80004418:	00741793          	slli	a5,s0,0x7
8000441c:	0007da63          	bgez	a5,80004430 <__divdf3+0x2a4>
80004420:	ff0007b7          	lui	a5,0xff000
80004424:	fff78793          	addi	a5,a5,-1 # feffffff <qscmp+0x7efcdfe7>
80004428:	400b0713          	addi	a4,s6,1024
8000442c:	00f47433          	and	s0,s0,a5
80004430:	7fe00793          	li	a5,2046
80004434:	ece7c0e3          	blt	a5,a4,800042f4 <__divdf3+0x168>
80004438:	01d41693          	slli	a3,s0,0x1d
8000443c:	00941613          	slli	a2,s0,0x9
80004440:	7ff77793          	andi	a5,a4,2047
80004444:	00a6e733          	or	a4,a3,a0
80004448:	00c65693          	srli	a3,a2,0xc
8000444c:	eb5ff06f          	j	80004300 <__divdf3+0x174>
80004450:	000a0593          	mv	a1,s4
80004454:	00060d13          	mv	s10,a2
80004458:	f91ff06f          	j	800043e8 <__divdf3+0x25c>
8000445c:	00048b93          	mv	s7,s1
80004460:	00050c13          	mv	s8,a0
80004464:	00078b13          	mv	s6,a5
80004468:	00c00493          	li	s1,12
8000446c:	00300d13          	li	s10,3
80004470:	da1ff06f          	j	80004210 <__divdf3+0x84>
80004474:	00000c13          	li	s8,0
80004478:	00400493          	li	s1,4
8000447c:	00000b13          	li	s6,0
80004480:	00100d13          	li	s10,1
80004484:	d8dff06f          	j	80004210 <__divdf3+0x84>
80004488:	0014e493          	ori	s1,s1,1
8000448c:	00000413          	li	s0,0
80004490:	00100613          	li	a2,1
80004494:	dc1ff06f          	j	80004254 <__divdf3+0xc8>
80004498:	0034e493          	ori	s1,s1,3
8000449c:	000c8793          	mv	a5,s9
800044a0:	00300613          	li	a2,3
800044a4:	db1ff06f          	j	80004254 <__divdf3+0xc8>
800044a8:	25746a63          	bltu	s0,s7,800046fc <__divdf3+0x570>
800044ac:	248b8663          	beq	s7,s0,800046f8 <__divdf3+0x56c>
800044b0:	000c0693          	mv	a3,s8
800044b4:	fffb0b13          	addi	s6,s6,-1
800044b8:	00000c13          	li	s8,0
800044bc:	00841713          	slli	a4,s0,0x8
800044c0:	01075313          	srli	t1,a4,0x10
800044c4:	026bd433          	divu	s0,s7,t1
800044c8:	0187d613          	srli	a2,a5,0x18
800044cc:	00e66633          	or	a2,a2,a4
800044d0:	01061893          	slli	a7,a2,0x10
800044d4:	0108d893          	srli	a7,a7,0x10
800044d8:	0106d713          	srli	a4,a3,0x10
800044dc:	00879813          	slli	a6,a5,0x8
800044e0:	026bfbb3          	remu	s7,s7,t1
800044e4:	02888533          	mul	a0,a7,s0
800044e8:	010b9b93          	slli	s7,s7,0x10
800044ec:	017767b3          	or	a5,a4,s7
800044f0:	00a7fa63          	bgeu	a5,a0,80004504 <__divdf3+0x378>
800044f4:	00f607b3          	add	a5,a2,a5
800044f8:	fff40713          	addi	a4,s0,-1 # 7fffff <_start-0x7f800001>
800044fc:	2ec7f863          	bgeu	a5,a2,800047ec <__divdf3+0x660>
80004500:	00070413          	mv	s0,a4
80004504:	40a787b3          	sub	a5,a5,a0
80004508:	0267d733          	divu	a4,a5,t1
8000450c:	01069693          	slli	a3,a3,0x10
80004510:	0106d693          	srli	a3,a3,0x10
80004514:	0267f7b3          	remu	a5,a5,t1
80004518:	02e88fb3          	mul	t6,a7,a4
8000451c:	01079793          	slli	a5,a5,0x10
80004520:	00f6e6b3          	or	a3,a3,a5
80004524:	01f6fa63          	bgeu	a3,t6,80004538 <__divdf3+0x3ac>
80004528:	00d606b3          	add	a3,a2,a3
8000452c:	fff70793          	addi	a5,a4,-1
80004530:	2ac6f663          	bgeu	a3,a2,800047dc <__divdf3+0x650>
80004534:	00078713          	mv	a4,a5
80004538:	01041413          	slli	s0,s0,0x10
8000453c:	00e46433          	or	s0,s0,a4
80004540:	01041793          	slli	a5,s0,0x10
80004544:	01081e13          	slli	t3,a6,0x10
80004548:	0107d793          	srli	a5,a5,0x10
8000454c:	010e5e13          	srli	t3,t3,0x10
80004550:	01085e93          	srli	t4,a6,0x10
80004554:	01045513          	srli	a0,s0,0x10
80004558:	02fe8733          	mul	a4,t4,a5
8000455c:	41f686b3          	sub	a3,a3,t6
80004560:	03c78f33          	mul	t5,a5,t3
80004564:	03c50fb3          	mul	t6,a0,t3
80004568:	010f5793          	srli	a5,t5,0x10
8000456c:	01f70733          	add	a4,a4,t6
80004570:	00e787b3          	add	a5,a5,a4
80004574:	03d50533          	mul	a0,a0,t4
80004578:	01f7f663          	bgeu	a5,t6,80004584 <__divdf3+0x3f8>
8000457c:	00010737          	lui	a4,0x10
80004580:	00e50533          	add	a0,a0,a4
80004584:	010f1f93          	slli	t6,t5,0x10
80004588:	0107d713          	srli	a4,a5,0x10
8000458c:	01079f13          	slli	t5,a5,0x10
80004590:	010fdf93          	srli	t6,t6,0x10
80004594:	00a707b3          	add	a5,a4,a0
80004598:	01ff0f33          	add	t5,t5,t6
8000459c:	10f6ec63          	bltu	a3,a5,800046b4 <__divdf3+0x528>
800045a0:	10f68863          	beq	a3,a5,800046b0 <__divdf3+0x524>
800045a4:	41ec0f33          	sub	t5,s8,t5
800045a8:	01ec3c33          	sltu	s8,s8,t5
800045ac:	40f686b3          	sub	a3,a3,a5
800045b0:	3ffb0f93          	addi	t6,s6,1023
800045b4:	418686b3          	sub	a3,a3,s8
800045b8:	000f8713          	mv	a4,t6
800045bc:	1cd60463          	beq	a2,a3,80004784 <__divdf3+0x5f8>
800045c0:	0266d7b3          	divu	a5,a3,t1
800045c4:	010f5513          	srli	a0,t5,0x10
800045c8:	0266f6b3          	remu	a3,a3,t1
800045cc:	02f882b3          	mul	t0,a7,a5
800045d0:	01069693          	slli	a3,a3,0x10
800045d4:	00d566b3          	or	a3,a0,a3
800045d8:	0056fe63          	bgeu	a3,t0,800045f4 <__divdf3+0x468>
800045dc:	00d606b3          	add	a3,a2,a3
800045e0:	fff78513          	addi	a0,a5,-1
800045e4:	22c6e463          	bltu	a3,a2,8000480c <__divdf3+0x680>
800045e8:	2256f263          	bgeu	a3,t0,8000480c <__divdf3+0x680>
800045ec:	ffe78793          	addi	a5,a5,-2
800045f0:	00c686b3          	add	a3,a3,a2
800045f4:	405686b3          	sub	a3,a3,t0
800045f8:	0266d533          	divu	a0,a3,t1
800045fc:	010f1f13          	slli	t5,t5,0x10
80004600:	010f5f13          	srli	t5,t5,0x10
80004604:	0266f6b3          	remu	a3,a3,t1
80004608:	02a888b3          	mul	a7,a7,a0
8000460c:	01069693          	slli	a3,a3,0x10
80004610:	00df6f33          	or	t5,t5,a3
80004614:	011f7e63          	bgeu	t5,a7,80004630 <__divdf3+0x4a4>
80004618:	01e60f33          	add	t5,a2,t5
8000461c:	fff50693          	addi	a3,a0,-1
80004620:	1ecf6a63          	bltu	t5,a2,80004814 <__divdf3+0x688>
80004624:	1f1f7863          	bgeu	t5,a7,80004814 <__divdf3+0x688>
80004628:	ffe50513          	addi	a0,a0,-2
8000462c:	00cf0f33          	add	t5,t5,a2
80004630:	01079793          	slli	a5,a5,0x10
80004634:	00a7e7b3          	or	a5,a5,a0
80004638:	01079693          	slli	a3,a5,0x10
8000463c:	0106d693          	srli	a3,a3,0x10
80004640:	0107d293          	srli	t0,a5,0x10
80004644:	02de8533          	mul	a0,t4,a3
80004648:	411f0f33          	sub	t5,t5,a7
8000464c:	03c28333          	mul	t1,t0,t3
80004650:	02de0e33          	mul	t3,t3,a3
80004654:	00650533          	add	a0,a0,t1
80004658:	010e5693          	srli	a3,t3,0x10
8000465c:	00a686b3          	add	a3,a3,a0
80004660:	025e8eb3          	mul	t4,t4,t0
80004664:	0066f663          	bgeu	a3,t1,80004670 <__divdf3+0x4e4>
80004668:	00010537          	lui	a0,0x10
8000466c:	00ae8eb3          	add	t4,t4,a0
80004670:	0106d513          	srli	a0,a3,0x10
80004674:	010e1e13          	slli	t3,t3,0x10
80004678:	010e5e13          	srli	t3,t3,0x10
8000467c:	01069693          	slli	a3,a3,0x10
80004680:	01d50533          	add	a0,a0,t4
80004684:	01c686b3          	add	a3,a3,t3
80004688:	0caf6e63          	bltu	t5,a0,80004764 <__divdf3+0x5d8>
8000468c:	0caf0a63          	beq	t5,a0,80004760 <__divdf3+0x5d4>
80004690:	c0200693          	li	a3,-1022
80004694:	0017e793          	ori	a5,a5,1
80004698:	1adb4063          	blt	s6,a3,80004838 <__divdf3+0x6ac>
8000469c:	00478513          	addi	a0,a5,4
800046a0:	00f537b3          	sltu	a5,a0,a5
800046a4:	00355513          	srli	a0,a0,0x3
800046a8:	00f40433          	add	s0,s0,a5
800046ac:	d6dff06f          	j	80004418 <__divdf3+0x28c>
800046b0:	efec7ae3          	bgeu	s8,t5,800045a4 <__divdf3+0x418>
800046b4:	010c0733          	add	a4,s8,a6
800046b8:	01873533          	sltu	a0,a4,s8
800046bc:	00c50fb3          	add	t6,a0,a2
800046c0:	01f686b3          	add	a3,a3,t6
800046c4:	00070c13          	mv	s8,a4
800046c8:	fff40f93          	addi	t6,s0,-1
800046cc:	10d67263          	bgeu	a2,a3,800047d0 <__divdf3+0x644>
800046d0:	00f6e663          	bltu	a3,a5,800046dc <__divdf3+0x550>
800046d4:	10d79063          	bne	a5,a3,800047d4 <__divdf3+0x648>
800046d8:	0fe77e63          	bgeu	a4,t5,800047d4 <__divdf3+0x648>
800046dc:	00e80733          	add	a4,a6,a4
800046e0:	01073533          	sltu	a0,a4,a6
800046e4:	00c50533          	add	a0,a0,a2
800046e8:	ffe40413          	addi	s0,s0,-2
800046ec:	00a686b3          	add	a3,a3,a0
800046f0:	00070c13          	mv	s8,a4
800046f4:	eb1ff06f          	j	800045a4 <__divdf3+0x418>
800046f8:	dafc6ce3          	bltu	s8,a5,800044b0 <__divdf3+0x324>
800046fc:	01fb9693          	slli	a3,s7,0x1f
80004700:	001c5713          	srli	a4,s8,0x1
80004704:	001bdb93          	srli	s7,s7,0x1
80004708:	00e6e6b3          	or	a3,a3,a4
8000470c:	01fc1c13          	slli	s8,s8,0x1f
80004710:	dadff06f          	j	800044bc <__divdf3+0x330>
80004714:	7d8020ef          	jal	80006eec <__clzsi2>
80004718:	01550793          	addi	a5,a0,21 # 10015 <_start-0x7ffeffeb>
8000471c:	01c00693          	li	a3,28
80004720:	02050713          	addi	a4,a0,32
80004724:	c8f6d4e3          	bge	a3,a5,800043ac <__divdf3+0x220>
80004728:	ff850513          	addi	a0,a0,-8
8000472c:	00a41bb3          	sll	s7,s0,a0
80004730:	00000c13          	li	s8,0
80004734:	c95ff06f          	j	800043c8 <__divdf3+0x23c>
80004738:	000c8513          	mv	a0,s9
8000473c:	7b0020ef          	jal	80006eec <__clzsi2>
80004740:	01550793          	addi	a5,a0,21
80004744:	01c00693          	li	a3,28
80004748:	02050713          	addi	a4,a0,32
8000474c:	b6f6dee3          	bge	a3,a5,800042c8 <__divdf3+0x13c>
80004750:	ff850513          	addi	a0,a0,-8
80004754:	00ac9433          	sll	s0,s9,a0
80004758:	00000793          	li	a5,0
8000475c:	b89ff06f          	j	800042e4 <__divdf3+0x158>
80004760:	ca0682e3          	beqz	a3,80004404 <__divdf3+0x278>
80004764:	01e60f33          	add	t5,a2,t5
80004768:	000f0893          	mv	a7,t5
8000476c:	fff78313          	addi	t1,a5,-1
80004770:	0acf6663          	bltu	t5,a2,8000481c <__divdf3+0x690>
80004774:	1aaf6263          	bltu	t5,a0,80004918 <__divdf3+0x78c>
80004778:	1caf0063          	beq	t5,a0,80004938 <__divdf3+0x7ac>
8000477c:	00030793          	mv	a5,t1
80004780:	f11ff06f          	j	80004690 <__divdf3+0x504>
80004784:	00000513          	li	a0,0
80004788:	00100793          	li	a5,1
8000478c:	f1f04ee3          	bgtz	t6,800046a8 <__divdf3+0x51c>
80004790:	0c0f9463          	bnez	t6,80004858 <__divdf3+0x6cc>
80004794:	80000737          	lui	a4,0x80000
80004798:	01f41793          	slli	a5,s0,0x1f
8000479c:	fff70713          	addi	a4,a4,-1 # 7fffffff <_start-0x1>
800047a0:	00e7e7b3          	or	a5,a5,a4
800047a4:	00145413          	srli	s0,s0,0x1
800047a8:	00478713          	addi	a4,a5,4
800047ac:	00f737b3          	sltu	a5,a4,a5
800047b0:	00f40433          	add	s0,s0,a5
800047b4:	00070793          	mv	a5,a4
800047b8:	00841713          	slli	a4,s0,0x8
800047bc:	1a075063          	bgez	a4,8000495c <__divdf3+0x7d0>
800047c0:	00100793          	li	a5,1
800047c4:	00000693          	li	a3,0
800047c8:	00000713          	li	a4,0
800047cc:	b35ff06f          	j	80004300 <__divdf3+0x174>
800047d0:	04d60e63          	beq	a2,a3,8000482c <__divdf3+0x6a0>
800047d4:	000f8413          	mv	s0,t6
800047d8:	dcdff06f          	j	800045a4 <__divdf3+0x418>
800047dc:	d5f6fce3          	bgeu	a3,t6,80004534 <__divdf3+0x3a8>
800047e0:	ffe70713          	addi	a4,a4,-2
800047e4:	00c686b3          	add	a3,a3,a2
800047e8:	d51ff06f          	j	80004538 <__divdf3+0x3ac>
800047ec:	d0a7fae3          	bgeu	a5,a0,80004500 <__divdf3+0x374>
800047f0:	ffe40413          	addi	s0,s0,-2
800047f4:	00c787b3          	add	a5,a5,a2
800047f8:	d0dff06f          	j	80004504 <__divdf3+0x378>
800047fc:	00f7f693          	andi	a3,a5,15
80004800:	00400613          	li	a2,4
80004804:	c0c688e3          	beq	a3,a2,80004414 <__divdf3+0x288>
80004808:	e95ff06f          	j	8000469c <__divdf3+0x510>
8000480c:	00050793          	mv	a5,a0
80004810:	de5ff06f          	j	800045f4 <__divdf3+0x468>
80004814:	00068513          	mv	a0,a3
80004818:	e19ff06f          	j	80004630 <__divdf3+0x4a4>
8000481c:	00030793          	mv	a5,t1
80004820:	e6a898e3          	bne	a7,a0,80004690 <__divdf3+0x504>
80004824:	e70696e3          	bne	a3,a6,80004690 <__divdf3+0x504>
80004828:	bddff06f          	j	80004404 <__divdf3+0x278>
8000482c:	fa0514e3          	bnez	a0,800047d4 <__divdf3+0x648>
80004830:	eaf6e6e3          	bltu	a3,a5,800046dc <__divdf3+0x550>
80004834:	ea1ff06f          	j	800046d4 <__divdf3+0x548>
80004838:	c0100713          	li	a4,-1023
8000483c:	02eb1063          	bne	s6,a4,8000485c <__divdf3+0x6d0>
80004840:	0017d713          	srli	a4,a5,0x1
80004844:	00176713          	ori	a4,a4,1
80004848:	01f41793          	slli	a5,s0,0x1f
8000484c:	00e7e7b3          	or	a5,a5,a4
80004850:	00145413          	srli	s0,s0,0x1
80004854:	f55ff06f          	j	800047a8 <__divdf3+0x61c>
80004858:	fff00793          	li	a5,-1
8000485c:	00100713          	li	a4,1
80004860:	41f70733          	sub	a4,a4,t6
80004864:	03800693          	li	a3,56
80004868:	aee6c4e3          	blt	a3,a4,80004350 <__divdf3+0x1c4>
8000486c:	01f00693          	li	a3,31
80004870:	0ce6dc63          	bge	a3,a4,80004948 <__divdf3+0x7bc>
80004874:	fe100693          	li	a3,-31
80004878:	41f686b3          	sub	a3,a3,t6
8000487c:	02000613          	li	a2,32
80004880:	00d456b3          	srl	a3,s0,a3
80004884:	00c70863          	beq	a4,a2,80004894 <__divdf3+0x708>
80004888:	43eb0b13          	addi	s6,s6,1086
8000488c:	01641433          	sll	s0,s0,s6
80004890:	0087e7b3          	or	a5,a5,s0
80004894:	00f037b3          	snez	a5,a5
80004898:	00d7e7b3          	or	a5,a5,a3
8000489c:	0077f713          	andi	a4,a5,7
800048a0:	00000693          	li	a3,0
800048a4:	02070263          	beqz	a4,800048c8 <__divdf3+0x73c>
800048a8:	00f7f613          	andi	a2,a5,15
800048ac:	00400513          	li	a0,4
800048b0:	00000713          	li	a4,0
800048b4:	00a60a63          	beq	a2,a0,800048c8 <__divdf3+0x73c>
800048b8:	00a78633          	add	a2,a5,a0
800048bc:	00f637b3          	sltu	a5,a2,a5
800048c0:	01d79713          	slli	a4,a5,0x1d
800048c4:	00060793          	mv	a5,a2
800048c8:	0037d793          	srli	a5,a5,0x3
800048cc:	00e7e733          	or	a4,a5,a4
800048d0:	00000793          	li	a5,0
800048d4:	a2dff06f          	j	80004300 <__divdf3+0x174>
800048d8:	f80f92e3          	bnez	t6,8000485c <__divdf3+0x6d0>
800048dc:	0077f693          	andi	a3,a5,7
800048e0:	0017d613          	srli	a2,a5,0x1
800048e4:	01f00b13          	li	s6,31
800048e8:	00100713          	li	a4,1
800048ec:	08069063          	bnez	a3,8000496c <__divdf3+0x7e0>
800048f0:	01641b33          	sll	s6,s0,s6
800048f4:	00d66633          	or	a2,a2,a3
800048f8:	00cb67b3          	or	a5,s6,a2
800048fc:	0077f693          	andi	a3,a5,7
80004900:	00e45433          	srl	s0,s0,a4
80004904:	ea068ae3          	beqz	a3,800047b8 <__divdf3+0x62c>
80004908:	00f7f713          	andi	a4,a5,15
8000490c:	00400693          	li	a3,4
80004910:	ead704e3          	beq	a4,a3,800047b8 <__divdf3+0x62c>
80004914:	e95ff06f          	j	800047a8 <__divdf3+0x61c>
80004918:	00181313          	slli	t1,a6,0x1
8000491c:	010338b3          	sltu	a7,t1,a6
80004920:	00c888b3          	add	a7,a7,a2
80004924:	011f08b3          	add	a7,t5,a7
80004928:	ffe78793          	addi	a5,a5,-2
8000492c:	00030813          	mv	a6,t1
80004930:	eea88ae3          	beq	a7,a0,80004824 <__divdf3+0x698>
80004934:	d5dff06f          	j	80004690 <__divdf3+0x504>
80004938:	fed860e3          	bltu	a6,a3,80004918 <__divdf3+0x78c>
8000493c:	00030793          	mv	a5,t1
80004940:	d50698e3          	bne	a3,a6,80004690 <__divdf3+0x504>
80004944:	ac1ff06f          	j	80004404 <__divdf3+0x278>
80004948:	41eb0b13          	addi	s6,s6,1054
8000494c:	016796b3          	sll	a3,a5,s6
80004950:	00d036b3          	snez	a3,a3
80004954:	00e7d633          	srl	a2,a5,a4
80004958:	f99ff06f          	j	800048f0 <__divdf3+0x764>
8000495c:	00941693          	slli	a3,s0,0x9
80004960:	00c6d693          	srli	a3,a3,0xc
80004964:	01d41713          	slli	a4,s0,0x1d
80004968:	f61ff06f          	j	800048c8 <__divdf3+0x73c>
8000496c:	00e7f6b3          	and	a3,a5,a4
80004970:	f81ff06f          	j	800048f0 <__divdf3+0x764>

80004974 <__ledf2>:
80004974:	0145d893          	srli	a7,a1,0x14
80004978:	001007b7          	lui	a5,0x100
8000497c:	0146d713          	srli	a4,a3,0x14
80004980:	00050813          	mv	a6,a0
80004984:	fff78793          	addi	a5,a5,-1 # fffff <_start-0x7ff00001>
80004988:	7ff00313          	li	t1,2047
8000498c:	7ff8f893          	andi	a7,a7,2047
80004990:	00677533          	and	a0,a4,t1
80004994:	00080e13          	mv	t3,a6
80004998:	00b7f733          	and	a4,a5,a1
8000499c:	00060e93          	mv	t4,a2
800049a0:	00d7f7b3          	and	a5,a5,a3
800049a4:	01f5d593          	srli	a1,a1,0x1f
800049a8:	01f6d693          	srli	a3,a3,0x1f
800049ac:	04688e63          	beq	a7,t1,80004a08 <__ledf2+0x94>
800049b0:	02650463          	beq	a0,t1,800049d8 <__ledf2+0x64>
800049b4:	06089c63          	bnez	a7,80004a2c <__ledf2+0xb8>
800049b8:	01076833          	or	a6,a4,a6
800049bc:	0a051063          	bnez	a0,80004a5c <__ledf2+0xe8>
800049c0:	00c7e633          	or	a2,a5,a2
800049c4:	02060e63          	beqz	a2,80004a00 <__ledf2+0x8c>
800049c8:	0a081263          	bnez	a6,80004a6c <__ledf2+0xf8>
800049cc:	00169513          	slli	a0,a3,0x1
800049d0:	fff50513          	addi	a0,a0,-1
800049d4:	00008067          	ret
800049d8:	00c7e633          	or	a2,a5,a2
800049dc:	00200513          	li	a0,2
800049e0:	02061263          	bnez	a2,80004a04 <__ledf2+0x90>
800049e4:	00089663          	bnez	a7,800049f0 <__ledf2+0x7c>
800049e8:	01076733          	or	a4,a4,a6
800049ec:	fe0700e3          	beqz	a4,800049cc <__ledf2+0x58>
800049f0:	06d58063          	beq	a1,a3,80004a50 <__ledf2+0xdc>
800049f4:	40b005b3          	neg	a1,a1
800049f8:	0015e513          	ori	a0,a1,1
800049fc:	00008067          	ret
80004a00:	fe081ae3          	bnez	a6,800049f4 <__ledf2+0x80>
80004a04:	00008067          	ret
80004a08:	01076733          	or	a4,a4,a6
80004a0c:	04071c63          	bnez	a4,80004a64 <__ledf2+0xf0>
80004a10:	ff1512e3          	bne	a0,a7,800049f4 <__ledf2+0x80>
80004a14:	00c7e7b3          	or	a5,a5,a2
80004a18:	00200513          	li	a0,2
80004a1c:	fe0794e3          	bnez	a5,80004a04 <__ledf2+0x90>
80004a20:	fcd59ae3          	bne	a1,a3,800049f4 <__ledf2+0x80>
80004a24:	00000513          	li	a0,0
80004a28:	00008067          	ret
80004a2c:	fc0504e3          	beqz	a0,800049f4 <__ledf2+0x80>
80004a30:	fcd592e3          	bne	a1,a3,800049f4 <__ledf2+0x80>
80004a34:	fd1540e3          	blt	a0,a7,800049f4 <__ledf2+0x80>
80004a38:	00a8cc63          	blt	a7,a0,80004a50 <__ledf2+0xdc>
80004a3c:	fae7ece3          	bltu	a5,a4,800049f4 <__ledf2+0x80>
80004a40:	00f71863          	bne	a4,a5,80004a50 <__ledf2+0xdc>
80004a44:	fbcee8e3          	bltu	t4,t3,800049f4 <__ledf2+0x80>
80004a48:	00000513          	li	a0,0
80004a4c:	fbde7ce3          	bgeu	t3,t4,80004a04 <__ledf2+0x90>
80004a50:	00159513          	slli	a0,a1,0x1
80004a54:	fff50513          	addi	a0,a0,-1
80004a58:	00008067          	ret
80004a5c:	f60808e3          	beqz	a6,800049cc <__ledf2+0x58>
80004a60:	f91ff06f          	j	800049f0 <__ledf2+0x7c>
80004a64:	00200513          	li	a0,2
80004a68:	00008067          	ret
80004a6c:	fcd588e3          	beq	a1,a3,80004a3c <__ledf2+0xc8>
80004a70:	f85ff06f          	j	800049f4 <__ledf2+0x80>

80004a74 <__muldf3>:
80004a74:	fd010113          	addi	sp,sp,-48
80004a78:	0145d793          	srli	a5,a1,0x14
80004a7c:	02812423          	sw	s0,40(sp)
80004a80:	02912223          	sw	s1,36(sp)
80004a84:	01412c23          	sw	s4,24(sp)
80004a88:	01512a23          	sw	s5,20(sp)
80004a8c:	01812423          	sw	s8,8(sp)
80004a90:	00c59413          	slli	s0,a1,0xc
80004a94:	02112623          	sw	ra,44(sp)
80004a98:	03212023          	sw	s2,32(sp)
80004a9c:	01312e23          	sw	s3,28(sp)
80004aa0:	01612823          	sw	s6,16(sp)
80004aa4:	01712623          	sw	s7,12(sp)
80004aa8:	01912223          	sw	s9,4(sp)
80004aac:	01a12023          	sw	s10,0(sp)
80004ab0:	7ff7f793          	andi	a5,a5,2047
80004ab4:	00050a93          	mv	s5,a0
80004ab8:	00060c13          	mv	s8,a2
80004abc:	00068493          	mv	s1,a3
80004ac0:	00c45413          	srli	s0,s0,0xc
80004ac4:	01f5da13          	srli	s4,a1,0x1f
80004ac8:	42078863          	beqz	a5,80004ef8 <__muldf3+0x484>
80004acc:	7ff00713          	li	a4,2047
80004ad0:	2ae78663          	beq	a5,a4,80004d7c <__muldf3+0x308>
80004ad4:	00341413          	slli	s0,s0,0x3
80004ad8:	01d55713          	srli	a4,a0,0x1d
80004adc:	00876733          	or	a4,a4,s0
80004ae0:	00800437          	lui	s0,0x800
80004ae4:	c0178b13          	addi	s6,a5,-1023
80004ae8:	00351b93          	slli	s7,a0,0x3
80004aec:	00876433          	or	s0,a4,s0
80004af0:	00000c93          	li	s9,0
80004af4:	00000d13          	li	s10,0
80004af8:	0144d793          	srli	a5,s1,0x14
80004afc:	00c49713          	slli	a4,s1,0xc
80004b00:	7ff7f793          	andi	a5,a5,2047
80004b04:	00c75a93          	srli	s5,a4,0xc
80004b08:	01f4d493          	srli	s1,s1,0x1f
80004b0c:	2a078063          	beqz	a5,80004dac <__muldf3+0x338>
80004b10:	7ff00713          	li	a4,2047
80004b14:	3ae78863          	beq	a5,a4,80004ec4 <__muldf3+0x450>
80004b18:	c0178793          	addi	a5,a5,-1023
80004b1c:	00a00713          	li	a4,10
80004b20:	00fb0b33          	add	s6,s6,a5
80004b24:	2f974463          	blt	a4,s9,80004e0c <__muldf3+0x398>
80004b28:	003a9713          	slli	a4,s5,0x3
80004b2c:	01dc5793          	srli	a5,s8,0x1d
80004b30:	00e7e7b3          	or	a5,a5,a4
80004b34:	009a46b3          	xor	a3,s4,s1
80004b38:	00800737          	lui	a4,0x800
80004b3c:	00200613          	li	a2,2
80004b40:	00e7eab3          	or	s5,a5,a4
80004b44:	003c1813          	slli	a6,s8,0x3
80004b48:	00068593          	mv	a1,a3
80004b4c:	00000793          	li	a5,0
80004b50:	03965263          	bge	a2,s9,80004b74 <__muldf3+0x100>
80004b54:	00100613          	li	a2,1
80004b58:	01961633          	sll	a2,a2,s9
80004b5c:	53067713          	andi	a4,a2,1328
80004b60:	2a071863          	bnez	a4,80004e10 <__muldf3+0x39c>
80004b64:	24067593          	andi	a1,a2,576
80004b68:	50059e63          	bnez	a1,80005084 <__muldf3+0x610>
80004b6c:	08867613          	andi	a2,a2,136
80004b70:	4e061463          	bnez	a2,80005058 <__muldf3+0x5e4>
80004b74:	010b9793          	slli	a5,s7,0x10
80004b78:	01081613          	slli	a2,a6,0x10
80004b7c:	0107d793          	srli	a5,a5,0x10
80004b80:	01065613          	srli	a2,a2,0x10
80004b84:	010bdb93          	srli	s7,s7,0x10
80004b88:	01085813          	srli	a6,a6,0x10
80004b8c:	02c78733          	mul	a4,a5,a2
80004b90:	02cb8533          	mul	a0,s7,a2
80004b94:	01075313          	srli	t1,a4,0x10
80004b98:	02f805b3          	mul	a1,a6,a5
80004b9c:	00a585b3          	add	a1,a1,a0
80004ba0:	00b30333          	add	t1,t1,a1
80004ba4:	030b8eb3          	mul	t4,s7,a6
80004ba8:	00a37663          	bgeu	t1,a0,80004bb4 <__muldf3+0x140>
80004bac:	000105b7          	lui	a1,0x10
80004bb0:	00be8eb3          	add	t4,t4,a1
80004bb4:	010a9e13          	slli	t3,s5,0x10
80004bb8:	01071713          	slli	a4,a4,0x10
80004bbc:	010e5e13          	srli	t3,t3,0x10
80004bc0:	010ada93          	srli	s5,s5,0x10
80004bc4:	01075713          	srli	a4,a4,0x10
80004bc8:	01031593          	slli	a1,t1,0x10
80004bcc:	03cb88b3          	mul	a7,s7,t3
80004bd0:	00e585b3          	add	a1,a1,a4
80004bd4:	01035313          	srli	t1,t1,0x10
80004bd8:	03c78733          	mul	a4,a5,t3
80004bdc:	02fa87b3          	mul	a5,s5,a5
80004be0:	01075513          	srli	a0,a4,0x10
80004be4:	011787b3          	add	a5,a5,a7
80004be8:	00f50533          	add	a0,a0,a5
80004bec:	035b8bb3          	mul	s7,s7,s5
80004bf0:	01157663          	bgeu	a0,a7,80004bfc <__muldf3+0x188>
80004bf4:	000107b7          	lui	a5,0x10
80004bf8:	00fb8bb3          	add	s7,s7,a5
80004bfc:	01041793          	slli	a5,s0,0x10
80004c00:	01071893          	slli	a7,a4,0x10
80004c04:	0107d793          	srli	a5,a5,0x10
80004c08:	01045413          	srli	s0,s0,0x10
80004c0c:	0108d893          	srli	a7,a7,0x10
80004c10:	01051713          	slli	a4,a0,0x10
80004c14:	02f80fb3          	mul	t6,a6,a5
80004c18:	01170733          	add	a4,a4,a7
80004c1c:	01055513          	srli	a0,a0,0x10
80004c20:	00e30333          	add	t1,t1,a4
80004c24:	01750533          	add	a0,a0,s7
80004c28:	02c408b3          	mul	a7,s0,a2
80004c2c:	02c78f33          	mul	t5,a5,a2
80004c30:	011f8fb3          	add	t6,t6,a7
80004c34:	010f5613          	srli	a2,t5,0x10
80004c38:	01f60633          	add	a2,a2,t6
80004c3c:	02880833          	mul	a6,a6,s0
80004c40:	01167663          	bgeu	a2,a7,80004c4c <__muldf3+0x1d8>
80004c44:	000108b7          	lui	a7,0x10
80004c48:	01180833          	add	a6,a6,a7
80004c4c:	010f1f13          	slli	t5,t5,0x10
80004c50:	01061893          	slli	a7,a2,0x10
80004c54:	010f5f13          	srli	t5,t5,0x10
80004c58:	01065613          	srli	a2,a2,0x10
80004c5c:	01e88f33          	add	t5,a7,t5
80004c60:	01060633          	add	a2,a2,a6
80004c64:	03c408b3          	mul	a7,s0,t3
80004c68:	03c78833          	mul	a6,a5,t3
80004c6c:	02fa87b3          	mul	a5,s5,a5
80004c70:	01085e13          	srli	t3,a6,0x10
80004c74:	011787b3          	add	a5,a5,a7
80004c78:	00fe0e33          	add	t3,t3,a5
80004c7c:	028a8ab3          	mul	s5,s5,s0
80004c80:	011e7663          	bgeu	t3,a7,80004c8c <__muldf3+0x218>
80004c84:	000107b7          	lui	a5,0x10
80004c88:	00fa8ab3          	add	s5,s5,a5
80004c8c:	01081893          	slli	a7,a6,0x10
80004c90:	0108d893          	srli	a7,a7,0x10
80004c94:	010e1793          	slli	a5,t3,0x10
80004c98:	01d30833          	add	a6,t1,t4
80004c9c:	011787b3          	add	a5,a5,a7
80004ca0:	00a78533          	add	a0,a5,a0
80004ca4:	00e83733          	sltu	a4,a6,a4
80004ca8:	01e808b3          	add	a7,a6,t5
80004cac:	00e50733          	add	a4,a0,a4
80004cb0:	00c70633          	add	a2,a4,a2
80004cb4:	0108b833          	sltu	a6,a7,a6
80004cb8:	01060833          	add	a6,a2,a6
80004cbc:	00f537b3          	sltu	a5,a0,a5
80004cc0:	00a73533          	sltu	a0,a4,a0
80004cc4:	00a7e7b3          	or	a5,a5,a0
80004cc8:	00e63733          	sltu	a4,a2,a4
80004ccc:	010e5e13          	srli	t3,t3,0x10
80004cd0:	00c83633          	sltu	a2,a6,a2
80004cd4:	01c787b3          	add	a5,a5,t3
80004cd8:	00c76733          	or	a4,a4,a2
80004cdc:	00989b93          	slli	s7,a7,0x9
80004ce0:	00f70733          	add	a4,a4,a5
80004ce4:	00bbebb3          	or	s7,s7,a1
80004ce8:	01570733          	add	a4,a4,s5
80004cec:	00971713          	slli	a4,a4,0x9
80004cf0:	01703bb3          	snez	s7,s7
80004cf4:	0178d893          	srli	a7,a7,0x17
80004cf8:	01785413          	srli	s0,a6,0x17
80004cfc:	011bebb3          	or	s7,s7,a7
80004d00:	00981813          	slli	a6,a6,0x9
80004d04:	00771793          	slli	a5,a4,0x7
80004d08:	00876433          	or	s0,a4,s0
80004d0c:	010bebb3          	or	s7,s7,a6
80004d10:	1607cc63          	bltz	a5,80004e88 <__muldf3+0x414>
80004d14:	3ffb0793          	addi	a5,s6,1023
80004d18:	2cf05e63          	blez	a5,80004ff4 <__muldf3+0x580>
80004d1c:	007bf713          	andi	a4,s7,7
80004d20:	02070c63          	beqz	a4,80004d58 <__muldf3+0x2e4>
80004d24:	00fbf713          	andi	a4,s7,15
80004d28:	00400613          	li	a2,4
80004d2c:	02c70663          	beq	a4,a2,80004d58 <__muldf3+0x2e4>
80004d30:	004b8713          	addi	a4,s7,4
80004d34:	01773bb3          	sltu	s7,a4,s7
80004d38:	01740433          	add	s0,s0,s7
80004d3c:	00070b93          	mv	s7,a4
80004d40:	00741713          	slli	a4,s0,0x7
80004d44:	00075a63          	bgez	a4,80004d58 <__muldf3+0x2e4>
80004d48:	ff000737          	lui	a4,0xff000
80004d4c:	fff70713          	addi	a4,a4,-1 # feffffff <qscmp+0x7efcdfe7>
80004d50:	400b0793          	addi	a5,s6,1024
80004d54:	00e47433          	and	s0,s0,a4
80004d58:	7fe00713          	li	a4,2046
80004d5c:	32f74c63          	blt	a4,a5,80005094 <__muldf3+0x620>
80004d60:	01d41713          	slli	a4,s0,0x1d
80004d64:	003bdb93          	srli	s7,s7,0x3
80004d68:	00941413          	slli	s0,s0,0x9
80004d6c:	7ff7f793          	andi	a5,a5,2047
80004d70:	01776733          	or	a4,a4,s7
80004d74:	00c45413          	srli	s0,s0,0xc
80004d78:	0c00006f          	j	80004e38 <__muldf3+0x3c4>
80004d7c:	00a46bb3          	or	s7,s0,a0
80004d80:	240b9663          	bnez	s7,80004fcc <__muldf3+0x558>
80004d84:	00078b13          	mv	s6,a5
80004d88:	0144d793          	srli	a5,s1,0x14
80004d8c:	00c49713          	slli	a4,s1,0xc
80004d90:	7ff7f793          	andi	a5,a5,2047
80004d94:	00000413          	li	s0,0
80004d98:	00800c93          	li	s9,8
80004d9c:	00200d13          	li	s10,2
80004da0:	00c75a93          	srli	s5,a4,0xc
80004da4:	01f4d493          	srli	s1,s1,0x1f
80004da8:	d60794e3          	bnez	a5,80004b10 <__muldf3+0x9c>
80004dac:	018ae833          	or	a6,s5,s8
80004db0:	1a080463          	beqz	a6,80004f58 <__muldf3+0x4e4>
80004db4:	300a8a63          	beqz	s5,800050c8 <__muldf3+0x654>
80004db8:	000a8513          	mv	a0,s5
80004dbc:	130020ef          	jal	80006eec <__clzsi2>
80004dc0:	00050793          	mv	a5,a0
80004dc4:	ff550713          	addi	a4,a0,-11
80004dc8:	01d00693          	li	a3,29
80004dcc:	40e686b3          	sub	a3,a3,a4
80004dd0:	ff878813          	addi	a6,a5,-8 # fff8 <_start-0x7fff0008>
80004dd4:	010a9733          	sll	a4,s5,a6
80004dd8:	00dc56b3          	srl	a3,s8,a3
80004ddc:	00e6eab3          	or	s5,a3,a4
80004de0:	010c1833          	sll	a6,s8,a6
80004de4:	40fb07b3          	sub	a5,s6,a5
80004de8:	00a00713          	li	a4,10
80004dec:	c0d78b13          	addi	s6,a5,-1011
80004df0:	01974e63          	blt	a4,s9,80004e0c <__muldf3+0x398>
80004df4:	00200793          	li	a5,2
80004df8:	009a46b3          	xor	a3,s4,s1
80004dfc:	d797dce3          	bge	a5,s9,80004b74 <__muldf3+0x100>
80004e00:	00068593          	mv	a1,a3
80004e04:	00000793          	li	a5,0
80004e08:	d4dff06f          	j	80004b54 <__muldf3+0xe0>
80004e0c:	000a0593          	mv	a1,s4
80004e10:	00200793          	li	a5,2
80004e14:	24fd0e63          	beq	s10,a5,80005070 <__muldf3+0x5fc>
80004e18:	00300793          	li	a5,3
80004e1c:	1cfd0263          	beq	s10,a5,80004fe0 <__muldf3+0x56c>
80004e20:	00100793          	li	a5,1
80004e24:	00058693          	mv	a3,a1
80004e28:	06fd1c63          	bne	s10,a5,80004ea0 <__muldf3+0x42c>
80004e2c:	00000793          	li	a5,0
80004e30:	00000413          	li	s0,0
80004e34:	00000713          	li	a4,0
80004e38:	01479793          	slli	a5,a5,0x14
80004e3c:	02c12083          	lw	ra,44(sp)
80004e40:	0087e7b3          	or	a5,a5,s0
80004e44:	02812403          	lw	s0,40(sp)
80004e48:	01f69693          	slli	a3,a3,0x1f
80004e4c:	00d7e7b3          	or	a5,a5,a3
80004e50:	02412483          	lw	s1,36(sp)
80004e54:	02012903          	lw	s2,32(sp)
80004e58:	01c12983          	lw	s3,28(sp)
80004e5c:	01812a03          	lw	s4,24(sp)
80004e60:	01412a83          	lw	s5,20(sp)
80004e64:	01012b03          	lw	s6,16(sp)
80004e68:	00c12b83          	lw	s7,12(sp)
80004e6c:	00812c03          	lw	s8,8(sp)
80004e70:	00412c83          	lw	s9,4(sp)
80004e74:	00012d03          	lw	s10,0(sp)
80004e78:	00070513          	mv	a0,a4
80004e7c:	00078593          	mv	a1,a5
80004e80:	03010113          	addi	sp,sp,48
80004e84:	00008067          	ret
80004e88:	001bd793          	srli	a5,s7,0x1
80004e8c:	001bfb93          	andi	s7,s7,1
80004e90:	0177e7b3          	or	a5,a5,s7
80004e94:	01f41b93          	slli	s7,s0,0x1f
80004e98:	0177ebb3          	or	s7,a5,s7
80004e9c:	00145413          	srli	s0,s0,0x1
80004ea0:	400b0793          	addi	a5,s6,1024
80004ea4:	001b0b13          	addi	s6,s6,1
80004ea8:	14f05663          	blez	a5,80004ff4 <__muldf3+0x580>
80004eac:	007bf713          	andi	a4,s7,7
80004eb0:	e80708e3          	beqz	a4,80004d40 <__muldf3+0x2cc>
80004eb4:	00fbf713          	andi	a4,s7,15
80004eb8:	00400613          	li	a2,4
80004ebc:	e6c71ae3          	bne	a4,a2,80004d30 <__muldf3+0x2bc>
80004ec0:	e81ff06f          	j	80004d40 <__muldf3+0x2cc>
80004ec4:	018ae833          	or	a6,s5,s8
80004ec8:	7ffb0b13          	addi	s6,s6,2047
80004ecc:	0c081a63          	bnez	a6,80004fa0 <__muldf3+0x52c>
80004ed0:	002ce793          	ori	a5,s9,2
80004ed4:	00a00713          	li	a4,10
80004ed8:	f2f74ae3          	blt	a4,a5,80004e0c <__muldf3+0x398>
80004edc:	009a45b3          	xor	a1,s4,s1
80004ee0:	00058693          	mv	a3,a1
80004ee4:	280c8a63          	beqz	s9,80005178 <__muldf3+0x704>
80004ee8:	00078c93          	mv	s9,a5
80004eec:	00000a93          	li	s5,0
80004ef0:	00200793          	li	a5,2
80004ef4:	c61ff06f          	j	80004b54 <__muldf3+0xe0>
80004ef8:	00a46bb3          	or	s7,s0,a0
80004efc:	040b8463          	beqz	s7,80004f44 <__muldf3+0x4d0>
80004f00:	1a040263          	beqz	s0,800050a4 <__muldf3+0x630>
80004f04:	00040513          	mv	a0,s0
80004f08:	7e5010ef          	jal	80006eec <__clzsi2>
80004f0c:	00050713          	mv	a4,a0
80004f10:	ff550693          	addi	a3,a0,-11
80004f14:	01d00793          	li	a5,29
80004f18:	ff870b93          	addi	s7,a4,-8
80004f1c:	40d787b3          	sub	a5,a5,a3
80004f20:	01741433          	sll	s0,s0,s7
80004f24:	00fad7b3          	srl	a5,s5,a5
80004f28:	0087e433          	or	s0,a5,s0
80004f2c:	017a9bb3          	sll	s7,s5,s7
80004f30:	c0d00793          	li	a5,-1011
80004f34:	40e78b33          	sub	s6,a5,a4
80004f38:	00000c93          	li	s9,0
80004f3c:	00000d13          	li	s10,0
80004f40:	bb9ff06f          	j	80004af8 <__muldf3+0x84>
80004f44:	00000413          	li	s0,0
80004f48:	00400c93          	li	s9,4
80004f4c:	00000b13          	li	s6,0
80004f50:	00100d13          	li	s10,1
80004f54:	ba5ff06f          	j	80004af8 <__muldf3+0x84>
80004f58:	001cec93          	ori	s9,s9,1
80004f5c:	00a00793          	li	a5,10
80004f60:	eb97c6e3          	blt	a5,s9,80004e0c <__muldf3+0x398>
80004f64:	009a45b3          	xor	a1,s4,s1
80004f68:	00200713          	li	a4,2
80004f6c:	00058693          	mv	a3,a1
80004f70:	00000a93          	li	s5,0
80004f74:	00100793          	li	a5,1
80004f78:	bd974ee3          	blt	a4,s9,80004b54 <__muldf3+0xe0>
80004f7c:	00200713          	li	a4,2
80004f80:	0ee78863          	beq	a5,a4,80005070 <__muldf3+0x5fc>
80004f84:	00100d13          	li	s10,1
80004f88:	00100793          	li	a5,1
80004f8c:	00000413          	li	s0,0
80004f90:	00000b93          	li	s7,0
80004f94:	00058693          	mv	a3,a1
80004f98:	f0fd14e3          	bne	s10,a5,80004ea0 <__muldf3+0x42c>
80004f9c:	e91ff06f          	j	80004e2c <__muldf3+0x3b8>
80004fa0:	003cec93          	ori	s9,s9,3
80004fa4:	00a00713          	li	a4,10
80004fa8:	1d974063          	blt	a4,s9,80005168 <__muldf3+0x6f4>
80004fac:	00100713          	li	a4,1
80004fb0:	01971633          	sll	a2,a4,s9
80004fb4:	08867613          	andi	a2,a2,136
80004fb8:	009a46b3          	xor	a3,s4,s1
80004fbc:	000c0813          	mv	a6,s8
80004fc0:	00300793          	li	a5,3
80004fc4:	ba0608e3          	beqz	a2,80004b74 <__muldf3+0x100>
80004fc8:	0900006f          	j	80005058 <__muldf3+0x5e4>
80004fcc:	00050b93          	mv	s7,a0
80004fd0:	00078b13          	mv	s6,a5
80004fd4:	00c00c93          	li	s9,12
80004fd8:	00300d13          	li	s10,3
80004fdc:	b1dff06f          	j	80004af8 <__muldf3+0x84>
80004fe0:	00000693          	li	a3,0
80004fe4:	7ff00793          	li	a5,2047
80004fe8:	00080437          	lui	s0,0x80
80004fec:	00000713          	li	a4,0
80004ff0:	e49ff06f          	j	80004e38 <__muldf3+0x3c4>
80004ff4:	00100613          	li	a2,1
80004ff8:	0e079c63          	bnez	a5,800050f0 <__muldf3+0x67c>
80004ffc:	41eb0b13          	addi	s6,s6,1054
80005000:	016b97b3          	sll	a5,s7,s6
80005004:	00f037b3          	snez	a5,a5
80005008:	01641b33          	sll	s6,s0,s6
8000500c:	0167e7b3          	or	a5,a5,s6
80005010:	00cbd733          	srl	a4,s7,a2
80005014:	00f76733          	or	a4,a4,a5
80005018:	00777793          	andi	a5,a4,7
8000501c:	00c45633          	srl	a2,s0,a2
80005020:	02078063          	beqz	a5,80005040 <__muldf3+0x5cc>
80005024:	00f77793          	andi	a5,a4,15
80005028:	00400593          	li	a1,4
8000502c:	00b78a63          	beq	a5,a1,80005040 <__muldf3+0x5cc>
80005030:	00b707b3          	add	a5,a4,a1
80005034:	00e7b733          	sltu	a4,a5,a4
80005038:	00e60633          	add	a2,a2,a4
8000503c:	00078713          	mv	a4,a5
80005040:	00861793          	slli	a5,a2,0x8
80005044:	1207de63          	bgez	a5,80005180 <__muldf3+0x70c>
80005048:	00100793          	li	a5,1
8000504c:	00000413          	li	s0,0
80005050:	00000713          	li	a4,0
80005054:	de5ff06f          	j	80004e38 <__muldf3+0x3c4>
80005058:	00078d13          	mv	s10,a5
8000505c:	00200793          	li	a5,2
80005060:	00048593          	mv	a1,s1
80005064:	000a8413          	mv	s0,s5
80005068:	00080b93          	mv	s7,a6
8000506c:	dafd16e3          	bne	s10,a5,80004e18 <__muldf3+0x3a4>
80005070:	00058693          	mv	a3,a1
80005074:	7ff00793          	li	a5,2047
80005078:	00000413          	li	s0,0
8000507c:	00000713          	li	a4,0
80005080:	db9ff06f          	j	80004e38 <__muldf3+0x3c4>
80005084:	00000693          	li	a3,0
80005088:	7ff00793          	li	a5,2047
8000508c:	00080437          	lui	s0,0x80
80005090:	da9ff06f          	j	80004e38 <__muldf3+0x3c4>
80005094:	7ff00793          	li	a5,2047
80005098:	00000413          	li	s0,0
8000509c:	00000713          	li	a4,0
800050a0:	d99ff06f          	j	80004e38 <__muldf3+0x3c4>
800050a4:	649010ef          	jal	80006eec <__clzsi2>
800050a8:	01550693          	addi	a3,a0,21
800050ac:	01c00793          	li	a5,28
800050b0:	02050713          	addi	a4,a0,32
800050b4:	e6d7d0e3          	bge	a5,a3,80004f14 <__muldf3+0x4a0>
800050b8:	ff850513          	addi	a0,a0,-8
800050bc:	00aa9433          	sll	s0,s5,a0
800050c0:	00000b93          	li	s7,0
800050c4:	e6dff06f          	j	80004f30 <__muldf3+0x4bc>
800050c8:	000c0513          	mv	a0,s8
800050cc:	621010ef          	jal	80006eec <__clzsi2>
800050d0:	01550713          	addi	a4,a0,21
800050d4:	01c00693          	li	a3,28
800050d8:	02050793          	addi	a5,a0,32
800050dc:	cee6d6e3          	bge	a3,a4,80004dc8 <__muldf3+0x354>
800050e0:	ff850513          	addi	a0,a0,-8
800050e4:	00ac1ab3          	sll	s5,s8,a0
800050e8:	00000813          	li	a6,0
800050ec:	cf9ff06f          	j	80004de4 <__muldf3+0x370>
800050f0:	40f60633          	sub	a2,a2,a5
800050f4:	03800713          	li	a4,56
800050f8:	d2c74ae3          	blt	a4,a2,80004e2c <__muldf3+0x3b8>
800050fc:	01f00713          	li	a4,31
80005100:	eec75ee3          	bge	a4,a2,80004ffc <__muldf3+0x588>
80005104:	fe100713          	li	a4,-31
80005108:	40f707b3          	sub	a5,a4,a5
8000510c:	02000713          	li	a4,32
80005110:	00f457b3          	srl	a5,s0,a5
80005114:	00e60863          	beq	a2,a4,80005124 <__muldf3+0x6b0>
80005118:	43eb0b13          	addi	s6,s6,1086
8000511c:	01641b33          	sll	s6,s0,s6
80005120:	016bebb3          	or	s7,s7,s6
80005124:	01703733          	snez	a4,s7
80005128:	00f76733          	or	a4,a4,a5
8000512c:	00777793          	andi	a5,a4,7
80005130:	00000413          	li	s0,0
80005134:	02078263          	beqz	a5,80005158 <__muldf3+0x6e4>
80005138:	00f77613          	andi	a2,a4,15
8000513c:	00400593          	li	a1,4
80005140:	00000793          	li	a5,0
80005144:	00b60a63          	beq	a2,a1,80005158 <__muldf3+0x6e4>
80005148:	00b70633          	add	a2,a4,a1
8000514c:	00e63733          	sltu	a4,a2,a4
80005150:	01d71793          	slli	a5,a4,0x1d
80005154:	00060713          	mv	a4,a2
80005158:	00375713          	srli	a4,a4,0x3
8000515c:	00f76733          	or	a4,a4,a5
80005160:	00000793          	li	a5,0
80005164:	cd5ff06f          	j	80004e38 <__muldf3+0x3c4>
80005168:	00000693          	li	a3,0
8000516c:	00080437          	lui	s0,0x80
80005170:	00000713          	li	a4,0
80005174:	cc5ff06f          	j	80004e38 <__muldf3+0x3c4>
80005178:	00200793          	li	a5,2
8000517c:	e01ff06f          	j	80004f7c <__muldf3+0x508>
80005180:	00961413          	slli	s0,a2,0x9
80005184:	00c45413          	srli	s0,s0,0xc
80005188:	01d61793          	slli	a5,a2,0x1d
8000518c:	fcdff06f          	j	80005158 <__muldf3+0x6e4>

80005190 <__fixdfsi>:
80005190:	0145d793          	srli	a5,a1,0x14
80005194:	001006b7          	lui	a3,0x100
80005198:	fff68713          	addi	a4,a3,-1 # fffff <_start-0x7ff00001>
8000519c:	7ff7f793          	andi	a5,a5,2047
800051a0:	3fe00613          	li	a2,1022
800051a4:	00b77733          	and	a4,a4,a1
800051a8:	01f5d593          	srli	a1,a1,0x1f
800051ac:	00f65e63          	bge	a2,a5,800051c8 <__fixdfsi+0x38>
800051b0:	41d00613          	li	a2,1053
800051b4:	00f65e63          	bge	a2,a5,800051d0 <__fixdfsi+0x40>
800051b8:	80000537          	lui	a0,0x80000
800051bc:	fff50513          	addi	a0,a0,-1 # 7fffffff <_start-0x1>
800051c0:	00a58533          	add	a0,a1,a0
800051c4:	00008067          	ret
800051c8:	00000513          	li	a0,0
800051cc:	00008067          	ret
800051d0:	43300613          	li	a2,1075
800051d4:	40f60633          	sub	a2,a2,a5
800051d8:	01f00813          	li	a6,31
800051dc:	00d76733          	or	a4,a4,a3
800051e0:	02c85063          	bge	a6,a2,80005200 <__fixdfsi+0x70>
800051e4:	41300693          	li	a3,1043
800051e8:	40f687b3          	sub	a5,a3,a5
800051ec:	00f75733          	srl	a4,a4,a5
800051f0:	40e00533          	neg	a0,a4
800051f4:	fc059ce3          	bnez	a1,800051cc <__fixdfsi+0x3c>
800051f8:	00070513          	mv	a0,a4
800051fc:	00008067          	ret
80005200:	bed78793          	addi	a5,a5,-1043
80005204:	00f71733          	sll	a4,a4,a5
80005208:	00c55533          	srl	a0,a0,a2
8000520c:	00a76733          	or	a4,a4,a0
80005210:	fe1ff06f          	j	800051f0 <__fixdfsi+0x60>

80005214 <__floatsidf>:
80005214:	fe010113          	addi	sp,sp,-32
80005218:	00112e23          	sw	ra,28(sp)
8000521c:	00812c23          	sw	s0,24(sp)
80005220:	00912a23          	sw	s1,20(sp)
80005224:	01212823          	sw	s2,16(sp)
80005228:	01312623          	sw	s3,12(sp)
8000522c:	04050a63          	beqz	a0,80005280 <__floatsidf+0x6c>
80005230:	41f55713          	srai	a4,a0,0x1f
80005234:	00a744b3          	xor	s1,a4,a0
80005238:	40e484b3          	sub	s1,s1,a4
8000523c:	00050793          	mv	a5,a0
80005240:	00048513          	mv	a0,s1
80005244:	01f7d413          	srli	s0,a5,0x1f
80005248:	4a5010ef          	jal	80006eec <__clzsi2>
8000524c:	41e00793          	li	a5,1054
80005250:	40a787b3          	sub	a5,a5,a0
80005254:	00a00713          	li	a4,10
80005258:	7ff7f793          	andi	a5,a5,2047
8000525c:	06a74463          	blt	a4,a0,800052c4 <__floatsidf+0xb0>
80005260:	00b00713          	li	a4,11
80005264:	40a70733          	sub	a4,a4,a0
80005268:	00e4d733          	srl	a4,s1,a4
8000526c:	00c71713          	slli	a4,a4,0xc
80005270:	01550513          	addi	a0,a0,21
80005274:	00c75713          	srli	a4,a4,0xc
80005278:	00a494b3          	sll	s1,s1,a0
8000527c:	0140006f          	j	80005290 <__floatsidf+0x7c>
80005280:	00000413          	li	s0,0
80005284:	00000793          	li	a5,0
80005288:	00000713          	li	a4,0
8000528c:	00000493          	li	s1,0
80005290:	01479793          	slli	a5,a5,0x14
80005294:	01f41413          	slli	s0,s0,0x1f
80005298:	00e7e7b3          	or	a5,a5,a4
8000529c:	01c12083          	lw	ra,28(sp)
800052a0:	0087e7b3          	or	a5,a5,s0
800052a4:	01812403          	lw	s0,24(sp)
800052a8:	01012903          	lw	s2,16(sp)
800052ac:	00c12983          	lw	s3,12(sp)
800052b0:	00048513          	mv	a0,s1
800052b4:	00078593          	mv	a1,a5
800052b8:	01412483          	lw	s1,20(sp)
800052bc:	02010113          	addi	sp,sp,32
800052c0:	00008067          	ret
800052c4:	ff550513          	addi	a0,a0,-11
800052c8:	00a49733          	sll	a4,s1,a0
800052cc:	00c71713          	slli	a4,a4,0xc
800052d0:	00c75713          	srli	a4,a4,0xc
800052d4:	00000493          	li	s1,0
800052d8:	fb9ff06f          	j	80005290 <__floatsidf+0x7c>

800052dc <__addsf3>:
800052dc:	008006b7          	lui	a3,0x800
800052e0:	fe010113          	addi	sp,sp,-32
800052e4:	01755793          	srli	a5,a0,0x17
800052e8:	0175d613          	srli	a2,a1,0x17
800052ec:	fff68693          	addi	a3,a3,-1 # 7fffff <_start-0x7f800001>
800052f0:	00a6f733          	and	a4,a3,a0
800052f4:	00912a23          	sw	s1,20(sp)
800052f8:	01212823          	sw	s2,16(sp)
800052fc:	0ff67613          	zext.b	a2,a2
80005300:	0ff7f913          	zext.b	s2,a5
80005304:	01f55493          	srli	s1,a0,0x1f
80005308:	00112e23          	sw	ra,28(sp)
8000530c:	00b6f533          	and	a0,a3,a1
80005310:	01f5d593          	srli	a1,a1,0x1f
80005314:	40c907b3          	sub	a5,s2,a2
80005318:	00371313          	slli	t1,a4,0x3
8000531c:	00351893          	slli	a7,a0,0x3
80005320:	0eb48663          	beq	s1,a1,8000540c <__addsf3+0x130>
80005324:	0cf05063          	blez	a5,800053e4 <__addsf3+0x108>
80005328:	16060263          	beqz	a2,8000548c <__addsf3+0x1b0>
8000532c:	0ff00693          	li	a3,255
80005330:	24d90c63          	beq	s2,a3,80005588 <__addsf3+0x2ac>
80005334:	04000737          	lui	a4,0x4000
80005338:	00e8e8b3          	or	a7,a7,a4
8000533c:	01b00713          	li	a4,27
80005340:	30f75a63          	bge	a4,a5,80005654 <__addsf3+0x378>
80005344:	fff30793          	addi	a5,t1,-1
80005348:	00579713          	slli	a4,a5,0x5
8000534c:	22075463          	bgez	a4,80005574 <__addsf3+0x298>
80005350:	00812c23          	sw	s0,24(sp)
80005354:	fff00313          	li	t1,-1
80005358:	00631693          	slli	a3,t1,0x6
8000535c:	0066d413          	srli	s0,a3,0x6
80005360:	00040513          	mv	a0,s0
80005364:	389010ef          	jal	80006eec <__clzsi2>
80005368:	ffb50513          	addi	a0,a0,-5
8000536c:	00a416b3          	sll	a3,s0,a0
80005370:	29255a63          	bge	a0,s2,80005604 <__addsf3+0x328>
80005374:	fc000337          	lui	t1,0xfc000
80005378:	fff30313          	addi	t1,t1,-1 # fbffffff <qscmp+0x7bfcdfe7>
8000537c:	0076f713          	andi	a4,a3,7
80005380:	40a907b3          	sub	a5,s2,a0
80005384:	0066f333          	and	t1,a3,t1
80005388:	58070263          	beqz	a4,8000590c <__addsf3+0x630>
8000538c:	00f6f693          	andi	a3,a3,15
80005390:	00400713          	li	a4,4
80005394:	01812403          	lw	s0,24(sp)
80005398:	1ee68263          	beq	a3,a4,8000557c <__addsf3+0x2a0>
8000539c:	00430313          	addi	t1,t1,4
800053a0:	00531713          	slli	a4,t1,0x5
800053a4:	1c075c63          	bgez	a4,8000557c <__addsf3+0x2a0>
800053a8:	00178793          	addi	a5,a5,1
800053ac:	0ff00713          	li	a4,255
800053b0:	00048813          	mv	a6,s1
800053b4:	10e79463          	bne	a5,a4,800054bc <__addsf3+0x1e0>
800053b8:	00078513          	mv	a0,a5
800053bc:	00000713          	li	a4,0
800053c0:	01c12083          	lw	ra,28(sp)
800053c4:	01751513          	slli	a0,a0,0x17
800053c8:	00e56533          	or	a0,a0,a4
800053cc:	01f81793          	slli	a5,a6,0x1f
800053d0:	01412483          	lw	s1,20(sp)
800053d4:	01012903          	lw	s2,16(sp)
800053d8:	00f56533          	or	a0,a0,a5
800053dc:	02010113          	addi	sp,sp,32
800053e0:	00008067          	ret
800053e4:	0e078463          	beqz	a5,800054cc <__addsf3+0x1f0>
800053e8:	412607b3          	sub	a5,a2,s2
800053ec:	14091e63          	bnez	s2,80005548 <__addsf3+0x26c>
800053f0:	3a030a63          	beqz	t1,800057a4 <__addsf3+0x4c8>
800053f4:	fff78713          	addi	a4,a5,-1
800053f8:	46070c63          	beqz	a4,80005870 <__addsf3+0x594>
800053fc:	0ff00693          	li	a3,255
80005400:	3ed78e63          	beq	a5,a3,800057fc <__addsf3+0x520>
80005404:	00070793          	mv	a5,a4
80005408:	1500006f          	j	80005558 <__addsf3+0x27c>
8000540c:	00048813          	mv	a6,s1
80005410:	18f05a63          	blez	a5,800055a4 <__addsf3+0x2c8>
80005414:	10061263          	bnez	a2,80005518 <__addsf3+0x23c>
80005418:	16088263          	beqz	a7,8000557c <__addsf3+0x2a0>
8000541c:	fff78693          	addi	a3,a5,-1
80005420:	38068e63          	beqz	a3,800057bc <__addsf3+0x4e0>
80005424:	0ff00613          	li	a2,255
80005428:	16c78063          	beq	a5,a2,80005588 <__addsf3+0x2ac>
8000542c:	01b00793          	li	a5,27
80005430:	0ed7cc63          	blt	a5,a3,80005528 <__addsf3+0x24c>
80005434:	00068793          	mv	a5,a3
80005438:	02000713          	li	a4,32
8000543c:	40f70733          	sub	a4,a4,a5
80005440:	00e89733          	sll	a4,a7,a4
80005444:	00e03733          	snez	a4,a4
80005448:	00f8d7b3          	srl	a5,a7,a5
8000544c:	00e7e7b3          	or	a5,a5,a4
80005450:	00f30333          	add	t1,t1,a5
80005454:	00531793          	slli	a5,t1,0x5
80005458:	2207d463          	bgez	a5,80005680 <__addsf3+0x3a4>
8000545c:	00190793          	addi	a5,s2,1
80005460:	0ff00713          	li	a4,255
80005464:	f4e78ae3          	beq	a5,a4,800053b8 <__addsf3+0xdc>
80005468:	7e0006b7          	lui	a3,0x7e000
8000546c:	00135713          	srli	a4,t1,0x1
80005470:	fff68693          	addi	a3,a3,-1 # 7dffffff <_start-0x2000001>
80005474:	00d77733          	and	a4,a4,a3
80005478:	00137313          	andi	t1,t1,1
8000547c:	00676333          	or	t1,a4,t1
80005480:	00737713          	andi	a4,t1,7
80005484:	1a071a63          	bnez	a4,80005638 <__addsf3+0x35c>
80005488:	1bc0006f          	j	80005644 <__addsf3+0x368>
8000548c:	0e088863          	beqz	a7,8000557c <__addsf3+0x2a0>
80005490:	fff78693          	addi	a3,a5,-1
80005494:	14068063          	beqz	a3,800055d4 <__addsf3+0x2f8>
80005498:	0ff00613          	li	a2,255
8000549c:	0ec78663          	beq	a5,a2,80005588 <__addsf3+0x2ac>
800054a0:	00068793          	mv	a5,a3
800054a4:	e99ff06f          	j	8000533c <__addsf3+0x60>
800054a8:	00531713          	slli	a4,t1,0x5
800054ac:	44075a63          	bgez	a4,80005900 <__addsf3+0x624>
800054b0:	01812403          	lw	s0,24(sp)
800054b4:	00048813          	mv	a6,s1
800054b8:	00100793          	li	a5,1
800054bc:	0ff7f513          	zext.b	a0,a5
800054c0:	00631713          	slli	a4,t1,0x6
800054c4:	00975713          	srli	a4,a4,0x9
800054c8:	ef9ff06f          	j	800053c0 <__addsf3+0xe4>
800054cc:	00190693          	addi	a3,s2,1
800054d0:	0fe6f693          	andi	a3,a3,254
800054d4:	20069463          	bnez	a3,800056dc <__addsf3+0x400>
800054d8:	0a091e63          	bnez	s2,80005594 <__addsf3+0x2b8>
800054dc:	38030263          	beqz	t1,80005860 <__addsf3+0x584>
800054e0:	04088a63          	beqz	a7,80005534 <__addsf3+0x258>
800054e4:	41130733          	sub	a4,t1,a7
800054e8:	00571693          	slli	a3,a4,0x5
800054ec:	3406d663          	bgez	a3,80005838 <__addsf3+0x55c>
800054f0:	40688333          	sub	t1,a7,t1
800054f4:	00058813          	mv	a6,a1
800054f8:	34030463          	beqz	t1,80005840 <__addsf3+0x564>
800054fc:	00531793          	slli	a5,t1,0x5
80005500:	00100513          	li	a0,1
80005504:	fa07cee3          	bltz	a5,800054c0 <__addsf3+0x1e4>
80005508:	00335713          	srli	a4,t1,0x3
8000550c:	00058493          	mv	s1,a1
80005510:	00000793          	li	a5,0
80005514:	0200006f          	j	80005534 <__addsf3+0x258>
80005518:	0ff00693          	li	a3,255
8000551c:	06d90663          	beq	s2,a3,80005588 <__addsf3+0x2ac>
80005520:	01b00713          	li	a4,27
80005524:	1ef75063          	bge	a4,a5,80005704 <__addsf3+0x428>
80005528:	00530713          	addi	a4,t1,5
8000552c:	00375713          	srli	a4,a4,0x3
80005530:	00090793          	mv	a5,s2
80005534:	00971713          	slli	a4,a4,0x9
80005538:	00975713          	srli	a4,a4,0x9
8000553c:	0ff7f513          	zext.b	a0,a5
80005540:	00048813          	mv	a6,s1
80005544:	e7dff06f          	j	800053c0 <__addsf3+0xe4>
80005548:	0ff00713          	li	a4,255
8000554c:	2ae60863          	beq	a2,a4,800057fc <__addsf3+0x520>
80005550:	04000737          	lui	a4,0x4000
80005554:	00e36333          	or	t1,t1,a4
80005558:	01b00713          	li	a4,27
8000555c:	1af75a63          	bge	a4,a5,80005710 <__addsf3+0x434>
80005560:	fff88793          	addi	a5,a7,-1 # ffff <_start-0x7fff0001>
80005564:	00579713          	slli	a4,a5,0x5
80005568:	2e074263          	bltz	a4,8000584c <__addsf3+0x570>
8000556c:	00058493          	mv	s1,a1
80005570:	00060913          	mv	s2,a2
80005574:	00478313          	addi	t1,a5,4
80005578:	00090793          	mv	a5,s2
8000557c:	0ff00693          	li	a3,255
80005580:	00335713          	srli	a4,t1,0x3
80005584:	fad798e3          	bne	a5,a3,80005534 <__addsf3+0x258>
80005588:	00048813          	mv	a6,s1
8000558c:	0ff00513          	li	a0,255
80005590:	e20708e3          	beqz	a4,800053c0 <__addsf3+0xe4>
80005594:	00000813          	li	a6,0
80005598:	0ff00513          	li	a0,255
8000559c:	00400737          	lui	a4,0x400
800055a0:	e21ff06f          	j	800053c0 <__addsf3+0xe4>
800055a4:	0e078c63          	beqz	a5,8000569c <__addsf3+0x3c0>
800055a8:	412607b3          	sub	a5,a2,s2
800055ac:	1a091e63          	bnez	s2,80005768 <__addsf3+0x48c>
800055b0:	1e030c63          	beqz	t1,800057a8 <__addsf3+0x4cc>
800055b4:	fff78713          	addi	a4,a5,-1
800055b8:	20070263          	beqz	a4,800057bc <__addsf3+0x4e0>
800055bc:	0ff00693          	li	a3,255
800055c0:	24d78063          	beq	a5,a3,80005800 <__addsf3+0x524>
800055c4:	01b00793          	li	a5,27
800055c8:	26e7c063          	blt	a5,a4,80005828 <__addsf3+0x54c>
800055cc:	00070793          	mv	a5,a4
800055d0:	1b00006f          	j	80005780 <__addsf3+0x4a4>
800055d4:	41130733          	sub	a4,t1,a7
800055d8:	00571693          	slli	a3,a4,0x5
800055dc:	040007b7          	lui	a5,0x4000
800055e0:	2206de63          	bgez	a3,8000581c <__addsf3+0x540>
800055e4:	fff78793          	addi	a5,a5,-1 # 3ffffff <_start-0x7c000001>
800055e8:	00812c23          	sw	s0,24(sp)
800055ec:	00f77433          	and	s0,a4,a5
800055f0:	00040513          	mv	a0,s0
800055f4:	0f9010ef          	jal	80006eec <__clzsi2>
800055f8:	ffb50513          	addi	a0,a0,-5
800055fc:	00a416b3          	sll	a3,s0,a0
80005600:	00100913          	li	s2,1
80005604:	412507b3          	sub	a5,a0,s2
80005608:	00178793          	addi	a5,a5,1
8000560c:	02000313          	li	t1,32
80005610:	40f30333          	sub	t1,t1,a5
80005614:	00669333          	sll	t1,a3,t1
80005618:	00603333          	snez	t1,t1
8000561c:	00f6d6b3          	srl	a3,a3,a5
80005620:	0066e333          	or	t1,a3,t1
80005624:	1e030263          	beqz	t1,80005808 <__addsf3+0x52c>
80005628:	00737713          	andi	a4,t1,7
8000562c:	00000793          	li	a5,0
80005630:	e6070ce3          	beqz	a4,800054a8 <__addsf3+0x1cc>
80005634:	01812403          	lw	s0,24(sp)
80005638:	00f37713          	andi	a4,t1,15
8000563c:	00400693          	li	a3,4
80005640:	d4d71ee3          	bne	a4,a3,8000539c <__addsf3+0xc0>
80005644:	00531713          	slli	a4,t1,0x5
80005648:	d60740e3          	bltz	a4,800053a8 <__addsf3+0xcc>
8000564c:	00335713          	srli	a4,t1,0x3
80005650:	ee5ff06f          	j	80005534 <__addsf3+0x258>
80005654:	02000713          	li	a4,32
80005658:	40f70733          	sub	a4,a4,a5
8000565c:	00e89733          	sll	a4,a7,a4
80005660:	00e03733          	snez	a4,a4
80005664:	00f8d7b3          	srl	a5,a7,a5
80005668:	00e7e7b3          	or	a5,a5,a4
8000566c:	40f30333          	sub	t1,t1,a5
80005670:	00531793          	slli	a5,t1,0x5
80005674:	0007d663          	bgez	a5,80005680 <__addsf3+0x3a4>
80005678:	00812c23          	sw	s0,24(sp)
8000567c:	cddff06f          	j	80005358 <__addsf3+0x7c>
80005680:	00737793          	andi	a5,t1,7
80005684:	28078863          	beqz	a5,80005914 <__addsf3+0x638>
80005688:	00f37713          	andi	a4,t1,15
8000568c:	00400693          	li	a3,4
80005690:	00090793          	mv	a5,s2
80005694:	d0d714e3          	bne	a4,a3,8000539c <__addsf3+0xc0>
80005698:	ee5ff06f          	j	8000557c <__addsf3+0x2a0>
8000569c:	00190793          	addi	a5,s2,1
800056a0:	0fe7f613          	andi	a2,a5,254
800056a4:	08061a63          	bnez	a2,80005738 <__addsf3+0x45c>
800056a8:	20091463          	bnez	s2,800058b0 <__addsf3+0x5d4>
800056ac:	20030863          	beqz	t1,800058bc <__addsf3+0x5e0>
800056b0:	20088a63          	beqz	a7,800058c4 <__addsf3+0x5e8>
800056b4:	01130733          	add	a4,t1,a7
800056b8:	00571793          	slli	a5,a4,0x5
800056bc:	2207d063          	bgez	a5,800058dc <__addsf3+0x600>
800056c0:	1f8007b7          	lui	a5,0x1f800
800056c4:	00375713          	srli	a4,a4,0x3
800056c8:	fff78793          	addi	a5,a5,-1 # 1f7fffff <_start-0x60800001>
800056cc:	00f77733          	and	a4,a4,a5
800056d0:	00d77733          	and	a4,a4,a3
800056d4:	00100513          	li	a0,1
800056d8:	ce9ff06f          	j	800053c0 <__addsf3+0xe4>
800056dc:	00812c23          	sw	s0,24(sp)
800056e0:	41130433          	sub	s0,t1,a7
800056e4:	00541793          	slli	a5,s0,0x5
800056e8:	0c07c463          	bltz	a5,800057b0 <__addsf3+0x4d4>
800056ec:	c6041ae3          	bnez	s0,80005360 <__addsf3+0x84>
800056f0:	01812403          	lw	s0,24(sp)
800056f4:	00000813          	li	a6,0
800056f8:	00000513          	li	a0,0
800056fc:	00000713          	li	a4,0
80005700:	cc1ff06f          	j	800053c0 <__addsf3+0xe4>
80005704:	04000737          	lui	a4,0x4000
80005708:	00e8e8b3          	or	a7,a7,a4
8000570c:	d2dff06f          	j	80005438 <__addsf3+0x15c>
80005710:	02000713          	li	a4,32
80005714:	40f70733          	sub	a4,a4,a5
80005718:	00e31733          	sll	a4,t1,a4
8000571c:	00f357b3          	srl	a5,t1,a5
80005720:	00e03733          	snez	a4,a4
80005724:	00e7e7b3          	or	a5,a5,a4
80005728:	00060913          	mv	s2,a2
8000572c:	00058493          	mv	s1,a1
80005730:	40f88333          	sub	t1,a7,a5
80005734:	f3dff06f          	j	80005670 <__addsf3+0x394>
80005738:	0ff00713          	li	a4,255
8000573c:	c6e78ee3          	beq	a5,a4,800053b8 <__addsf3+0xdc>
80005740:	01130733          	add	a4,t1,a7
80005744:	00175713          	srli	a4,a4,0x1
80005748:	00777693          	andi	a3,a4,7
8000574c:	00068a63          	beqz	a3,80005760 <__addsf3+0x484>
80005750:	00400613          	li	a2,4
80005754:	00f77693          	andi	a3,a4,15
80005758:	00c70333          	add	t1,a4,a2
8000575c:	e2c690e3          	bne	a3,a2,8000557c <__addsf3+0x2a0>
80005760:	00375713          	srli	a4,a4,0x3
80005764:	dd1ff06f          	j	80005534 <__addsf3+0x258>
80005768:	0ff00713          	li	a4,255
8000576c:	08e60a63          	beq	a2,a4,80005800 <__addsf3+0x524>
80005770:	01b00713          	li	a4,27
80005774:	0af74a63          	blt	a4,a5,80005828 <__addsf3+0x54c>
80005778:	04000737          	lui	a4,0x4000
8000577c:	00e36333          	or	t1,t1,a4
80005780:	02000713          	li	a4,32
80005784:	40f70733          	sub	a4,a4,a5
80005788:	00e31733          	sll	a4,t1,a4
8000578c:	00f357b3          	srl	a5,t1,a5
80005790:	00e03733          	snez	a4,a4
80005794:	00e7e7b3          	or	a5,a5,a4
80005798:	00060913          	mv	s2,a2
8000579c:	01178333          	add	t1,a5,a7
800057a0:	cb5ff06f          	j	80005454 <__addsf3+0x178>
800057a4:	00058493          	mv	s1,a1
800057a8:	00088313          	mv	t1,a7
800057ac:	dd1ff06f          	j	8000557c <__addsf3+0x2a0>
800057b0:	40688433          	sub	s0,a7,t1
800057b4:	00058493          	mv	s1,a1
800057b8:	ba9ff06f          	j	80005360 <__addsf3+0x84>
800057bc:	011307b3          	add	a5,t1,a7
800057c0:	00579713          	slli	a4,a5,0x5
800057c4:	12075263          	bgez	a4,800058e8 <__addsf3+0x60c>
800057c8:	0017d793          	srli	a5,a5,0x1
800057cc:	7e000737          	lui	a4,0x7e000
800057d0:	fff70713          	addi	a4,a4,-1 # 7dffffff <_start-0x2000001>
800057d4:	0077f693          	andi	a3,a5,7
800057d8:	00e7f733          	and	a4,a5,a4
800057dc:	10068c63          	beqz	a3,800058f4 <__addsf3+0x618>
800057e0:	00f7f693          	andi	a3,a5,15
800057e4:	00400613          	li	a2,4
800057e8:	00c70333          	add	t1,a4,a2
800057ec:	00200793          	li	a5,2
800057f0:	d8c696e3          	bne	a3,a2,8000557c <__addsf3+0x2a0>
800057f4:	00375713          	srli	a4,a4,0x3
800057f8:	d3dff06f          	j	80005534 <__addsf3+0x258>
800057fc:	00058493          	mv	s1,a1
80005800:	00050713          	mv	a4,a0
80005804:	d85ff06f          	j	80005588 <__addsf3+0x2ac>
80005808:	01812403          	lw	s0,24(sp)
8000580c:	00048813          	mv	a6,s1
80005810:	00000513          	li	a0,0
80005814:	00000713          	li	a4,0
80005818:	ba9ff06f          	j	800053c0 <__addsf3+0xe4>
8000581c:	00375713          	srli	a4,a4,0x3
80005820:	00100793          	li	a5,1
80005824:	d11ff06f          	j	80005534 <__addsf3+0x258>
80005828:	00588713          	addi	a4,a7,5
8000582c:	00375713          	srli	a4,a4,0x3
80005830:	00060793          	mv	a5,a2
80005834:	d01ff06f          	j	80005534 <__addsf3+0x258>
80005838:	f20714e3          	bnez	a4,80005760 <__addsf3+0x484>
8000583c:	00000813          	li	a6,0
80005840:	00000513          	li	a0,0
80005844:	00000713          	li	a4,0
80005848:	b79ff06f          	j	800053c0 <__addsf3+0xe4>
8000584c:	00812c23          	sw	s0,24(sp)
80005850:	00060913          	mv	s2,a2
80005854:	00058493          	mv	s1,a1
80005858:	fff00313          	li	t1,-1
8000585c:	afdff06f          	j	80005358 <__addsf3+0x7c>
80005860:	fc088ee3          	beqz	a7,8000583c <__addsf3+0x560>
80005864:	00058493          	mv	s1,a1
80005868:	00050713          	mv	a4,a0
8000586c:	cc9ff06f          	j	80005534 <__addsf3+0x258>
80005870:	40688733          	sub	a4,a7,t1
80005874:	00571693          	slli	a3,a4,0x5
80005878:	040007b7          	lui	a5,0x4000
8000587c:	0406d863          	bgez	a3,800058cc <__addsf3+0x5f0>
80005880:	fff78793          	addi	a5,a5,-1 # 3ffffff <_start-0x7c000001>
80005884:	00812c23          	sw	s0,24(sp)
80005888:	00f77433          	and	s0,a4,a5
8000588c:	00040513          	mv	a0,s0
80005890:	00b12623          	sw	a1,12(sp)
80005894:	658010ef          	jal	80006eec <__clzsi2>
80005898:	00c12583          	lw	a1,12(sp)
8000589c:	ffb50513          	addi	a0,a0,-5
800058a0:	00a416b3          	sll	a3,s0,a0
800058a4:	00058493          	mv	s1,a1
800058a8:	00100913          	li	s2,1
800058ac:	d59ff06f          	j	80005604 <__addsf3+0x328>
800058b0:	ce0312e3          	bnez	t1,80005594 <__addsf3+0x2b8>
800058b4:	00050713          	mv	a4,a0
800058b8:	cd1ff06f          	j	80005588 <__addsf3+0x2ac>
800058bc:	00050713          	mv	a4,a0
800058c0:	f80880e3          	beqz	a7,80005840 <__addsf3+0x564>
800058c4:	00000793          	li	a5,0
800058c8:	c6dff06f          	j	80005534 <__addsf3+0x258>
800058cc:	00375713          	srli	a4,a4,0x3
800058d0:	00058493          	mv	s1,a1
800058d4:	00100793          	li	a5,1
800058d8:	c5dff06f          	j	80005534 <__addsf3+0x258>
800058dc:	00375713          	srli	a4,a4,0x3
800058e0:	00000793          	li	a5,0
800058e4:	c51ff06f          	j	80005534 <__addsf3+0x258>
800058e8:	0037d713          	srli	a4,a5,0x3
800058ec:	00100793          	li	a5,1
800058f0:	c45ff06f          	j	80005534 <__addsf3+0x258>
800058f4:	00200793          	li	a5,2
800058f8:	00375713          	srli	a4,a4,0x3
800058fc:	c39ff06f          	j	80005534 <__addsf3+0x258>
80005900:	01812403          	lw	s0,24(sp)
80005904:	00335713          	srli	a4,t1,0x3
80005908:	c2dff06f          	j	80005534 <__addsf3+0x258>
8000590c:	01812403          	lw	s0,24(sp)
80005910:	c6dff06f          	j	8000557c <__addsf3+0x2a0>
80005914:	00090793          	mv	a5,s2
80005918:	c65ff06f          	j	8000557c <__addsf3+0x2a0>

8000591c <__divsf3>:
8000591c:	fd010113          	addi	sp,sp,-48
80005920:	01755793          	srli	a5,a0,0x17
80005924:	01412c23          	sw	s4,24(sp)
80005928:	01512a23          	sw	s5,20(sp)
8000592c:	00951713          	slli	a4,a0,0x9
80005930:	02112623          	sw	ra,44(sp)
80005934:	02812423          	sw	s0,40(sp)
80005938:	02912223          	sw	s1,36(sp)
8000593c:	03212023          	sw	s2,32(sp)
80005940:	01312e23          	sw	s3,28(sp)
80005944:	01612823          	sw	s6,16(sp)
80005948:	0ff7f793          	zext.b	a5,a5
8000594c:	00975a93          	srli	s5,a4,0x9
80005950:	01f55a13          	srli	s4,a0,0x1f
80005954:	14078a63          	beqz	a5,80005aa8 <__divsf3+0x18c>
80005958:	0ff00713          	li	a4,255
8000595c:	06e78e63          	beq	a5,a4,800059d8 <__divsf3+0xbc>
80005960:	003a9713          	slli	a4,s5,0x3
80005964:	040006b7          	lui	a3,0x4000
80005968:	f8178993          	addi	s3,a5,-127
8000596c:	00d76ab3          	or	s5,a4,a3
80005970:	00000493          	li	s1,0
80005974:	00000b13          	li	s6,0
80005978:	0175d793          	srli	a5,a1,0x17
8000597c:	00959413          	slli	s0,a1,0x9
80005980:	0ff7f793          	zext.b	a5,a5
80005984:	00945413          	srli	s0,s0,0x9
80005988:	01f5d913          	srli	s2,a1,0x1f
8000598c:	06078a63          	beqz	a5,80005a00 <__divsf3+0xe4>
80005990:	0ff00713          	li	a4,255
80005994:	10e78263          	beq	a5,a4,80005a98 <__divsf3+0x17c>
80005998:	00341413          	slli	s0,s0,0x3
8000599c:	04000737          	lui	a4,0x4000
800059a0:	f8178793          	addi	a5,a5,-127
800059a4:	00e46433          	or	s0,s0,a4
800059a8:	00000613          	li	a2,0
800059ac:	00f00693          	li	a3,15
800059b0:	40f989b3          	sub	s3,s3,a5
800059b4:	012a4733          	xor	a4,s4,s2
800059b8:	1e96e663          	bltu	a3,s1,80005ba4 <__divsf3+0x288>
800059bc:	00009697          	auipc	a3,0x9
800059c0:	0d868693          	addi	a3,a3,216 # 8000ea94 <rv32+0x6b8c>
800059c4:	00249493          	slli	s1,s1,0x2
800059c8:	00d484b3          	add	s1,s1,a3
800059cc:	0004a783          	lw	a5,0(s1)
800059d0:	00d787b3          	add	a5,a5,a3
800059d4:	00078067          	jr	a5
800059d8:	00078993          	mv	s3,a5
800059dc:	120a9c63          	bnez	s5,80005b14 <__divsf3+0x1f8>
800059e0:	0175d793          	srli	a5,a1,0x17
800059e4:	00959413          	slli	s0,a1,0x9
800059e8:	0ff7f793          	zext.b	a5,a5
800059ec:	00800493          	li	s1,8
800059f0:	00200b13          	li	s6,2
800059f4:	00945413          	srli	s0,s0,0x9
800059f8:	01f5d913          	srli	s2,a1,0x1f
800059fc:	f8079ae3          	bnez	a5,80005990 <__divsf3+0x74>
80005a00:	0e041463          	bnez	s0,80005ae8 <__divsf3+0x1cc>
80005a04:	00100613          	li	a2,1
80005a08:	009664b3          	or	s1,a2,s1
80005a0c:	00e00793          	li	a5,14
80005a10:	012a4733          	xor	a4,s4,s2
80005a14:	0697e663          	bltu	a5,s1,80005a80 <__divsf3+0x164>
80005a18:	00009697          	auipc	a3,0x9
80005a1c:	0bc68693          	addi	a3,a3,188 # 8000ead4 <rv32+0x6bcc>
80005a20:	00249493          	slli	s1,s1,0x2
80005a24:	00d484b3          	add	s1,s1,a3
80005a28:	0004a783          	lw	a5,0(s1)
80005a2c:	00d787b3          	add	a5,a5,a3
80005a30:	00078067          	jr	a5
80005a34:	00300793          	li	a5,3
80005a38:	10f61c63          	bne	a2,a5,80005b50 <__divsf3+0x234>
80005a3c:	00000713          	li	a4,0
80005a40:	0ff00793          	li	a5,255
80005a44:	004006b7          	lui	a3,0x400
80005a48:	02c12083          	lw	ra,44(sp)
80005a4c:	02812403          	lw	s0,40(sp)
80005a50:	01779513          	slli	a0,a5,0x17
80005a54:	00d56533          	or	a0,a0,a3
80005a58:	01f71713          	slli	a4,a4,0x1f
80005a5c:	02412483          	lw	s1,36(sp)
80005a60:	02012903          	lw	s2,32(sp)
80005a64:	01c12983          	lw	s3,28(sp)
80005a68:	01812a03          	lw	s4,24(sp)
80005a6c:	01412a83          	lw	s5,20(sp)
80005a70:	01012b03          	lw	s6,16(sp)
80005a74:	00e56533          	or	a0,a0,a4
80005a78:	03010113          	addi	sp,sp,48
80005a7c:	00008067          	ret
80005a80:	0ff00793          	li	a5,255
80005a84:	00000693          	li	a3,0
80005a88:	fc1ff06f          	j	80005a48 <__divsf3+0x12c>
80005a8c:	00000793          	li	a5,0
80005a90:	00000693          	li	a3,0
80005a94:	fb5ff06f          	j	80005a48 <__divsf3+0x12c>
80005a98:	06041863          	bnez	s0,80005b08 <__divsf3+0x1ec>
80005a9c:	f0198993          	addi	s3,s3,-255
80005aa0:	00200613          	li	a2,2
80005aa4:	f65ff06f          	j	80005a08 <__divsf3+0xec>
80005aa8:	000a9a63          	bnez	s5,80005abc <__divsf3+0x1a0>
80005aac:	00400493          	li	s1,4
80005ab0:	00000993          	li	s3,0
80005ab4:	00100b13          	li	s6,1
80005ab8:	ec1ff06f          	j	80005978 <__divsf3+0x5c>
80005abc:	000a8513          	mv	a0,s5
80005ac0:	00b12623          	sw	a1,12(sp)
80005ac4:	428010ef          	jal	80006eec <__clzsi2>
80005ac8:	ffb50713          	addi	a4,a0,-5
80005acc:	f8a00793          	li	a5,-118
80005ad0:	00c12583          	lw	a1,12(sp)
80005ad4:	00ea9ab3          	sll	s5,s5,a4
80005ad8:	40a789b3          	sub	s3,a5,a0
80005adc:	00000493          	li	s1,0
80005ae0:	00000b13          	li	s6,0
80005ae4:	e95ff06f          	j	80005978 <__divsf3+0x5c>
80005ae8:	00040513          	mv	a0,s0
80005aec:	400010ef          	jal	80006eec <__clzsi2>
80005af0:	ffb50713          	addi	a4,a0,-5
80005af4:	f8a00793          	li	a5,-118
80005af8:	00e41433          	sll	s0,s0,a4
80005afc:	40a787b3          	sub	a5,a5,a0
80005b00:	00000613          	li	a2,0
80005b04:	ea9ff06f          	j	800059ac <__divsf3+0x90>
80005b08:	0034e493          	ori	s1,s1,3
80005b0c:	00300613          	li	a2,3
80005b10:	e9dff06f          	j	800059ac <__divsf3+0x90>
80005b14:	00c00493          	li	s1,12
80005b18:	00300b13          	li	s6,3
80005b1c:	e5dff06f          	j	80005978 <__divsf3+0x5c>
80005b20:	00200793          	li	a5,2
80005b24:	000a0913          	mv	s2,s4
80005b28:	18fb0e63          	beq	s6,a5,80005cc4 <__divsf3+0x3a8>
80005b2c:	00300793          	li	a5,3
80005b30:	f0fb06e3          	beq	s6,a5,80005a3c <__divsf3+0x120>
80005b34:	00100793          	li	a5,1
80005b38:	00fb1a63          	bne	s6,a5,80005b4c <__divsf3+0x230>
80005b3c:	00090713          	mv	a4,s2
80005b40:	00000793          	li	a5,0
80005b44:	00000693          	li	a3,0
80005b48:	f01ff06f          	j	80005a48 <__divsf3+0x12c>
80005b4c:	000a8413          	mv	s0,s5
80005b50:	07f98793          	addi	a5,s3,127
80005b54:	00090713          	mv	a4,s2
80005b58:	0ef05863          	blez	a5,80005c48 <__divsf3+0x32c>
80005b5c:	00747693          	andi	a3,s0,7
80005b60:	00068a63          	beqz	a3,80005b74 <__divsf3+0x258>
80005b64:	00f47693          	andi	a3,s0,15
80005b68:	00400613          	li	a2,4
80005b6c:	00c68463          	beq	a3,a2,80005b74 <__divsf3+0x258>
80005b70:	00c40433          	add	s0,s0,a2
80005b74:	00441693          	slli	a3,s0,0x4
80005b78:	0006da63          	bgez	a3,80005b8c <__divsf3+0x270>
80005b7c:	f80006b7          	lui	a3,0xf8000
80005b80:	fff68693          	addi	a3,a3,-1 # f7ffffff <qscmp+0x77fcdfe7>
80005b84:	08098793          	addi	a5,s3,128
80005b88:	00d47433          	and	s0,s0,a3
80005b8c:	0fe00693          	li	a3,254
80005b90:	eef6c8e3          	blt	a3,a5,80005a80 <__divsf3+0x164>
80005b94:	00641693          	slli	a3,s0,0x6
80005b98:	0096d693          	srli	a3,a3,0x9
80005b9c:	0ff7f793          	zext.b	a5,a5
80005ba0:	ea9ff06f          	j	80005a48 <__divsf3+0x12c>
80005ba4:	00541513          	slli	a0,s0,0x5
80005ba8:	01051693          	slli	a3,a0,0x10
80005bac:	01055613          	srli	a2,a0,0x10
80005bb0:	0106d693          	srli	a3,a3,0x10
80005bb4:	0e8af863          	bgeu	s5,s0,80005ca4 <__divsf3+0x388>
80005bb8:	02cad433          	divu	s0,s5,a2
80005bbc:	000a8793          	mv	a5,s5
80005bc0:	fff98993          	addi	s3,s3,-1
80005bc4:	00000a93          	li	s5,0
80005bc8:	02d405b3          	mul	a1,s0,a3
80005bcc:	02c7f7b3          	remu	a5,a5,a2
80005bd0:	01079793          	slli	a5,a5,0x10
80005bd4:	0157e7b3          	or	a5,a5,s5
80005bd8:	00b7fa63          	bgeu	a5,a1,80005bec <__divsf3+0x2d0>
80005bdc:	00f507b3          	add	a5,a0,a5
80005be0:	fff40813          	addi	a6,s0,-1 # 7ffff <_start-0x7ff80001>
80005be4:	0ea7f863          	bgeu	a5,a0,80005cd4 <__divsf3+0x3b8>
80005be8:	00080413          	mv	s0,a6
80005bec:	40b787b3          	sub	a5,a5,a1
80005bf0:	02c7d5b3          	divu	a1,a5,a2
80005bf4:	02c7f7b3          	remu	a5,a5,a2
80005bf8:	02d586b3          	mul	a3,a1,a3
80005bfc:	01079793          	slli	a5,a5,0x10
80005c00:	02d7f663          	bgeu	a5,a3,80005c2c <__divsf3+0x310>
80005c04:	00a78633          	add	a2,a5,a0
80005c08:	00f63833          	sltu	a6,a2,a5
80005c0c:	fff58893          	addi	a7,a1,-1 # ffff <_start-0x7fff0001>
80005c10:	00060793          	mv	a5,a2
80005c14:	00081a63          	bnez	a6,80005c28 <__divsf3+0x30c>
80005c18:	00d67863          	bgeu	a2,a3,80005c28 <__divsf3+0x30c>
80005c1c:	ffe58593          	addi	a1,a1,-2
80005c20:	00a607b3          	add	a5,a2,a0
80005c24:	0080006f          	j	80005c2c <__divsf3+0x310>
80005c28:	00088593          	mv	a1,a7
80005c2c:	01041413          	slli	s0,s0,0x10
80005c30:	40d787b3          	sub	a5,a5,a3
80005c34:	00f037b3          	snez	a5,a5
80005c38:	00b46433          	or	s0,s0,a1
80005c3c:	00f46433          	or	s0,s0,a5
80005c40:	07f98793          	addi	a5,s3,127
80005c44:	f0f04ce3          	bgtz	a5,80005b5c <__divsf3+0x240>
80005c48:	00100613          	li	a2,1
80005c4c:	00078c63          	beqz	a5,80005c64 <__divsf3+0x348>
80005c50:	40f60633          	sub	a2,a2,a5
80005c54:	01b00593          	li	a1,27
80005c58:	00000793          	li	a5,0
80005c5c:	00000693          	li	a3,0
80005c60:	dec5c4e3          	blt	a1,a2,80005a48 <__divsf3+0x12c>
80005c64:	09e98793          	addi	a5,s3,158
80005c68:	00f417b3          	sll	a5,s0,a5
80005c6c:	00f037b3          	snez	a5,a5
80005c70:	00c45433          	srl	s0,s0,a2
80005c74:	00f46433          	or	s0,s0,a5
80005c78:	00747793          	andi	a5,s0,7
80005c7c:	00078a63          	beqz	a5,80005c90 <__divsf3+0x374>
80005c80:	00f47793          	andi	a5,s0,15
80005c84:	00400693          	li	a3,4
80005c88:	00d78463          	beq	a5,a3,80005c90 <__divsf3+0x374>
80005c8c:	00d40433          	add	s0,s0,a3
80005c90:	00541793          	slli	a5,s0,0x5
80005c94:	0407d863          	bgez	a5,80005ce4 <__divsf3+0x3c8>
80005c98:	00100793          	li	a5,1
80005c9c:	00000693          	li	a3,0
80005ca0:	da9ff06f          	j	80005a48 <__divsf3+0x12c>
80005ca4:	001ad793          	srli	a5,s5,0x1
80005ca8:	02c7d433          	divu	s0,a5,a2
80005cac:	01fa9a93          	slli	s5,s5,0x1f
80005cb0:	010ada93          	srli	s5,s5,0x10
80005cb4:	02d405b3          	mul	a1,s0,a3
80005cb8:	f15ff06f          	j	80005bcc <__divsf3+0x2b0>
80005cbc:	00200793          	li	a5,2
80005cc0:	e6f61ee3          	bne	a2,a5,80005b3c <__divsf3+0x220>
80005cc4:	00090713          	mv	a4,s2
80005cc8:	0ff00793          	li	a5,255
80005ccc:	00000693          	li	a3,0
80005cd0:	d79ff06f          	j	80005a48 <__divsf3+0x12c>
80005cd4:	f0b7fae3          	bgeu	a5,a1,80005be8 <__divsf3+0x2cc>
80005cd8:	ffe40413          	addi	s0,s0,-2
80005cdc:	00a787b3          	add	a5,a5,a0
80005ce0:	f0dff06f          	j	80005bec <__divsf3+0x2d0>
80005ce4:	00641413          	slli	s0,s0,0x6
80005ce8:	00945693          	srli	a3,s0,0x9
80005cec:	00000793          	li	a5,0
80005cf0:	d59ff06f          	j	80005a48 <__divsf3+0x12c>

80005cf4 <__lesf2>:
80005cf4:	01755693          	srli	a3,a0,0x17
80005cf8:	00800737          	lui	a4,0x800
80005cfc:	00050793          	mv	a5,a0
80005d00:	fff70713          	addi	a4,a4,-1 # 7fffff <_start-0x7f800001>
80005d04:	0175d513          	srli	a0,a1,0x17
80005d08:	0ff6f693          	zext.b	a3,a3
80005d0c:	0ff00613          	li	a2,255
80005d10:	00f77833          	and	a6,a4,a5
80005d14:	0ff57513          	zext.b	a0,a0
80005d18:	00b77733          	and	a4,a4,a1
80005d1c:	01f7d793          	srli	a5,a5,0x1f
80005d20:	01f5d593          	srli	a1,a1,0x1f
80005d24:	04c68663          	beq	a3,a2,80005d70 <__lesf2+0x7c>
80005d28:	02c50063          	beq	a0,a2,80005d48 <__lesf2+0x54>
80005d2c:	04069c63          	bnez	a3,80005d84 <__lesf2+0x90>
80005d30:	02051263          	bnez	a0,80005d54 <__lesf2+0x60>
80005d34:	02070a63          	beqz	a4,80005d68 <__lesf2+0x74>
80005d38:	08081463          	bnez	a6,80005dc0 <__lesf2+0xcc>
80005d3c:	00159513          	slli	a0,a1,0x1
80005d40:	fff50513          	addi	a0,a0,-1
80005d44:	00008067          	ret
80005d48:	00200513          	li	a0,2
80005d4c:	02071063          	bnez	a4,80005d6c <__lesf2+0x78>
80005d50:	00069463          	bnez	a3,80005d58 <__lesf2+0x64>
80005d54:	fe0804e3          	beqz	a6,80005d3c <__lesf2+0x48>
80005d58:	02b79063          	bne	a5,a1,80005d78 <__lesf2+0x84>
80005d5c:	00179513          	slli	a0,a5,0x1
80005d60:	fff50513          	addi	a0,a0,-1
80005d64:	00008067          	ret
80005d68:	00081863          	bnez	a6,80005d78 <__lesf2+0x84>
80005d6c:	00008067          	ret
80005d70:	04081463          	bnez	a6,80005db8 <__lesf2+0xc4>
80005d74:	02d50863          	beq	a0,a3,80005da4 <__lesf2+0xb0>
80005d78:	40f007b3          	neg	a5,a5
80005d7c:	0017e513          	ori	a0,a5,1
80005d80:	00008067          	ret
80005d84:	fe050ae3          	beqz	a0,80005d78 <__lesf2+0x84>
80005d88:	feb798e3          	bne	a5,a1,80005d78 <__lesf2+0x84>
80005d8c:	fed546e3          	blt	a0,a3,80005d78 <__lesf2+0x84>
80005d90:	fca6c6e3          	blt	a3,a0,80005d5c <__lesf2+0x68>
80005d94:	ff0762e3          	bltu	a4,a6,80005d78 <__lesf2+0x84>
80005d98:	00000513          	li	a0,0
80005d9c:	fce878e3          	bgeu	a6,a4,80005d6c <__lesf2+0x78>
80005da0:	fbdff06f          	j	80005d5c <__lesf2+0x68>
80005da4:	00200513          	li	a0,2
80005da8:	fc0712e3          	bnez	a4,80005d6c <__lesf2+0x78>
80005dac:	fcb796e3          	bne	a5,a1,80005d78 <__lesf2+0x84>
80005db0:	00000513          	li	a0,0
80005db4:	00008067          	ret
80005db8:	00200513          	li	a0,2
80005dbc:	00008067          	ret
80005dc0:	fab79ce3          	bne	a5,a1,80005d78 <__lesf2+0x84>
80005dc4:	fd1ff06f          	j	80005d94 <__lesf2+0xa0>

80005dc8 <__mulsf3>:
80005dc8:	fd010113          	addi	sp,sp,-48
80005dcc:	01755793          	srli	a5,a0,0x17
80005dd0:	02912223          	sw	s1,36(sp)
80005dd4:	01412c23          	sw	s4,24(sp)
80005dd8:	02112623          	sw	ra,44(sp)
80005ddc:	00951a13          	slli	s4,a0,0x9
80005de0:	02812423          	sw	s0,40(sp)
80005de4:	03212023          	sw	s2,32(sp)
80005de8:	01312e23          	sw	s3,28(sp)
80005dec:	01512a23          	sw	s5,20(sp)
80005df0:	01612823          	sw	s6,16(sp)
80005df4:	0ff7f793          	zext.b	a5,a5
80005df8:	009a5a13          	srli	s4,s4,0x9
80005dfc:	01f55493          	srli	s1,a0,0x1f
80005e00:	2a078463          	beqz	a5,800060a8 <__mulsf3+0x2e0>
80005e04:	0ff00713          	li	a4,255
80005e08:	14e78a63          	beq	a5,a4,80005f5c <__mulsf3+0x194>
80005e0c:	003a1a13          	slli	s4,s4,0x3
80005e10:	04000737          	lui	a4,0x4000
80005e14:	f8178913          	addi	s2,a5,-127
80005e18:	00ea6a33          	or	s4,s4,a4
80005e1c:	00000993          	li	s3,0
80005e20:	00000b13          	li	s6,0
80005e24:	0175d793          	srli	a5,a1,0x17
80005e28:	00959a93          	slli	s5,a1,0x9
80005e2c:	0ff7f793          	zext.b	a5,a5
80005e30:	009ada93          	srli	s5,s5,0x9
80005e34:	01f5d413          	srli	s0,a1,0x1f
80005e38:	14078663          	beqz	a5,80005f84 <__mulsf3+0x1bc>
80005e3c:	0ff00713          	li	a4,255
80005e40:	22e78c63          	beq	a5,a4,80006078 <__mulsf3+0x2b0>
80005e44:	f8178793          	addi	a5,a5,-127
80005e48:	00a00713          	li	a4,10
80005e4c:	00f90933          	add	s2,s2,a5
80005e50:	17374863          	blt	a4,s3,80005fc0 <__mulsf3+0x1f8>
80005e54:	04000737          	lui	a4,0x4000
80005e58:	003a9a93          	slli	s5,s5,0x3
80005e5c:	0084c6b3          	xor	a3,s1,s0
80005e60:	00200793          	li	a5,2
80005e64:	00eaeab3          	or	s5,s5,a4
80005e68:	00068513          	mv	a0,a3
80005e6c:	00000713          	li	a4,0
80005e70:	0337d263          	bge	a5,s3,80005e94 <__mulsf3+0xcc>
80005e74:	00100793          	li	a5,1
80005e78:	013797b3          	sll	a5,a5,s3
80005e7c:	5307f613          	andi	a2,a5,1328
80005e80:	14061263          	bnez	a2,80005fc4 <__mulsf3+0x1fc>
80005e84:	2407f613          	andi	a2,a5,576
80005e88:	14061663          	bnez	a2,80005fd4 <__mulsf3+0x20c>
80005e8c:	0887f793          	andi	a5,a5,136
80005e90:	2e079a63          	bnez	a5,80006184 <__mulsf3+0x3bc>
80005e94:	010a9593          	slli	a1,s5,0x10
80005e98:	010a1713          	slli	a4,s4,0x10
80005e9c:	01075713          	srli	a4,a4,0x10
80005ea0:	0105d593          	srli	a1,a1,0x10
80005ea4:	010a5613          	srli	a2,s4,0x10
80005ea8:	010ada93          	srli	s5,s5,0x10
80005eac:	02e58533          	mul	a0,a1,a4
80005eb0:	02b605b3          	mul	a1,a2,a1
80005eb4:	01055793          	srli	a5,a0,0x10
80005eb8:	02ea8733          	mul	a4,s5,a4
80005ebc:	00b70733          	add	a4,a4,a1
80005ec0:	00e787b3          	add	a5,a5,a4
80005ec4:	03560633          	mul	a2,a2,s5
80005ec8:	00b7f663          	bgeu	a5,a1,80005ed4 <__mulsf3+0x10c>
80005ecc:	00010737          	lui	a4,0x10
80005ed0:	00e60633          	add	a2,a2,a4
80005ed4:	01051513          	slli	a0,a0,0x10
80005ed8:	01079713          	slli	a4,a5,0x10
80005edc:	01055513          	srli	a0,a0,0x10
80005ee0:	00a70733          	add	a4,a4,a0
80005ee4:	0107d793          	srli	a5,a5,0x10
80005ee8:	00671a13          	slli	s4,a4,0x6
80005eec:	00c787b3          	add	a5,a5,a2
80005ef0:	01a75713          	srli	a4,a4,0x1a
80005ef4:	00679793          	slli	a5,a5,0x6
80005ef8:	01403a33          	snez	s4,s4
80005efc:	00ea6a33          	or	s4,s4,a4
80005f00:	00479713          	slli	a4,a5,0x4
80005f04:	0147ea33          	or	s4,a5,s4
80005f08:	2a074663          	bltz	a4,800061b4 <__mulsf3+0x3ec>
80005f0c:	07f90793          	addi	a5,s2,127
80005f10:	20f05c63          	blez	a5,80006128 <__mulsf3+0x360>
80005f14:	007a7713          	andi	a4,s4,7
80005f18:	02070663          	beqz	a4,80005f44 <__mulsf3+0x17c>
80005f1c:	00fa7713          	andi	a4,s4,15
80005f20:	00400613          	li	a2,4
80005f24:	02c70063          	beq	a4,a2,80005f44 <__mulsf3+0x17c>
80005f28:	004a0a13          	addi	s4,s4,4
80005f2c:	004a1713          	slli	a4,s4,0x4
80005f30:	00075a63          	bgez	a4,80005f44 <__mulsf3+0x17c>
80005f34:	f8000737          	lui	a4,0xf8000
80005f38:	fff70713          	addi	a4,a4,-1 # f7ffffff <qscmp+0x77fcdfe7>
80005f3c:	08090793          	addi	a5,s2,128
80005f40:	00ea7a33          	and	s4,s4,a4
80005f44:	0fe00713          	li	a4,254
80005f48:	26f74063          	blt	a4,a5,800061a8 <__mulsf3+0x3e0>
80005f4c:	006a1713          	slli	a4,s4,0x6
80005f50:	00975713          	srli	a4,a4,0x9
80005f54:	0ff7f793          	zext.b	a5,a5
80005f58:	0880006f          	j	80005fe0 <__mulsf3+0x218>
80005f5c:	00078913          	mv	s2,a5
80005f60:	1a0a1e63          	bnez	s4,8000611c <__mulsf3+0x354>
80005f64:	0175d793          	srli	a5,a1,0x17
80005f68:	00959a93          	slli	s5,a1,0x9
80005f6c:	0ff7f793          	zext.b	a5,a5
80005f70:	00800993          	li	s3,8
80005f74:	00200b13          	li	s6,2
80005f78:	009ada93          	srli	s5,s5,0x9
80005f7c:	01f5d413          	srli	s0,a1,0x1f
80005f80:	ea079ee3          	bnez	a5,80005e3c <__mulsf3+0x74>
80005f84:	080a8a63          	beqz	s5,80006018 <__mulsf3+0x250>
80005f88:	000a8513          	mv	a0,s5
80005f8c:	761000ef          	jal	80006eec <__clzsi2>
80005f90:	40a907b3          	sub	a5,s2,a0
80005f94:	00a00713          	li	a4,10
80005f98:	f8a78913          	addi	s2,a5,-118
80005f9c:	03374263          	blt	a4,s3,80005fc0 <__mulsf3+0x1f8>
80005fa0:	ffb50513          	addi	a0,a0,-5
80005fa4:	00200793          	li	a5,2
80005fa8:	00aa9ab3          	sll	s5,s5,a0
80005fac:	0084c6b3          	xor	a3,s1,s0
80005fb0:	ef37d2e3          	bge	a5,s3,80005e94 <__mulsf3+0xcc>
80005fb4:	00068513          	mv	a0,a3
80005fb8:	00000713          	li	a4,0
80005fbc:	eb9ff06f          	j	80005e74 <__mulsf3+0xac>
80005fc0:	00048513          	mv	a0,s1
80005fc4:	00200793          	li	a5,2
80005fc8:	1cfb0863          	beq	s6,a5,80006198 <__mulsf3+0x3d0>
80005fcc:	00300793          	li	a5,3
80005fd0:	06fb1c63          	bne	s6,a5,80006048 <__mulsf3+0x280>
80005fd4:	00000693          	li	a3,0
80005fd8:	0ff00793          	li	a5,255
80005fdc:	00400737          	lui	a4,0x400
80005fe0:	02c12083          	lw	ra,44(sp)
80005fe4:	02812403          	lw	s0,40(sp)
80005fe8:	01779513          	slli	a0,a5,0x17
80005fec:	00e56533          	or	a0,a0,a4
80005ff0:	01f69793          	slli	a5,a3,0x1f
80005ff4:	02412483          	lw	s1,36(sp)
80005ff8:	02012903          	lw	s2,32(sp)
80005ffc:	01c12983          	lw	s3,28(sp)
80006000:	01812a03          	lw	s4,24(sp)
80006004:	01412a83          	lw	s5,20(sp)
80006008:	01012b03          	lw	s6,16(sp)
8000600c:	00f56533          	or	a0,a0,a5
80006010:	03010113          	addi	sp,sp,48
80006014:	00008067          	ret
80006018:	0019e993          	ori	s3,s3,1
8000601c:	00a00793          	li	a5,10
80006020:	fb37c0e3          	blt	a5,s3,80005fc0 <__mulsf3+0x1f8>
80006024:	0084c533          	xor	a0,s1,s0
80006028:	00200793          	li	a5,2
8000602c:	00050693          	mv	a3,a0
80006030:	00100713          	li	a4,1
80006034:	e537c0e3          	blt	a5,s3,80005e74 <__mulsf3+0xac>
80006038:	00200793          	li	a5,2
8000603c:	14f70e63          	beq	a4,a5,80006198 <__mulsf3+0x3d0>
80006040:	00000a13          	li	s4,0
80006044:	00100b13          	li	s6,1
80006048:	00100793          	li	a5,1
8000604c:	00050693          	mv	a3,a0
80006050:	0cfb0063          	beq	s6,a5,80006110 <__mulsf3+0x348>
80006054:	08090793          	addi	a5,s2,128
80006058:	00190913          	addi	s2,s2,1
8000605c:	0cf05663          	blez	a5,80006128 <__mulsf3+0x360>
80006060:	007a7713          	andi	a4,s4,7
80006064:	ec0704e3          	beqz	a4,80005f2c <__mulsf3+0x164>
80006068:	00fa7713          	andi	a4,s4,15
8000606c:	00400613          	li	a2,4
80006070:	eac71ce3          	bne	a4,a2,80005f28 <__mulsf3+0x160>
80006074:	eb9ff06f          	j	80005f2c <__mulsf3+0x164>
80006078:	0ff90913          	addi	s2,s2,255
8000607c:	060a9663          	bnez	s5,800060e8 <__mulsf3+0x320>
80006080:	0029e793          	ori	a5,s3,2
80006084:	00a00713          	li	a4,10
80006088:	f2f74ce3          	blt	a4,a5,80005fc0 <__mulsf3+0x1f8>
8000608c:	0084c533          	xor	a0,s1,s0
80006090:	00050693          	mv	a3,a0
80006094:	00200713          	li	a4,2
80006098:	fa0980e3          	beqz	s3,80006038 <__mulsf3+0x270>
8000609c:	00078993          	mv	s3,a5
800060a0:	00200713          	li	a4,2
800060a4:	dd1ff06f          	j	80005e74 <__mulsf3+0xac>
800060a8:	000a1a63          	bnez	s4,800060bc <__mulsf3+0x2f4>
800060ac:	00400993          	li	s3,4
800060b0:	00000913          	li	s2,0
800060b4:	00100b13          	li	s6,1
800060b8:	d6dff06f          	j	80005e24 <__mulsf3+0x5c>
800060bc:	000a0513          	mv	a0,s4
800060c0:	00b12623          	sw	a1,12(sp)
800060c4:	629000ef          	jal	80006eec <__clzsi2>
800060c8:	ffb50713          	addi	a4,a0,-5
800060cc:	f8a00793          	li	a5,-118
800060d0:	00c12583          	lw	a1,12(sp)
800060d4:	00ea1a33          	sll	s4,s4,a4
800060d8:	40a78933          	sub	s2,a5,a0
800060dc:	00000993          	li	s3,0
800060e0:	00000b13          	li	s6,0
800060e4:	d41ff06f          	j	80005e24 <__mulsf3+0x5c>
800060e8:	0039e993          	ori	s3,s3,3
800060ec:	00a00713          	li	a4,10
800060f0:	0d374a63          	blt	a4,s3,800061c4 <__mulsf3+0x3fc>
800060f4:	00100793          	li	a5,1
800060f8:	013797b3          	sll	a5,a5,s3
800060fc:	0887f793          	andi	a5,a5,136
80006100:	0084c6b3          	xor	a3,s1,s0
80006104:	00300713          	li	a4,3
80006108:	d80786e3          	beqz	a5,80005e94 <__mulsf3+0xcc>
8000610c:	0780006f          	j	80006184 <__mulsf3+0x3bc>
80006110:	00000793          	li	a5,0
80006114:	00000713          	li	a4,0
80006118:	ec9ff06f          	j	80005fe0 <__mulsf3+0x218>
8000611c:	00c00993          	li	s3,12
80006120:	00300b13          	li	s6,3
80006124:	d01ff06f          	j	80005e24 <__mulsf3+0x5c>
80006128:	00100613          	li	a2,1
8000612c:	00078c63          	beqz	a5,80006144 <__mulsf3+0x37c>
80006130:	40f60633          	sub	a2,a2,a5
80006134:	01b00593          	li	a1,27
80006138:	00000793          	li	a5,0
8000613c:	00000713          	li	a4,0
80006140:	eac5c0e3          	blt	a1,a2,80005fe0 <__mulsf3+0x218>
80006144:	09e90913          	addi	s2,s2,158
80006148:	012a1933          	sll	s2,s4,s2
8000614c:	01203933          	snez	s2,s2
80006150:	00ca57b3          	srl	a5,s4,a2
80006154:	0127e7b3          	or	a5,a5,s2
80006158:	0077f713          	andi	a4,a5,7
8000615c:	00070a63          	beqz	a4,80006170 <__mulsf3+0x3a8>
80006160:	00f7f713          	andi	a4,a5,15
80006164:	00400613          	li	a2,4
80006168:	00c70463          	beq	a4,a2,80006170 <__mulsf3+0x3a8>
8000616c:	00c787b3          	add	a5,a5,a2
80006170:	00579713          	slli	a4,a5,0x5
80006174:	04075e63          	bgez	a4,800061d0 <__mulsf3+0x408>
80006178:	00100793          	li	a5,1
8000617c:	00000713          	li	a4,0
80006180:	e61ff06f          	j	80005fe0 <__mulsf3+0x218>
80006184:	00070b13          	mv	s6,a4
80006188:	00200793          	li	a5,2
8000618c:	00040513          	mv	a0,s0
80006190:	000a8a13          	mv	s4,s5
80006194:	e2fb1ce3          	bne	s6,a5,80005fcc <__mulsf3+0x204>
80006198:	00050693          	mv	a3,a0
8000619c:	0ff00793          	li	a5,255
800061a0:	00000713          	li	a4,0
800061a4:	e3dff06f          	j	80005fe0 <__mulsf3+0x218>
800061a8:	0ff00793          	li	a5,255
800061ac:	00000713          	li	a4,0
800061b0:	e31ff06f          	j	80005fe0 <__mulsf3+0x218>
800061b4:	001a5793          	srli	a5,s4,0x1
800061b8:	001a7a13          	andi	s4,s4,1
800061bc:	0147ea33          	or	s4,a5,s4
800061c0:	e95ff06f          	j	80006054 <__mulsf3+0x28c>
800061c4:	00000693          	li	a3,0
800061c8:	00400737          	lui	a4,0x400
800061cc:	e15ff06f          	j	80005fe0 <__mulsf3+0x218>
800061d0:	00679793          	slli	a5,a5,0x6
800061d4:	0097d713          	srli	a4,a5,0x9
800061d8:	00000793          	li	a5,0
800061dc:	e05ff06f          	j	80005fe0 <__mulsf3+0x218>

800061e0 <__subsf3>:
800061e0:	008006b7          	lui	a3,0x800
800061e4:	fe010113          	addi	sp,sp,-32
800061e8:	0175d793          	srli	a5,a1,0x17
800061ec:	fff68693          	addi	a3,a3,-1 # 7fffff <_start-0x7f800001>
800061f0:	00a6f733          	and	a4,a3,a0
800061f4:	01755813          	srli	a6,a0,0x17
800061f8:	00b6f6b3          	and	a3,a3,a1
800061fc:	01f55893          	srli	a7,a0,0x1f
80006200:	00912a23          	sw	s1,20(sp)
80006204:	01212823          	sw	s2,16(sp)
80006208:	00112e23          	sw	ra,28(sp)
8000620c:	0ff7f793          	zext.b	a5,a5
80006210:	0ff00613          	li	a2,255
80006214:	01f5d593          	srli	a1,a1,0x1f
80006218:	00371e13          	slli	t3,a4,0x3
8000621c:	00369513          	slli	a0,a3,0x3
80006220:	0ff87913          	zext.b	s2,a6
80006224:	00088493          	mv	s1,a7
80006228:	14c78063          	beq	a5,a2,80006368 <__subsf3+0x188>
8000622c:	0015c593          	xori	a1,a1,1
80006230:	40f90333          	sub	t1,s2,a5
80006234:	0ab88e63          	beq	a7,a1,800062f0 <__subsf3+0x110>
80006238:	46605e63          	blez	t1,800066b4 <__subsf3+0x4d4>
8000623c:	1e078063          	beqz	a5,8000641c <__subsf3+0x23c>
80006240:	18c90463          	beq	s2,a2,800063c8 <__subsf3+0x1e8>
80006244:	040007b7          	lui	a5,0x4000
80006248:	00f56533          	or	a0,a0,a5
8000624c:	01b00793          	li	a5,27
80006250:	2c67d663          	bge	a5,t1,8000651c <__subsf3+0x33c>
80006254:	fffe0713          	addi	a4,t3,-1
80006258:	00571793          	slli	a5,a4,0x5
8000625c:	1407dc63          	bgez	a5,800063b4 <__subsf3+0x1d4>
80006260:	00812c23          	sw	s0,24(sp)
80006264:	fff00e13          	li	t3,-1
80006268:	006e1793          	slli	a5,t3,0x6
8000626c:	0067d413          	srli	s0,a5,0x6
80006270:	00040513          	mv	a0,s0
80006274:	479000ef          	jal	80006eec <__clzsi2>
80006278:	ffb50313          	addi	t1,a0,-5
8000627c:	006417b3          	sll	a5,s0,t1
80006280:	25235663          	bge	t1,s2,800064cc <__subsf3+0x2ec>
80006284:	fc000e37          	lui	t3,0xfc000
80006288:	fffe0e13          	addi	t3,t3,-1 # fbffffff <qscmp+0x7bfcdfe7>
8000628c:	0077f713          	andi	a4,a5,7
80006290:	40690333          	sub	t1,s2,t1
80006294:	01c7fe33          	and	t3,a5,t3
80006298:	5a070e63          	beqz	a4,80006854 <__subsf3+0x674>
8000629c:	00f7f793          	andi	a5,a5,15
800062a0:	00400713          	li	a4,4
800062a4:	01812403          	lw	s0,24(sp)
800062a8:	10e78a63          	beq	a5,a4,800063bc <__subsf3+0x1dc>
800062ac:	004e0e13          	addi	t3,t3,4
800062b0:	005e1793          	slli	a5,t3,0x5
800062b4:	1007d463          	bgez	a5,800063bc <__subsf3+0x1dc>
800062b8:	00130513          	addi	a0,t1,1
800062bc:	0ff00793          	li	a5,255
800062c0:	0014f893          	andi	a7,s1,1
800062c4:	14f51263          	bne	a0,a5,80006408 <__subsf3+0x228>
800062c8:	00000713          	li	a4,0
800062cc:	01c12083          	lw	ra,28(sp)
800062d0:	01751513          	slli	a0,a0,0x17
800062d4:	00e56533          	or	a0,a0,a4
800062d8:	01f89793          	slli	a5,a7,0x1f
800062dc:	01412483          	lw	s1,20(sp)
800062e0:	01012903          	lw	s2,16(sp)
800062e4:	00f56533          	or	a0,a0,a5
800062e8:	02010113          	addi	sp,sp,32
800062ec:	00008067          	ret
800062f0:	42605663          	blez	t1,8000671c <__subsf3+0x53c>
800062f4:	14079063          	bnez	a5,80006434 <__subsf3+0x254>
800062f8:	0c050263          	beqz	a0,800063bc <__subsf3+0x1dc>
800062fc:	fff30793          	addi	a5,t1,-1
80006300:	36078c63          	beqz	a5,80006678 <__subsf3+0x498>
80006304:	0cc30263          	beq	t1,a2,800063c8 <__subsf3+0x1e8>
80006308:	01b00713          	li	a4,27
8000630c:	12f74a63          	blt	a4,a5,80006440 <__subsf3+0x260>
80006310:	00078313          	mv	t1,a5
80006314:	02000693          	li	a3,32
80006318:	406686b3          	sub	a3,a3,t1
8000631c:	00d516b3          	sll	a3,a0,a3
80006320:	00d036b3          	snez	a3,a3
80006324:	006557b3          	srl	a5,a0,t1
80006328:	00d7e7b3          	or	a5,a5,a3
8000632c:	00fe0e33          	add	t3,t3,a5
80006330:	005e1793          	slli	a5,t3,0x5
80006334:	2007da63          	bgez	a5,80006548 <__subsf3+0x368>
80006338:	00190313          	addi	t1,s2,1
8000633c:	0ff00793          	li	a5,255
80006340:	30f30c63          	beq	t1,a5,80006658 <__subsf3+0x478>
80006344:	7e000737          	lui	a4,0x7e000
80006348:	001e5793          	srli	a5,t3,0x1
8000634c:	fff70713          	addi	a4,a4,-1 # 7dffffff <_start-0x2000001>
80006350:	00e7f7b3          	and	a5,a5,a4
80006354:	001e7e13          	andi	t3,t3,1
80006358:	01c7ee33          	or	t3,a5,t3
8000635c:	007e7793          	andi	a5,t3,7
80006360:	1a079063          	bnez	a5,80006500 <__subsf3+0x320>
80006364:	1a80006f          	j	8000650c <__subsf3+0x32c>
80006368:	f0190613          	addi	a2,s2,-255
8000636c:	06051863          	bnez	a0,800063dc <__subsf3+0x1fc>
80006370:	0015c593          	xori	a1,a1,1
80006374:	26b88463          	beq	a7,a1,800065dc <__subsf3+0x3fc>
80006378:	0e060463          	beqz	a2,80006460 <__subsf3+0x280>
8000637c:	2c091c63          	bnez	s2,80006654 <__subsf3+0x474>
80006380:	00078313          	mv	t1,a5
80006384:	2e0e0463          	beqz	t3,8000666c <__subsf3+0x48c>
80006388:	fff30713          	addi	a4,t1,-1
8000638c:	40070063          	beqz	a4,8000678c <__subsf3+0x5ac>
80006390:	0ff00613          	li	a2,255
80006394:	3ac30a63          	beq	t1,a2,80006748 <__subsf3+0x568>
80006398:	01b00693          	li	a3,27
8000639c:	34e6d463          	bge	a3,a4,800066e4 <__subsf3+0x504>
800063a0:	fff50713          	addi	a4,a0,-1
800063a4:	00571693          	slli	a3,a4,0x5
800063a8:	3a06ce63          	bltz	a3,80006764 <__subsf3+0x584>
800063ac:	00058493          	mv	s1,a1
800063b0:	00078913          	mv	s2,a5
800063b4:	00470e13          	addi	t3,a4,4
800063b8:	00090313          	mv	t1,s2
800063bc:	0ff00793          	li	a5,255
800063c0:	003e5713          	srli	a4,t3,0x3
800063c4:	08f31463          	bne	t1,a5,8000644c <__subsf3+0x26c>
800063c8:	46070a63          	beqz	a4,8000683c <__subsf3+0x65c>
800063cc:	00000893          	li	a7,0
800063d0:	0ff00513          	li	a0,255
800063d4:	00400737          	lui	a4,0x400
800063d8:	ef5ff06f          	j	800062cc <__subsf3+0xec>
800063dc:	1ab88863          	beq	a7,a1,8000658c <__subsf3+0x3ac>
800063e0:	08060063          	beqz	a2,80006460 <__subsf3+0x280>
800063e4:	f8090ee3          	beqz	s2,80006380 <__subsf3+0x1a0>
800063e8:	00078513          	mv	a0,a5
800063ec:	00000893          	li	a7,0
800063f0:	00400737          	lui	a4,0x400
800063f4:	ed9ff06f          	j	800062cc <__subsf3+0xec>
800063f8:	005e1793          	slli	a5,t3,0x5
800063fc:	00100513          	li	a0,1
80006400:	4407d463          	bgez	a5,80006848 <__subsf3+0x668>
80006404:	01812403          	lw	s0,24(sp)
80006408:	0ff57513          	zext.b	a0,a0
8000640c:	006e1713          	slli	a4,t3,0x6
80006410:	00975713          	srli	a4,a4,0x9
80006414:	0014f893          	andi	a7,s1,1
80006418:	eb5ff06f          	j	800062cc <__subsf3+0xec>
8000641c:	fa0500e3          	beqz	a0,800063bc <__subsf3+0x1dc>
80006420:	fff30793          	addi	a5,t1,-1
80006424:	06078c63          	beqz	a5,8000649c <__subsf3+0x2bc>
80006428:	fac300e3          	beq	t1,a2,800063c8 <__subsf3+0x1e8>
8000642c:	00078313          	mv	t1,a5
80006430:	e1dff06f          	j	8000624c <__subsf3+0x6c>
80006434:	f8c90ae3          	beq	s2,a2,800063c8 <__subsf3+0x1e8>
80006438:	01b00793          	li	a5,27
8000643c:	1c67dc63          	bge	a5,t1,80006614 <__subsf3+0x434>
80006440:	005e0713          	addi	a4,t3,5
80006444:	00375713          	srli	a4,a4,0x3
80006448:	00090313          	mv	t1,s2
8000644c:	00971713          	slli	a4,a4,0x9
80006450:	00975713          	srli	a4,a4,0x9
80006454:	0ff37513          	zext.b	a0,t1
80006458:	0014f893          	andi	a7,s1,1
8000645c:	e71ff06f          	j	800062cc <__subsf3+0xec>
80006460:	00190793          	addi	a5,s2,1
80006464:	0fe7f793          	andi	a5,a5,254
80006468:	0e079e63          	bnez	a5,80006564 <__subsf3+0x384>
8000646c:	f60910e3          	bnez	s2,800063cc <__subsf3+0x1ec>
80006470:	300e0463          	beqz	t3,80006778 <__subsf3+0x598>
80006474:	2a050063          	beqz	a0,80006714 <__subsf3+0x534>
80006478:	40ae0733          	sub	a4,t3,a0
8000647c:	00571793          	slli	a5,a4,0x5
80006480:	3407dc63          	bgez	a5,800067d8 <__subsf3+0x5f8>
80006484:	41c50e33          	sub	t3,a0,t3
80006488:	380e1663          	bnez	t3,80006814 <__subsf3+0x634>
8000648c:	0015f893          	andi	a7,a1,1
80006490:	00000513          	li	a0,0
80006494:	00000713          	li	a4,0
80006498:	e35ff06f          	j	800062cc <__subsf3+0xec>
8000649c:	40ae0733          	sub	a4,t3,a0
800064a0:	00571693          	slli	a3,a4,0x5
800064a4:	040007b7          	lui	a5,0x4000
800064a8:	2806da63          	bgez	a3,8000673c <__subsf3+0x55c>
800064ac:	fff78793          	addi	a5,a5,-1 # 3ffffff <_start-0x7c000001>
800064b0:	00812c23          	sw	s0,24(sp)
800064b4:	00f77433          	and	s0,a4,a5
800064b8:	00040513          	mv	a0,s0
800064bc:	231000ef          	jal	80006eec <__clzsi2>
800064c0:	ffb50313          	addi	t1,a0,-5
800064c4:	006417b3          	sll	a5,s0,t1
800064c8:	00100913          	li	s2,1
800064cc:	41230333          	sub	t1,t1,s2
800064d0:	00130313          	addi	t1,t1,1
800064d4:	02000e13          	li	t3,32
800064d8:	406e0e33          	sub	t3,t3,t1
800064dc:	01c79e33          	sll	t3,a5,t3
800064e0:	01c03e33          	snez	t3,t3
800064e4:	0067d7b3          	srl	a5,a5,t1
800064e8:	01c7ee33          	or	t3,a5,t3
800064ec:	1e0e0263          	beqz	t3,800066d0 <__subsf3+0x4f0>
800064f0:	007e7793          	andi	a5,t3,7
800064f4:	00000313          	li	t1,0
800064f8:	f00780e3          	beqz	a5,800063f8 <__subsf3+0x218>
800064fc:	01812403          	lw	s0,24(sp)
80006500:	00fe7793          	andi	a5,t3,15
80006504:	00400713          	li	a4,4
80006508:	dae792e3          	bne	a5,a4,800062ac <__subsf3+0xcc>
8000650c:	005e1793          	slli	a5,t3,0x5
80006510:	da07c4e3          	bltz	a5,800062b8 <__subsf3+0xd8>
80006514:	003e5713          	srli	a4,t3,0x3
80006518:	f35ff06f          	j	8000644c <__subsf3+0x26c>
8000651c:	02000693          	li	a3,32
80006520:	406686b3          	sub	a3,a3,t1
80006524:	00d516b3          	sll	a3,a0,a3
80006528:	00d036b3          	snez	a3,a3
8000652c:	006557b3          	srl	a5,a0,t1
80006530:	00d7e7b3          	or	a5,a5,a3
80006534:	40fe0e33          	sub	t3,t3,a5
80006538:	005e1793          	slli	a5,t3,0x5
8000653c:	0007d663          	bgez	a5,80006548 <__subsf3+0x368>
80006540:	00812c23          	sw	s0,24(sp)
80006544:	d25ff06f          	j	80006268 <__subsf3+0x88>
80006548:	007e7793          	andi	a5,t3,7
8000654c:	30078863          	beqz	a5,8000685c <__subsf3+0x67c>
80006550:	00fe7793          	andi	a5,t3,15
80006554:	00400713          	li	a4,4
80006558:	00090313          	mv	t1,s2
8000655c:	d4e798e3          	bne	a5,a4,800062ac <__subsf3+0xcc>
80006560:	e5dff06f          	j	800063bc <__subsf3+0x1dc>
80006564:	00812c23          	sw	s0,24(sp)
80006568:	40ae0433          	sub	s0,t3,a0
8000656c:	00541793          	slli	a5,s0,0x5
80006570:	0e07c863          	bltz	a5,80006660 <__subsf3+0x480>
80006574:	ce041ee3          	bnez	s0,80006270 <__subsf3+0x90>
80006578:	01812403          	lw	s0,24(sp)
8000657c:	00000893          	li	a7,0
80006580:	00000513          	li	a0,0
80006584:	00000713          	li	a4,0
80006588:	d45ff06f          	j	800062cc <__subsf3+0xec>
8000658c:	04060a63          	beqz	a2,800065e0 <__subsf3+0x400>
80006590:	e4091ce3          	bnez	s2,800063e8 <__subsf3+0x208>
80006594:	00078313          	mv	t1,a5
80006598:	0c0e0c63          	beqz	t3,80006670 <__subsf3+0x490>
8000659c:	fff30713          	addi	a4,t1,-1
800065a0:	0c070c63          	beqz	a4,80006678 <__subsf3+0x498>
800065a4:	0ff00613          	li	a2,255
800065a8:	1ac30263          	beq	t1,a2,8000674c <__subsf3+0x56c>
800065ac:	01b00693          	li	a3,27
800065b0:	1ae6c263          	blt	a3,a4,80006754 <__subsf3+0x574>
800065b4:	00070313          	mv	t1,a4
800065b8:	02000713          	li	a4,32
800065bc:	40670733          	sub	a4,a4,t1
800065c0:	00ee1733          	sll	a4,t3,a4
800065c4:	006e5333          	srl	t1,t3,t1
800065c8:	00e03733          	snez	a4,a4
800065cc:	00e36333          	or	t1,t1,a4
800065d0:	00078913          	mv	s2,a5
800065d4:	00a30e33          	add	t3,t1,a0
800065d8:	d59ff06f          	j	80006330 <__subsf3+0x150>
800065dc:	06061a63          	bnez	a2,80006650 <__subsf3+0x470>
800065e0:	00190313          	addi	t1,s2,1
800065e4:	0fe37793          	andi	a5,t1,254
800065e8:	02079c63          	bnez	a5,80006620 <__subsf3+0x440>
800065ec:	1e091063          	bnez	s2,800067cc <__subsf3+0x5ec>
800065f0:	100e0e63          	beqz	t3,8000670c <__subsf3+0x52c>
800065f4:	12050063          	beqz	a0,80006714 <__subsf3+0x534>
800065f8:	00ae0733          	add	a4,t3,a0
800065fc:	00571793          	slli	a5,a4,0x5
80006600:	1e07d663          	bgez	a5,800067ec <__subsf3+0x60c>
80006604:	00671713          	slli	a4,a4,0x6
80006608:	00975713          	srli	a4,a4,0x9
8000660c:	00100513          	li	a0,1
80006610:	cbdff06f          	j	800062cc <__subsf3+0xec>
80006614:	040007b7          	lui	a5,0x4000
80006618:	00f56533          	or	a0,a0,a5
8000661c:	cf9ff06f          	j	80006314 <__subsf3+0x134>
80006620:	0ff00793          	li	a5,255
80006624:	02f30a63          	beq	t1,a5,80006658 <__subsf3+0x478>
80006628:	00ae0733          	add	a4,t3,a0
8000662c:	00175713          	srli	a4,a4,0x1
80006630:	00777793          	andi	a5,a4,7
80006634:	00078a63          	beqz	a5,80006648 <__subsf3+0x468>
80006638:	00400693          	li	a3,4
8000663c:	00f77793          	andi	a5,a4,15
80006640:	00d70e33          	add	t3,a4,a3
80006644:	d6d79ce3          	bne	a5,a3,800063bc <__subsf3+0x1dc>
80006648:	00375713          	srli	a4,a4,0x3
8000664c:	e01ff06f          	j	8000644c <__subsf3+0x26c>
80006650:	f40902e3          	beqz	s2,80006594 <__subsf3+0x3b4>
80006654:	0015f893          	andi	a7,a1,1
80006658:	0ff00513          	li	a0,255
8000665c:	c6dff06f          	j	800062c8 <__subsf3+0xe8>
80006660:	41c50433          	sub	s0,a0,t3
80006664:	00058493          	mv	s1,a1
80006668:	c09ff06f          	j	80006270 <__subsf3+0x90>
8000666c:	00058493          	mv	s1,a1
80006670:	00050e13          	mv	t3,a0
80006674:	d49ff06f          	j	800063bc <__subsf3+0x1dc>
80006678:	00ae07b3          	add	a5,t3,a0
8000667c:	00579713          	slli	a4,a5,0x5
80006680:	18075463          	bgez	a4,80006808 <__subsf3+0x628>
80006684:	0017d793          	srli	a5,a5,0x1
80006688:	7e000737          	lui	a4,0x7e000
8000668c:	fff70713          	addi	a4,a4,-1 # 7dffffff <_start-0x2000001>
80006690:	0077f693          	andi	a3,a5,7
80006694:	00e7f733          	and	a4,a5,a4
80006698:	18068c63          	beqz	a3,80006830 <__subsf3+0x650>
8000669c:	00400693          	li	a3,4
800066a0:	00f7f793          	andi	a5,a5,15
800066a4:	00d70e33          	add	t3,a4,a3
800066a8:	00200313          	li	t1,2
800066ac:	d0d798e3          	bne	a5,a3,800063bc <__subsf3+0x1dc>
800066b0:	f99ff06f          	j	80006648 <__subsf3+0x468>
800066b4:	da0306e3          	beqz	t1,80006460 <__subsf3+0x280>
800066b8:	41278733          	sub	a4,a5,s2
800066bc:	00070313          	mv	t1,a4
800066c0:	cc0902e3          	beqz	s2,80006384 <__subsf3+0x1a4>
800066c4:	040006b7          	lui	a3,0x4000
800066c8:	00de6e33          	or	t3,t3,a3
800066cc:	ccdff06f          	j	80006398 <__subsf3+0x1b8>
800066d0:	01812403          	lw	s0,24(sp)
800066d4:	0014f893          	andi	a7,s1,1
800066d8:	00000513          	li	a0,0
800066dc:	00000713          	li	a4,0
800066e0:	bedff06f          	j	800062cc <__subsf3+0xec>
800066e4:	02000693          	li	a3,32
800066e8:	40e686b3          	sub	a3,a3,a4
800066ec:	00de16b3          	sll	a3,t3,a3
800066f0:	00ee5733          	srl	a4,t3,a4
800066f4:	00d036b3          	snez	a3,a3
800066f8:	00d76733          	or	a4,a4,a3
800066fc:	00078913          	mv	s2,a5
80006700:	00058493          	mv	s1,a1
80006704:	40e50e33          	sub	t3,a0,a4
80006708:	e31ff06f          	j	80006538 <__subsf3+0x358>
8000670c:	00068713          	mv	a4,a3
80006710:	ba050ce3          	beqz	a0,800062c8 <__subsf3+0xe8>
80006714:	00000313          	li	t1,0
80006718:	d35ff06f          	j	8000644c <__subsf3+0x26c>
8000671c:	ec0302e3          	beqz	t1,800065e0 <__subsf3+0x400>
80006720:	41278333          	sub	t1,a5,s2
80006724:	e6090ae3          	beqz	s2,80006598 <__subsf3+0x3b8>
80006728:	01b00713          	li	a4,27
8000672c:	02674463          	blt	a4,t1,80006754 <__subsf3+0x574>
80006730:	04000737          	lui	a4,0x4000
80006734:	00ee6e33          	or	t3,t3,a4
80006738:	e81ff06f          	j	800065b8 <__subsf3+0x3d8>
8000673c:	00375713          	srli	a4,a4,0x3
80006740:	00100313          	li	t1,1
80006744:	d09ff06f          	j	8000644c <__subsf3+0x26c>
80006748:	00058493          	mv	s1,a1
8000674c:	00068713          	mv	a4,a3
80006750:	c79ff06f          	j	800063c8 <__subsf3+0x1e8>
80006754:	00550713          	addi	a4,a0,5
80006758:	00375713          	srli	a4,a4,0x3
8000675c:	00078313          	mv	t1,a5
80006760:	cedff06f          	j	8000644c <__subsf3+0x26c>
80006764:	00812c23          	sw	s0,24(sp)
80006768:	00078913          	mv	s2,a5
8000676c:	00058493          	mv	s1,a1
80006770:	fff00e13          	li	t3,-1
80006774:	af5ff06f          	j	80006268 <__subsf3+0x88>
80006778:	06050263          	beqz	a0,800067dc <__subsf3+0x5fc>
8000677c:	00058493          	mv	s1,a1
80006780:	00068713          	mv	a4,a3
80006784:	00000313          	li	t1,0
80006788:	cc5ff06f          	j	8000644c <__subsf3+0x26c>
8000678c:	41c50733          	sub	a4,a0,t3
80006790:	00571693          	slli	a3,a4,0x5
80006794:	040007b7          	lui	a5,0x4000
80006798:	0606d063          	bgez	a3,800067f8 <__subsf3+0x618>
8000679c:	fff78793          	addi	a5,a5,-1 # 3ffffff <_start-0x7c000001>
800067a0:	00812c23          	sw	s0,24(sp)
800067a4:	00f77433          	and	s0,a4,a5
800067a8:	00040513          	mv	a0,s0
800067ac:	00b12623          	sw	a1,12(sp)
800067b0:	73c000ef          	jal	80006eec <__clzsi2>
800067b4:	00c12583          	lw	a1,12(sp)
800067b8:	ffb50313          	addi	t1,a0,-5
800067bc:	006417b3          	sll	a5,s0,t1
800067c0:	00058493          	mv	s1,a1
800067c4:	00100913          	li	s2,1
800067c8:	d05ff06f          	j	800064cc <__subsf3+0x2ec>
800067cc:	c00e10e3          	bnez	t3,800063cc <__subsf3+0x1ec>
800067d0:	00068713          	mv	a4,a3
800067d4:	bf5ff06f          	j	800063c8 <__subsf3+0x1e8>
800067d8:	00071a63          	bnez	a4,800067ec <__subsf3+0x60c>
800067dc:	00000893          	li	a7,0
800067e0:	00000513          	li	a0,0
800067e4:	00000713          	li	a4,0
800067e8:	ae5ff06f          	j	800062cc <__subsf3+0xec>
800067ec:	00375713          	srli	a4,a4,0x3
800067f0:	00000313          	li	t1,0
800067f4:	c59ff06f          	j	8000644c <__subsf3+0x26c>
800067f8:	00375713          	srli	a4,a4,0x3
800067fc:	00058493          	mv	s1,a1
80006800:	00100313          	li	t1,1
80006804:	c49ff06f          	j	8000644c <__subsf3+0x26c>
80006808:	0037d713          	srli	a4,a5,0x3
8000680c:	00100313          	li	t1,1
80006810:	c3dff06f          	j	8000644c <__subsf3+0x26c>
80006814:	005e1793          	slli	a5,t3,0x5
80006818:	00058493          	mv	s1,a1
8000681c:	00100513          	li	a0,1
80006820:	003e5713          	srli	a4,t3,0x3
80006824:	00000313          	li	t1,0
80006828:	be07c2e3          	bltz	a5,8000640c <__subsf3+0x22c>
8000682c:	c21ff06f          	j	8000644c <__subsf3+0x26c>
80006830:	00200313          	li	t1,2
80006834:	00375713          	srli	a4,a4,0x3
80006838:	c15ff06f          	j	8000644c <__subsf3+0x26c>
8000683c:	00048593          	mv	a1,s1
80006840:	0015f893          	andi	a7,a1,1
80006844:	e15ff06f          	j	80006658 <__subsf3+0x478>
80006848:	01812403          	lw	s0,24(sp)
8000684c:	003e5713          	srli	a4,t3,0x3
80006850:	bfdff06f          	j	8000644c <__subsf3+0x26c>
80006854:	01812403          	lw	s0,24(sp)
80006858:	b65ff06f          	j	800063bc <__subsf3+0x1dc>
8000685c:	00090313          	mv	t1,s2
80006860:	b5dff06f          	j	800063bc <__subsf3+0x1dc>

80006864 <__fixunssfsi>:
80006864:	01755713          	srli	a4,a0,0x17
80006868:	00800637          	lui	a2,0x800
8000686c:	fff60793          	addi	a5,a2,-1 # 7fffff <_start-0x7f800001>
80006870:	0ff77713          	zext.b	a4,a4
80006874:	07e00593          	li	a1,126
80006878:	00a7f6b3          	and	a3,a5,a0
8000687c:	01f55793          	srli	a5,a0,0x1f
80006880:	00000513          	li	a0,0
80006884:	00e5d463          	bge	a1,a4,8000688c <__fixunssfsi+0x28>
80006888:	00078463          	beqz	a5,80006890 <__fixunssfsi+0x2c>
8000688c:	00008067          	ret
80006890:	09e00793          	li	a5,158
80006894:	fff00513          	li	a0,-1
80006898:	fee7cae3          	blt	a5,a4,8000688c <__fixunssfsi+0x28>
8000689c:	09500593          	li	a1,149
800068a0:	00c6e7b3          	or	a5,a3,a2
800068a4:	00e5d863          	bge	a1,a4,800068b4 <__fixunssfsi+0x50>
800068a8:	f6a70713          	addi	a4,a4,-150 # 3ffff6a <_start-0x7c000096>
800068ac:	00e79533          	sll	a0,a5,a4
800068b0:	00008067          	ret
800068b4:	09600513          	li	a0,150
800068b8:	40e50533          	sub	a0,a0,a4
800068bc:	00a7d533          	srl	a0,a5,a0
800068c0:	00008067          	ret

800068c4 <__floatsisf>:
800068c4:	ff010113          	addi	sp,sp,-16
800068c8:	00112623          	sw	ra,12(sp)
800068cc:	00812423          	sw	s0,8(sp)
800068d0:	00912223          	sw	s1,4(sp)
800068d4:	04050863          	beqz	a0,80006924 <__floatsisf+0x60>
800068d8:	41f55713          	srai	a4,a0,0x1f
800068dc:	00a74433          	xor	s0,a4,a0
800068e0:	40e40433          	sub	s0,s0,a4
800068e4:	00050793          	mv	a5,a0
800068e8:	00040513          	mv	a0,s0
800068ec:	01f7d493          	srli	s1,a5,0x1f
800068f0:	5fc000ef          	jal	80006eec <__clzsi2>
800068f4:	09e00793          	li	a5,158
800068f8:	40a786b3          	sub	a3,a5,a0
800068fc:	09600793          	li	a5,150
80006900:	04d7ca63          	blt	a5,a3,80006954 <__floatsisf+0x90>
80006904:	00800713          	li	a4,8
80006908:	0ee50463          	beq	a0,a4,800069f0 <__floatsisf+0x12c>
8000690c:	ff850513          	addi	a0,a0,-8
80006910:	00a41433          	sll	s0,s0,a0
80006914:	00941413          	slli	s0,s0,0x9
80006918:	00945413          	srli	s0,s0,0x9
8000691c:	0ff6f793          	zext.b	a5,a3
80006920:	0100006f          	j	80006930 <__floatsisf+0x6c>
80006924:	00000493          	li	s1,0
80006928:	00000793          	li	a5,0
8000692c:	00000413          	li	s0,0
80006930:	01779793          	slli	a5,a5,0x17
80006934:	00c12083          	lw	ra,12(sp)
80006938:	0087e7b3          	or	a5,a5,s0
8000693c:	00812403          	lw	s0,8(sp)
80006940:	01f49513          	slli	a0,s1,0x1f
80006944:	00a7e533          	or	a0,a5,a0
80006948:	00412483          	lw	s1,4(sp)
8000694c:	01010113          	addi	sp,sp,16
80006950:	00008067          	ret
80006954:	09900713          	li	a4,153
80006958:	04d74a63          	blt	a4,a3,800069ac <__floatsisf+0xe8>
8000695c:	ffb50793          	addi	a5,a0,-5
80006960:	00f41433          	sll	s0,s0,a5
80006964:	fc0007b7          	lui	a5,0xfc000
80006968:	fff78793          	addi	a5,a5,-1 # fbffffff <qscmp+0x7bfcdfe7>
8000696c:	00747713          	andi	a4,s0,7
80006970:	00f477b3          	and	a5,s0,a5
80006974:	06070463          	beqz	a4,800069dc <__floatsisf+0x118>
80006978:	00f47413          	andi	s0,s0,15
8000697c:	00400713          	li	a4,4
80006980:	04e40e63          	beq	s0,a4,800069dc <__floatsisf+0x118>
80006984:	00478793          	addi	a5,a5,4
80006988:	00579713          	slli	a4,a5,0x5
8000698c:	0037d413          	srli	s0,a5,0x3
80006990:	04075863          	bgez	a4,800069e0 <__floatsisf+0x11c>
80006994:	09f00793          	li	a5,159
80006998:	00941413          	slli	s0,s0,0x9
8000699c:	40a787b3          	sub	a5,a5,a0
800069a0:	00945413          	srli	s0,s0,0x9
800069a4:	0ff7f793          	zext.b	a5,a5
800069a8:	f89ff06f          	j	80006930 <__floatsisf+0x6c>
800069ac:	01b50793          	addi	a5,a0,27
800069b0:	00500713          	li	a4,5
800069b4:	00f417b3          	sll	a5,s0,a5
800069b8:	40a70733          	sub	a4,a4,a0
800069bc:	00f037b3          	snez	a5,a5
800069c0:	00e45433          	srl	s0,s0,a4
800069c4:	0087e433          	or	s0,a5,s0
800069c8:	fc0007b7          	lui	a5,0xfc000
800069cc:	fff78793          	addi	a5,a5,-1 # fbffffff <qscmp+0x7bfcdfe7>
800069d0:	00747713          	andi	a4,s0,7
800069d4:	00f477b3          	and	a5,s0,a5
800069d8:	fa0710e3          	bnez	a4,80006978 <__floatsisf+0xb4>
800069dc:	0037d413          	srli	s0,a5,0x3
800069e0:	00941413          	slli	s0,s0,0x9
800069e4:	00945413          	srli	s0,s0,0x9
800069e8:	0ff6f793          	zext.b	a5,a3
800069ec:	f45ff06f          	j	80006930 <__floatsisf+0x6c>
800069f0:	00941413          	slli	s0,s0,0x9
800069f4:	00945413          	srli	s0,s0,0x9
800069f8:	f39ff06f          	j	80006930 <__floatsisf+0x6c>

800069fc <__floatunsisf>:
800069fc:	ff010113          	addi	sp,sp,-16
80006a00:	00112623          	sw	ra,12(sp)
80006a04:	00812423          	sw	s0,8(sp)
80006a08:	04050863          	beqz	a0,80006a58 <__floatunsisf+0x5c>
80006a0c:	00050413          	mv	s0,a0
80006a10:	4dc000ef          	jal	80006eec <__clzsi2>
80006a14:	09e00713          	li	a4,158
80006a18:	40a70733          	sub	a4,a4,a0
80006a1c:	09600793          	li	a5,150
80006a20:	04e7cc63          	blt	a5,a4,80006a78 <__floatunsisf+0x7c>
80006a24:	00800693          	li	a3,8
80006a28:	10d50a63          	beq	a0,a3,80006b3c <__floatunsisf+0x140>
80006a2c:	ff850513          	addi	a0,a0,-8
80006a30:	00a41433          	sll	s0,s0,a0
80006a34:	00941413          	slli	s0,s0,0x9
80006a38:	0ff77513          	zext.b	a0,a4
80006a3c:	00945413          	srli	s0,s0,0x9
80006a40:	01751513          	slli	a0,a0,0x17
80006a44:	00c12083          	lw	ra,12(sp)
80006a48:	00856533          	or	a0,a0,s0
80006a4c:	00812403          	lw	s0,8(sp)
80006a50:	01010113          	addi	sp,sp,16
80006a54:	00008067          	ret
80006a58:	00000513          	li	a0,0
80006a5c:	00000413          	li	s0,0
80006a60:	01751513          	slli	a0,a0,0x17
80006a64:	00c12083          	lw	ra,12(sp)
80006a68:	00856533          	or	a0,a0,s0
80006a6c:	00812403          	lw	s0,8(sp)
80006a70:	01010113          	addi	sp,sp,16
80006a74:	00008067          	ret
80006a78:	09900793          	li	a5,153
80006a7c:	06e7c463          	blt	a5,a4,80006ae4 <__floatunsisf+0xe8>
80006a80:	ffb50793          	addi	a5,a0,-5
80006a84:	00f41433          	sll	s0,s0,a5
80006a88:	fc0007b7          	lui	a5,0xfc000
80006a8c:	fff78793          	addi	a5,a5,-1 # fbffffff <qscmp+0x7bfcdfe7>
80006a90:	00747693          	andi	a3,s0,7
80006a94:	00f477b3          	and	a5,s0,a5
80006a98:	06068e63          	beqz	a3,80006b14 <__floatunsisf+0x118>
80006a9c:	00f47413          	andi	s0,s0,15
80006aa0:	00400693          	li	a3,4
80006aa4:	06d40863          	beq	s0,a3,80006b14 <__floatunsisf+0x118>
80006aa8:	00478793          	addi	a5,a5,4
80006aac:	00579693          	slli	a3,a5,0x5
80006ab0:	0037d413          	srli	s0,a5,0x3
80006ab4:	0606d263          	bgez	a3,80006b18 <__floatunsisf+0x11c>
80006ab8:	09f00793          	li	a5,159
80006abc:	40a78533          	sub	a0,a5,a0
80006ac0:	00941413          	slli	s0,s0,0x9
80006ac4:	0ff57513          	zext.b	a0,a0
80006ac8:	00945413          	srli	s0,s0,0x9
80006acc:	01751513          	slli	a0,a0,0x17
80006ad0:	00c12083          	lw	ra,12(sp)
80006ad4:	00856533          	or	a0,a0,s0
80006ad8:	00812403          	lw	s0,8(sp)
80006adc:	01010113          	addi	sp,sp,16
80006ae0:	00008067          	ret
80006ae4:	01b50793          	addi	a5,a0,27
80006ae8:	00500693          	li	a3,5
80006aec:	00f417b3          	sll	a5,s0,a5
80006af0:	40a686b3          	sub	a3,a3,a0
80006af4:	00f037b3          	snez	a5,a5
80006af8:	00d45433          	srl	s0,s0,a3
80006afc:	0087e433          	or	s0,a5,s0
80006b00:	fc0007b7          	lui	a5,0xfc000
80006b04:	fff78793          	addi	a5,a5,-1 # fbffffff <qscmp+0x7bfcdfe7>
80006b08:	00747693          	andi	a3,s0,7
80006b0c:	00f477b3          	and	a5,s0,a5
80006b10:	f80696e3          	bnez	a3,80006a9c <__floatunsisf+0xa0>
80006b14:	0037d413          	srli	s0,a5,0x3
80006b18:	00941413          	slli	s0,s0,0x9
80006b1c:	0ff77513          	zext.b	a0,a4
80006b20:	00945413          	srli	s0,s0,0x9
80006b24:	01751513          	slli	a0,a0,0x17
80006b28:	00c12083          	lw	ra,12(sp)
80006b2c:	00856533          	or	a0,a0,s0
80006b30:	00812403          	lw	s0,8(sp)
80006b34:	01010113          	addi	sp,sp,16
80006b38:	00008067          	ret
80006b3c:	00941413          	slli	s0,s0,0x9
80006b40:	00945413          	srli	s0,s0,0x9
80006b44:	00078513          	mv	a0,a5
80006b48:	f19ff06f          	j	80006a60 <__floatunsisf+0x64>

80006b4c <__extendsfdf2>:
80006b4c:	01755793          	srli	a5,a0,0x17
80006b50:	0ff7f793          	zext.b	a5,a5
80006b54:	fe010113          	addi	sp,sp,-32
80006b58:	00178713          	addi	a4,a5,1
80006b5c:	00812c23          	sw	s0,24(sp)
80006b60:	00912a23          	sw	s1,20(sp)
80006b64:	00112e23          	sw	ra,28(sp)
80006b68:	00951493          	slli	s1,a0,0x9
80006b6c:	01212823          	sw	s2,16(sp)
80006b70:	01312623          	sw	s3,12(sp)
80006b74:	0fe77713          	andi	a4,a4,254
80006b78:	0094d493          	srli	s1,s1,0x9
80006b7c:	01f55413          	srli	s0,a0,0x1f
80006b80:	04070263          	beqz	a4,80006bc4 <__extendsfdf2+0x78>
80006b84:	0034d713          	srli	a4,s1,0x3
80006b88:	38078793          	addi	a5,a5,896
80006b8c:	01d49493          	slli	s1,s1,0x1d
80006b90:	01f41513          	slli	a0,s0,0x1f
80006b94:	01c12083          	lw	ra,28(sp)
80006b98:	01812403          	lw	s0,24(sp)
80006b9c:	01479793          	slli	a5,a5,0x14
80006ba0:	00e7e7b3          	or	a5,a5,a4
80006ba4:	00a7e7b3          	or	a5,a5,a0
80006ba8:	01012903          	lw	s2,16(sp)
80006bac:	00c12983          	lw	s3,12(sp)
80006bb0:	00048513          	mv	a0,s1
80006bb4:	00078593          	mv	a1,a5
80006bb8:	01412483          	lw	s1,20(sp)
80006bbc:	02010113          	addi	sp,sp,32
80006bc0:	00008067          	ret
80006bc4:	04079263          	bnez	a5,80006c08 <__extendsfdf2+0xbc>
80006bc8:	06048263          	beqz	s1,80006c2c <__extendsfdf2+0xe0>
80006bcc:	00048513          	mv	a0,s1
80006bd0:	31c000ef          	jal	80006eec <__clzsi2>
80006bd4:	00a00793          	li	a5,10
80006bd8:	06a7c663          	blt	a5,a0,80006c44 <__extendsfdf2+0xf8>
80006bdc:	00b00713          	li	a4,11
80006be0:	40a70733          	sub	a4,a4,a0
80006be4:	01550793          	addi	a5,a0,21
80006be8:	00e4d733          	srl	a4,s1,a4
80006bec:	00f494b3          	sll	s1,s1,a5
80006bf0:	38900793          	li	a5,905
80006bf4:	00c71713          	slli	a4,a4,0xc
80006bf8:	40a787b3          	sub	a5,a5,a0
80006bfc:	00c75713          	srli	a4,a4,0xc
80006c00:	7ff7f793          	andi	a5,a5,2047
80006c04:	f8dff06f          	j	80006b90 <__extendsfdf2+0x44>
80006c08:	02048863          	beqz	s1,80006c38 <__extendsfdf2+0xec>
80006c0c:	0034d713          	srli	a4,s1,0x3
80006c10:	000807b7          	lui	a5,0x80
80006c14:	00f76733          	or	a4,a4,a5
80006c18:	00c71713          	slli	a4,a4,0xc
80006c1c:	01d49493          	slli	s1,s1,0x1d
80006c20:	00c75713          	srli	a4,a4,0xc
80006c24:	7ff00793          	li	a5,2047
80006c28:	f69ff06f          	j	80006b90 <__extendsfdf2+0x44>
80006c2c:	00000793          	li	a5,0
80006c30:	00000713          	li	a4,0
80006c34:	f5dff06f          	j	80006b90 <__extendsfdf2+0x44>
80006c38:	7ff00793          	li	a5,2047
80006c3c:	00000713          	li	a4,0
80006c40:	f51ff06f          	j	80006b90 <__extendsfdf2+0x44>
80006c44:	ff550713          	addi	a4,a0,-11
80006c48:	00e49733          	sll	a4,s1,a4
80006c4c:	00000493          	li	s1,0
80006c50:	fa1ff06f          	j	80006bf0 <__extendsfdf2+0xa4>

80006c54 <__truncdfsf2>:
80006c54:	0145d613          	srli	a2,a1,0x14
80006c58:	7ff67613          	andi	a2,a2,2047
80006c5c:	00c59693          	slli	a3,a1,0xc
80006c60:	00160713          	addi	a4,a2,1
80006c64:	0096d693          	srli	a3,a3,0x9
80006c68:	01d55793          	srli	a5,a0,0x1d
80006c6c:	7fe77713          	andi	a4,a4,2046
80006c70:	01f5d593          	srli	a1,a1,0x1f
80006c74:	00d7e6b3          	or	a3,a5,a3
80006c78:	00351813          	slli	a6,a0,0x3
80006c7c:	02070663          	beqz	a4,80006ca8 <__truncdfsf2+0x54>
80006c80:	c8060713          	addi	a4,a2,-896
80006c84:	0fe00793          	li	a5,254
80006c88:	06e7dc63          	bge	a5,a4,80006d00 <__truncdfsf2+0xac>
80006c8c:	0ff00713          	li	a4,255
80006c90:	00000793          	li	a5,0
80006c94:	01771713          	slli	a4,a4,0x17
80006c98:	00f76733          	or	a4,a4,a5
80006c9c:	01f59593          	slli	a1,a1,0x1f
80006ca0:	00b76533          	or	a0,a4,a1
80006ca4:	00008067          	ret
80006ca8:	0106e7b3          	or	a5,a3,a6
80006cac:	02061863          	bnez	a2,80006cdc <__truncdfsf2+0x88>
80006cb0:	00000713          	li	a4,0
80006cb4:	fc078ee3          	beqz	a5,80006c90 <__truncdfsf2+0x3c>
80006cb8:	00500793          	li	a5,5
80006cbc:	00679793          	slli	a5,a5,0x6
80006cc0:	0ff77713          	zext.b	a4,a4
80006cc4:	0097d793          	srli	a5,a5,0x9
80006cc8:	01771713          	slli	a4,a4,0x17
80006ccc:	00f76733          	or	a4,a4,a5
80006cd0:	01f59593          	slli	a1,a1,0x1f
80006cd4:	00b76533          	or	a0,a4,a1
80006cd8:	00008067          	ret
80006cdc:	fa0788e3          	beqz	a5,80006c8c <__truncdfsf2+0x38>
80006ce0:	0ff00713          	li	a4,255
80006ce4:	004007b7          	lui	a5,0x400
80006ce8:	00000593          	li	a1,0
80006cec:	01771713          	slli	a4,a4,0x17
80006cf0:	00f76733          	or	a4,a4,a5
80006cf4:	01f59593          	slli	a1,a1,0x1f
80006cf8:	00b76533          	or	a0,a4,a1
80006cfc:	00008067          	ret
80006d00:	06e05063          	blez	a4,80006d60 <__truncdfsf2+0x10c>
80006d04:	00651793          	slli	a5,a0,0x6
80006d08:	00369693          	slli	a3,a3,0x3
80006d0c:	00f037b3          	snez	a5,a5
80006d10:	00d7e7b3          	or	a5,a5,a3
80006d14:	01d85813          	srli	a6,a6,0x1d
80006d18:	0107e7b3          	or	a5,a5,a6
80006d1c:	0077f693          	andi	a3,a5,7
80006d20:	f8068ee3          	beqz	a3,80006cbc <__truncdfsf2+0x68>
80006d24:	00f7f693          	andi	a3,a5,15
80006d28:	00400613          	li	a2,4
80006d2c:	f8c688e3          	beq	a3,a2,80006cbc <__truncdfsf2+0x68>
80006d30:	00c787b3          	add	a5,a5,a2
80006d34:	040006b7          	lui	a3,0x4000
80006d38:	00d7f6b3          	and	a3,a5,a3
80006d3c:	f80680e3          	beqz	a3,80006cbc <__truncdfsf2+0x68>
80006d40:	00170713          	addi	a4,a4,1
80006d44:	0ff77713          	zext.b	a4,a4
80006d48:	00000793          	li	a5,0
80006d4c:	01771713          	slli	a4,a4,0x17
80006d50:	00f76733          	or	a4,a4,a5
80006d54:	01f59593          	slli	a1,a1,0x1f
80006d58:	00b76533          	or	a0,a4,a1
80006d5c:	00008067          	ret
80006d60:	fe900793          	li	a5,-23
80006d64:	04f74c63          	blt	a4,a5,80006dbc <__truncdfsf2+0x168>
80006d68:	01e00793          	li	a5,30
80006d6c:	008008b7          	lui	a7,0x800
80006d70:	40e787b3          	sub	a5,a5,a4
80006d74:	01f00513          	li	a0,31
80006d78:	0116e6b3          	or	a3,a3,a7
80006d7c:	04f55463          	bge	a0,a5,80006dc4 <__truncdfsf2+0x170>
80006d80:	ffe00513          	li	a0,-2
80006d84:	40e50733          	sub	a4,a0,a4
80006d88:	02000513          	li	a0,32
80006d8c:	00e6d733          	srl	a4,a3,a4
80006d90:	00a78863          	beq	a5,a0,80006da0 <__truncdfsf2+0x14c>
80006d94:	ca260613          	addi	a2,a2,-862
80006d98:	00c696b3          	sll	a3,a3,a2
80006d9c:	00d86833          	or	a6,a6,a3
80006da0:	010037b3          	snez	a5,a6
80006da4:	00e7e7b3          	or	a5,a5,a4
80006da8:	0077f713          	andi	a4,a5,7
80006dac:	02071c63          	bnez	a4,80006de4 <__truncdfsf2+0x190>
80006db0:	00679793          	slli	a5,a5,0x6
80006db4:	0097d793          	srli	a5,a5,0x9
80006db8:	eddff06f          	j	80006c94 <__truncdfsf2+0x40>
80006dbc:	00000713          	li	a4,0
80006dc0:	ef9ff06f          	j	80006cb8 <__truncdfsf2+0x64>
80006dc4:	c8260613          	addi	a2,a2,-894
80006dc8:	00c81733          	sll	a4,a6,a2
80006dcc:	00c696b3          	sll	a3,a3,a2
80006dd0:	00e03733          	snez	a4,a4
80006dd4:	00d76733          	or	a4,a4,a3
80006dd8:	00f857b3          	srl	a5,a6,a5
80006ddc:	00e7e7b3          	or	a5,a5,a4
80006de0:	fc9ff06f          	j	80006da8 <__truncdfsf2+0x154>
80006de4:	00f7f713          	andi	a4,a5,15
80006de8:	00400693          	li	a3,4
80006dec:	00d71a63          	bne	a4,a3,80006e00 <__truncdfsf2+0x1ac>
80006df0:	00679793          	slli	a5,a5,0x6
80006df4:	0097d793          	srli	a5,a5,0x9
80006df8:	00000713          	li	a4,0
80006dfc:	e99ff06f          	j	80006c94 <__truncdfsf2+0x40>
80006e00:	00d787b3          	add	a5,a5,a3
80006e04:	040006b7          	lui	a3,0x4000
80006e08:	00d7f6b3          	and	a3,a5,a3
80006e0c:	00000713          	li	a4,0
80006e10:	f2dff06f          	j	80006d3c <__truncdfsf2+0xe8>

80006e14 <__mulsi3>:
80006e14:	00050613          	mv	a2,a0
80006e18:	00000513          	li	a0,0
80006e1c:	0015f693          	andi	a3,a1,1
80006e20:	00068463          	beqz	a3,80006e28 <__mulsi3+0x14>
80006e24:	00c50533          	add	a0,a0,a2
80006e28:	0015d593          	srli	a1,a1,0x1
80006e2c:	00161613          	slli	a2,a2,0x1
80006e30:	fe0596e3          	bnez	a1,80006e1c <__mulsi3+0x8>
80006e34:	00008067          	ret

80006e38 <__divsi3>:
80006e38:	06054063          	bltz	a0,80006e98 <__umodsi3+0x10>
80006e3c:	0605c663          	bltz	a1,80006ea8 <__umodsi3+0x20>

80006e40 <__hidden___udivsi3>:
80006e40:	00058613          	mv	a2,a1
80006e44:	00050593          	mv	a1,a0
80006e48:	fff00513          	li	a0,-1
80006e4c:	02060c63          	beqz	a2,80006e84 <__hidden___udivsi3+0x44>
80006e50:	00100693          	li	a3,1
80006e54:	00b67a63          	bgeu	a2,a1,80006e68 <__hidden___udivsi3+0x28>
80006e58:	00c05863          	blez	a2,80006e68 <__hidden___udivsi3+0x28>
80006e5c:	00161613          	slli	a2,a2,0x1
80006e60:	00169693          	slli	a3,a3,0x1
80006e64:	feb66ae3          	bltu	a2,a1,80006e58 <__hidden___udivsi3+0x18>
80006e68:	00000513          	li	a0,0
80006e6c:	00c5e663          	bltu	a1,a2,80006e78 <__hidden___udivsi3+0x38>
80006e70:	40c585b3          	sub	a1,a1,a2
80006e74:	00d56533          	or	a0,a0,a3
80006e78:	0016d693          	srli	a3,a3,0x1
80006e7c:	00165613          	srli	a2,a2,0x1
80006e80:	fe0696e3          	bnez	a3,80006e6c <__hidden___udivsi3+0x2c>
80006e84:	00008067          	ret

80006e88 <__umodsi3>:
80006e88:	00008293          	mv	t0,ra
80006e8c:	fb5ff0ef          	jal	80006e40 <__hidden___udivsi3>
80006e90:	00058513          	mv	a0,a1
80006e94:	00028067          	jr	t0
80006e98:	40a00533          	neg	a0,a0
80006e9c:	00b04863          	bgtz	a1,80006eac <__umodsi3+0x24>
80006ea0:	40b005b3          	neg	a1,a1
80006ea4:	f9dff06f          	j	80006e40 <__hidden___udivsi3>
80006ea8:	40b005b3          	neg	a1,a1
80006eac:	00008293          	mv	t0,ra
80006eb0:	f91ff0ef          	jal	80006e40 <__hidden___udivsi3>
80006eb4:	40a00533          	neg	a0,a0
80006eb8:	00028067          	jr	t0

80006ebc <__modsi3>:
80006ebc:	00008293          	mv	t0,ra
80006ec0:	0005ca63          	bltz	a1,80006ed4 <__modsi3+0x18>
80006ec4:	00054c63          	bltz	a0,80006edc <__modsi3+0x20>
80006ec8:	f79ff0ef          	jal	80006e40 <__hidden___udivsi3>
80006ecc:	00058513          	mv	a0,a1
80006ed0:	00028067          	jr	t0
80006ed4:	40b005b3          	neg	a1,a1
80006ed8:	fe0558e3          	bgez	a0,80006ec8 <__modsi3+0xc>
80006edc:	40a00533          	neg	a0,a0
80006ee0:	f61ff0ef          	jal	80006e40 <__hidden___udivsi3>
80006ee4:	40b00533          	neg	a0,a1
80006ee8:	00028067          	jr	t0

80006eec <__clzsi2>:
80006eec:	000107b7          	lui	a5,0x10
80006ef0:	02f57a63          	bgeu	a0,a5,80006f24 <__clzsi2+0x38>
80006ef4:	10053793          	sltiu	a5,a0,256
80006ef8:	0017b793          	seqz	a5,a5
80006efc:	00379793          	slli	a5,a5,0x3
80006f00:	02000713          	li	a4,32
80006f04:	40f70733          	sub	a4,a4,a5
80006f08:	00f55533          	srl	a0,a0,a5
80006f0c:	0000a797          	auipc	a5,0xa
80006f10:	e807a783          	lw	a5,-384(a5) # 80010d8c <_GLOBAL_OFFSET_TABLE_+0x4>
80006f14:	00a787b3          	add	a5,a5,a0
80006f18:	0007c503          	lbu	a0,0(a5)
80006f1c:	40a70533          	sub	a0,a4,a0
80006f20:	00008067          	ret
80006f24:	010007b7          	lui	a5,0x1000
80006f28:	02f57463          	bgeu	a0,a5,80006f50 <__clzsi2+0x64>
80006f2c:	01000713          	li	a4,16
80006f30:	00070793          	mv	a5,a4
80006f34:	00f55533          	srl	a0,a0,a5
80006f38:	0000a797          	auipc	a5,0xa
80006f3c:	e547a783          	lw	a5,-428(a5) # 80010d8c <_GLOBAL_OFFSET_TABLE_+0x4>
80006f40:	00a787b3          	add	a5,a5,a0
80006f44:	0007c503          	lbu	a0,0(a5)
80006f48:	40a70533          	sub	a0,a4,a0
80006f4c:	00008067          	ret
80006f50:	01800793          	li	a5,24
80006f54:	00f55533          	srl	a0,a0,a5
80006f58:	0000a797          	auipc	a5,0xa
80006f5c:	e347a783          	lw	a5,-460(a5) # 80010d8c <_GLOBAL_OFFSET_TABLE_+0x4>
80006f60:	00a787b3          	add	a5,a5,a0
80006f64:	0007c503          	lbu	a0,0(a5)
80006f68:	00800713          	li	a4,8
80006f6c:	40a70533          	sub	a0,a4,a0
80006f70:	00008067          	ret
