
hello.elf:     file format elf32-littleriscv


Disassembly of section .text:

80000000 <_start>:
80000000:	00000093          	li	ra,0
80000004:	0000b117          	auipc	sp,0xb
80000008:	0fc10113          	addi	sp,sp,252 # 8000b100 <_DYNAMIC>
8000000c:	00018193          	mv	gp,gp
80000010:	00000193          	li	gp,0
80000014:	00000213          	li	tp,0
80000018:	00000293          	li	t0,0
8000001c:	00000313          	li	t1,0
80000020:	00000393          	li	t2,0
80000024:	00000413          	li	s0,0
80000028:	00000493          	li	s1,0
8000002c:	00000513          	li	a0,0
80000030:	00000593          	li	a1,0
80000034:	00000613          	li	a2,0
80000038:	00000693          	li	a3,0
8000003c:	00000713          	li	a4,0
80000040:	00000793          	li	a5,0
80000044:	00000813          	li	a6,0
80000048:	00000893          	li	a7,0
8000004c:	00000913          	li	s2,0
80000050:	00000993          	li	s3,0
80000054:	00000a13          	li	s4,0
80000058:	00000a93          	li	s5,0
8000005c:	00000b13          	li	s6,0
80000060:	00000b93          	li	s7,0
80000064:	00000c13          	li	s8,0
80000068:	00000c93          	li	s9,0
8000006c:	00000d13          	li	s10,0
80000070:	00000d93          	li	s11,0
80000074:	00000e13          	li	t3,0
80000078:	00000e93          	li	t4,0
8000007c:	00000f13          	li	t5,0
80000080:	00000f93          	li	t6,0
80000084:	0000b517          	auipc	a0,0xb
80000088:	17c50513          	addi	a0,a0,380 # 8000b200 <buf>
8000008c:	0000b617          	auipc	a2,0xb
80000090:	19460613          	addi	a2,a2,404 # 8000b220 <_ebss>
80000094:	40a60633          	sub	a2,a2,a0
80000098:	00000593          	li	a1,0
8000009c:	3cd020ef          	jal	80002c68 <memset>
800000a0:	635000ef          	jal	80000ed4 <main>

800000a4 <loop>:
800000a4:	0000006f          	j	800000a4 <loop>

800000a8 <__syscall>:
800000a8:	00050893          	mv	a7,a0
800000ac:	00058513          	mv	a0,a1
800000b0:	00060593          	mv	a1,a2
800000b4:	00068613          	mv	a2,a3
800000b8:	00070693          	mv	a3,a4
800000bc:	00078713          	mv	a4,a5
800000c0:	00000073          	ecall
800000c4:	00000013          	nop
800000c8:	00008067          	ret

800000cc <enable>:
800000cc:	30046573          	csrrsi	a0,mstatus,8
800000d0:	00008067          	ret

800000d4 <disable>:
800000d4:	30047573          	csrrci	a0,mstatus,8
800000d8:	00008067          	ret

800000dc <restore>:
800000dc:	30051073          	csrw	mstatus,a0
800000e0:	00008067          	ret

800000e4 <enable_interrupt_status>:
800000e4:	00800293          	li	t0,8
800000e8:	3002a073          	csrs	mstatus,t0
800000ec:	00008067          	ret

800000f0 <enable_interrupt>:
800000f0:	00100293          	li	t0,1
800000f4:	00a292b3          	sll	t0,t0,a0
800000f8:	3042a073          	csrs	mie,t0
800000fc:	00008067          	ret

80000100 <disable_interrupt_status>:
80000100:	00800293          	li	t0,8
80000104:	3002b073          	csrc	mstatus,t0
80000108:	00008067          	ret

8000010c <disable_interrupt>:
8000010c:	00100293          	li	t0,1
80000110:	00a292b3          	sll	t0,t0,a0
80000114:	3042b073          	csrc	mie,t0
80000118:	00008067          	ret

8000011c <clear_interrupts>:
8000011c:	00000293          	li	t0,0
80000120:	34429073          	csrw	mip,t0
80000124:	00008067          	ret

80000128 <soft_trap>:
80000128:	00800293          	li	t0,8
8000012c:	3442a073          	csrs	mip,t0
80000130:	00008067          	ret

80000134 <csr_read_dynamic>:
80000134:	333028f3          	csrr	a7,mhpmevent19
80000138:	00000013          	nop
8000013c:	00000013          	nop
80000140:	00088513          	mv	a0,a7
80000144:	00008067          	ret

80000148 <test_basic_operations>:
80000148:	fe010113          	addi	sp,sp,-32
8000014c:	00112e23          	sw	ra,28(sp)
80000150:	00812c23          	sw	s0,24(sp)
80000154:	02010413          	addi	s0,sp,32
80000158:	800087b7          	lui	a5,0x80008
8000015c:	00078513          	mv	a0,a5
80000160:	04d040ef          	jal	800049ac <printf>
80000164:	00f00793          	li	a5,15
80000168:	fef42623          	sw	a5,-20(s0)
8000016c:	00700793          	li	a5,7
80000170:	fef42423          	sw	a5,-24(s0)
80000174:	fe842603          	lw	a2,-24(s0)
80000178:	fec42583          	lw	a1,-20(s0)
8000017c:	800087b7          	lui	a5,0x80008
80000180:	02478513          	addi	a0,a5,36 # 80008024 <_srodata+0x24>
80000184:	029040ef          	jal	800049ac <printf>
80000188:	fec42703          	lw	a4,-20(s0)
8000018c:	fe842783          	lw	a5,-24(s0)
80000190:	00f707b3          	add	a5,a4,a5
80000194:	00078593          	mv	a1,a5
80000198:	800087b7          	lui	a5,0x80008
8000019c:	03478513          	addi	a0,a5,52 # 80008034 <_srodata+0x34>
800001a0:	00d040ef          	jal	800049ac <printf>
800001a4:	fec42703          	lw	a4,-20(s0)
800001a8:	fe842783          	lw	a5,-24(s0)
800001ac:	40f707b3          	sub	a5,a4,a5
800001b0:	00078593          	mv	a1,a5
800001b4:	800087b7          	lui	a5,0x80008
800001b8:	04878513          	addi	a0,a5,72 # 80008048 <_srodata+0x48>
800001bc:	7f0040ef          	jal	800049ac <printf>
800001c0:	fec42703          	lw	a4,-20(s0)
800001c4:	fe842783          	lw	a5,-24(s0)
800001c8:	00f777b3          	and	a5,a4,a5
800001cc:	00078593          	mv	a1,a5
800001d0:	800087b7          	lui	a5,0x80008
800001d4:	05c78513          	addi	a0,a5,92 # 8000805c <_srodata+0x5c>
800001d8:	7d4040ef          	jal	800049ac <printf>
800001dc:	fec42703          	lw	a4,-20(s0)
800001e0:	fe842783          	lw	a5,-24(s0)
800001e4:	00f767b3          	or	a5,a4,a5
800001e8:	00078593          	mv	a1,a5
800001ec:	800087b7          	lui	a5,0x80008
800001f0:	07478513          	addi	a0,a5,116 # 80008074 <_srodata+0x74>
800001f4:	7b8040ef          	jal	800049ac <printf>
800001f8:	fec42703          	lw	a4,-20(s0)
800001fc:	fe842783          	lw	a5,-24(s0)
80000200:	00f747b3          	xor	a5,a4,a5
80000204:	00078593          	mv	a1,a5
80000208:	800087b7          	lui	a5,0x80008
8000020c:	08c78513          	addi	a0,a5,140 # 8000808c <_srodata+0x8c>
80000210:	79c040ef          	jal	800049ac <printf>
80000214:	800087b7          	lui	a5,0x80008
80000218:	0a478513          	addi	a0,a5,164 # 800080a4 <_srodata+0xa4>
8000021c:	790040ef          	jal	800049ac <printf>
80000220:	00000013          	nop
80000224:	01c12083          	lw	ra,28(sp)
80000228:	01812403          	lw	s0,24(sp)
8000022c:	02010113          	addi	sp,sp,32
80000230:	00008067          	ret

80000234 <test_shift_operations>:
80000234:	fe010113          	addi	sp,sp,-32
80000238:	00112e23          	sw	ra,28(sp)
8000023c:	00812c23          	sw	s0,24(sp)
80000240:	02010413          	addi	s0,sp,32
80000244:	800087b7          	lui	a5,0x80008
80000248:	0a878513          	addi	a0,a5,168 # 800080a8 <_srodata+0xa8>
8000024c:	760040ef          	jal	800049ac <printf>
80000250:	123457b7          	lui	a5,0x12345
80000254:	67878793          	addi	a5,a5,1656 # 12345678 <_start-0x6dcba988>
80000258:	fef42623          	sw	a5,-20(s0)
8000025c:	fec42783          	lw	a5,-20(s0)
80000260:	fef42423          	sw	a5,-24(s0)
80000264:	fec42583          	lw	a1,-20(s0)
80000268:	800087b7          	lui	a5,0x80008
8000026c:	0d878513          	addi	a0,a5,216 # 800080d8 <_srodata+0xd8>
80000270:	73c040ef          	jal	800049ac <printf>
80000274:	fec42783          	lw	a5,-20(s0)
80000278:	00479793          	slli	a5,a5,0x4
8000027c:	00078593          	mv	a1,a5
80000280:	800087b7          	lui	a5,0x80008
80000284:	0f078513          	addi	a0,a5,240 # 800080f0 <_srodata+0xf0>
80000288:	724040ef          	jal	800049ac <printf>
8000028c:	fec42783          	lw	a5,-20(s0)
80000290:	0047d793          	srli	a5,a5,0x4
80000294:	00078593          	mv	a1,a5
80000298:	800087b7          	lui	a5,0x80008
8000029c:	10478513          	addi	a0,a5,260 # 80008104 <_srodata+0x104>
800002a0:	70c040ef          	jal	800049ac <printf>
800002a4:	fe842783          	lw	a5,-24(s0)
800002a8:	4047d793          	srai	a5,a5,0x4
800002ac:	00078593          	mv	a1,a5
800002b0:	800087b7          	lui	a5,0x80008
800002b4:	11878513          	addi	a0,a5,280 # 80008118 <_srodata+0x118>
800002b8:	6f4040ef          	jal	800049ac <printf>
800002bc:	800087b7          	lui	a5,0x80008
800002c0:	0a478513          	addi	a0,a5,164 # 800080a4 <_srodata+0xa4>
800002c4:	6e8040ef          	jal	800049ac <printf>
800002c8:	00000013          	nop
800002cc:	01c12083          	lw	ra,28(sp)
800002d0:	01812403          	lw	s0,24(sp)
800002d4:	02010113          	addi	sp,sp,32
800002d8:	00008067          	ret

800002dc <test_comparison_operations>:
800002dc:	fe010113          	addi	sp,sp,-32
800002e0:	00112e23          	sw	ra,28(sp)
800002e4:	00812c23          	sw	s0,24(sp)
800002e8:	02010413          	addi	s0,sp,32
800002ec:	800087b7          	lui	a5,0x80008
800002f0:	13878513          	addi	a0,a5,312 # 80008138 <_srodata+0x138>
800002f4:	6b8040ef          	jal	800049ac <printf>
800002f8:	00a00793          	li	a5,10
800002fc:	fef42623          	sw	a5,-20(s0)
80000300:	01400793          	li	a5,20
80000304:	fef42423          	sw	a5,-24(s0)
80000308:	fe842603          	lw	a2,-24(s0)
8000030c:	fec42583          	lw	a1,-20(s0)
80000310:	800087b7          	lui	a5,0x80008
80000314:	02478513          	addi	a0,a5,36 # 80008024 <_srodata+0x24>
80000318:	694040ef          	jal	800049ac <printf>
8000031c:	fec42703          	lw	a4,-20(s0)
80000320:	fe842783          	lw	a5,-24(s0)
80000324:	00f71863          	bne	a4,a5,80000334 <test_comparison_operations+0x58>
80000328:	800087b7          	lui	a5,0x80008
8000032c:	16478793          	addi	a5,a5,356 # 80008164 <_srodata+0x164>
80000330:	00c0006f          	j	8000033c <test_comparison_operations+0x60>
80000334:	800087b7          	lui	a5,0x80008
80000338:	16c78793          	addi	a5,a5,364 # 8000816c <_srodata+0x16c>
8000033c:	00078593          	mv	a1,a5
80000340:	800087b7          	lui	a5,0x80008
80000344:	17478513          	addi	a0,a5,372 # 80008174 <_srodata+0x174>
80000348:	664040ef          	jal	800049ac <printf>
8000034c:	fec42703          	lw	a4,-20(s0)
80000350:	fe842783          	lw	a5,-24(s0)
80000354:	00f70863          	beq	a4,a5,80000364 <test_comparison_operations+0x88>
80000358:	800087b7          	lui	a5,0x80008
8000035c:	16478793          	addi	a5,a5,356 # 80008164 <_srodata+0x164>
80000360:	00c0006f          	j	8000036c <test_comparison_operations+0x90>
80000364:	800087b7          	lui	a5,0x80008
80000368:	16c78793          	addi	a5,a5,364 # 8000816c <_srodata+0x16c>
8000036c:	00078593          	mv	a1,a5
80000370:	800087b7          	lui	a5,0x80008
80000374:	18078513          	addi	a0,a5,384 # 80008180 <_srodata+0x180>
80000378:	634040ef          	jal	800049ac <printf>
8000037c:	fec42703          	lw	a4,-20(s0)
80000380:	fe842783          	lw	a5,-24(s0)
80000384:	00f77863          	bgeu	a4,a5,80000394 <test_comparison_operations+0xb8>
80000388:	800087b7          	lui	a5,0x80008
8000038c:	16478793          	addi	a5,a5,356 # 80008164 <_srodata+0x164>
80000390:	00c0006f          	j	8000039c <test_comparison_operations+0xc0>
80000394:	800087b7          	lui	a5,0x80008
80000398:	16c78793          	addi	a5,a5,364 # 8000816c <_srodata+0x16c>
8000039c:	00078593          	mv	a1,a5
800003a0:	800087b7          	lui	a5,0x80008
800003a4:	18c78513          	addi	a0,a5,396 # 8000818c <_srodata+0x18c>
800003a8:	604040ef          	jal	800049ac <printf>
800003ac:	fec42703          	lw	a4,-20(s0)
800003b0:	fe842783          	lw	a5,-24(s0)
800003b4:	00f76863          	bltu	a4,a5,800003c4 <test_comparison_operations+0xe8>
800003b8:	800087b7          	lui	a5,0x80008
800003bc:	16478793          	addi	a5,a5,356 # 80008164 <_srodata+0x164>
800003c0:	00c0006f          	j	800003cc <test_comparison_operations+0xf0>
800003c4:	800087b7          	lui	a5,0x80008
800003c8:	16c78793          	addi	a5,a5,364 # 8000816c <_srodata+0x16c>
800003cc:	00078593          	mv	a1,a5
800003d0:	800087b7          	lui	a5,0x80008
800003d4:	19878513          	addi	a0,a5,408 # 80008198 <_srodata+0x198>
800003d8:	5d4040ef          	jal	800049ac <printf>
800003dc:	fec42703          	lw	a4,-20(s0)
800003e0:	fe842783          	lw	a5,-24(s0)
800003e4:	00e7e863          	bltu	a5,a4,800003f4 <test_comparison_operations+0x118>
800003e8:	800087b7          	lui	a5,0x80008
800003ec:	16478793          	addi	a5,a5,356 # 80008164 <_srodata+0x164>
800003f0:	00c0006f          	j	800003fc <test_comparison_operations+0x120>
800003f4:	800087b7          	lui	a5,0x80008
800003f8:	16c78793          	addi	a5,a5,364 # 8000816c <_srodata+0x16c>
800003fc:	00078593          	mv	a1,a5
80000400:	800087b7          	lui	a5,0x80008
80000404:	1a478513          	addi	a0,a5,420 # 800081a4 <_srodata+0x1a4>
80000408:	5a4040ef          	jal	800049ac <printf>
8000040c:	fec42703          	lw	a4,-20(s0)
80000410:	fe842783          	lw	a5,-24(s0)
80000414:	00e7f863          	bgeu	a5,a4,80000424 <test_comparison_operations+0x148>
80000418:	800087b7          	lui	a5,0x80008
8000041c:	16478793          	addi	a5,a5,356 # 80008164 <_srodata+0x164>
80000420:	00c0006f          	j	8000042c <test_comparison_operations+0x150>
80000424:	800087b7          	lui	a5,0x80008
80000428:	16c78793          	addi	a5,a5,364 # 8000816c <_srodata+0x16c>
8000042c:	00078593          	mv	a1,a5
80000430:	800087b7          	lui	a5,0x80008
80000434:	1b078513          	addi	a0,a5,432 # 800081b0 <_srodata+0x1b0>
80000438:	574040ef          	jal	800049ac <printf>
8000043c:	800087b7          	lui	a5,0x80008
80000440:	0a478513          	addi	a0,a5,164 # 800080a4 <_srodata+0xa4>
80000444:	568040ef          	jal	800049ac <printf>
80000448:	00000013          	nop
8000044c:	01c12083          	lw	ra,28(sp)
80000450:	01812403          	lw	s0,24(sp)
80000454:	02010113          	addi	sp,sp,32
80000458:	00008067          	ret

8000045c <test_memory_operations>:
8000045c:	fc010113          	addi	sp,sp,-64
80000460:	02112e23          	sw	ra,60(sp)
80000464:	02812c23          	sw	s0,56(sp)
80000468:	04010413          	addi	s0,sp,64
8000046c:	800087b7          	lui	a5,0x80008
80000470:	1bc78513          	addi	a0,a5,444 # 800081bc <_srodata+0x1bc>
80000474:	538040ef          	jal	800049ac <printf>
80000478:	fe042623          	sw	zero,-20(s0)
8000047c:	800087b7          	lui	a5,0x80008
80000480:	1e478513          	addi	a0,a5,484 # 800081e4 <_srodata+0x1e4>
80000484:	528040ef          	jal	800049ac <printf>
80000488:	fe042423          	sw	zero,-24(s0)
8000048c:	0640006f          	j	800004f0 <test_memory_operations+0x94>
80000490:	fe842703          	lw	a4,-24(s0)
80000494:	00070793          	mv	a5,a4
80000498:	00279793          	slli	a5,a5,0x2
8000049c:	00e787b3          	add	a5,a5,a4
800004a0:	00179793          	slli	a5,a5,0x1
800004a4:	00078693          	mv	a3,a5
800004a8:	fe842703          	lw	a4,-24(s0)
800004ac:	fc440793          	addi	a5,s0,-60
800004b0:	00271713          	slli	a4,a4,0x2
800004b4:	00f707b3          	add	a5,a4,a5
800004b8:	00d7a023          	sw	a3,0(a5)
800004bc:	fe842703          	lw	a4,-24(s0)
800004c0:	fc440793          	addi	a5,s0,-60
800004c4:	00271713          	slli	a4,a4,0x2
800004c8:	00f707b3          	add	a5,a4,a5
800004cc:	0007a783          	lw	a5,0(a5)
800004d0:	00078613          	mv	a2,a5
800004d4:	fe842583          	lw	a1,-24(s0)
800004d8:	800087b7          	lui	a5,0x80008
800004dc:	20078513          	addi	a0,a5,512 # 80008200 <_srodata+0x200>
800004e0:	4cc040ef          	jal	800049ac <printf>
800004e4:	fe842783          	lw	a5,-24(s0)
800004e8:	00178793          	addi	a5,a5,1
800004ec:	fef42423          	sw	a5,-24(s0)
800004f0:	fe842703          	lw	a4,-24(s0)
800004f4:	00700793          	li	a5,7
800004f8:	f8e7fce3          	bgeu	a5,a4,80000490 <test_memory_operations+0x34>
800004fc:	800087b7          	lui	a5,0x80008
80000500:	21078513          	addi	a0,a5,528 # 80008210 <_srodata+0x210>
80000504:	4a8040ef          	jal	800049ac <printf>
80000508:	fe042223          	sw	zero,-28(s0)
8000050c:	0980006f          	j	800005a4 <test_memory_operations+0x148>
80000510:	fe442703          	lw	a4,-28(s0)
80000514:	fc440793          	addi	a5,s0,-60
80000518:	00271713          	slli	a4,a4,0x2
8000051c:	00f707b3          	add	a5,a4,a5
80000520:	0007a683          	lw	a3,0(a5)
80000524:	fe442703          	lw	a4,-28(s0)
80000528:	00070793          	mv	a5,a4
8000052c:	00279793          	slli	a5,a5,0x2
80000530:	00e787b3          	add	a5,a5,a4
80000534:	00179793          	slli	a5,a5,0x1
80000538:	04f69863          	bne	a3,a5,80000588 <test_memory_operations+0x12c>
8000053c:	fe442703          	lw	a4,-28(s0)
80000540:	fc440793          	addi	a5,s0,-60
80000544:	00271713          	slli	a4,a4,0x2
80000548:	00f707b3          	add	a5,a4,a5
8000054c:	0007a783          	lw	a5,0(a5)
80000550:	fec42703          	lw	a4,-20(s0)
80000554:	00f707b3          	add	a5,a4,a5
80000558:	fef42623          	sw	a5,-20(s0)
8000055c:	fe442703          	lw	a4,-28(s0)
80000560:	fc440793          	addi	a5,s0,-60
80000564:	00271713          	slli	a4,a4,0x2
80000568:	00f707b3          	add	a5,a4,a5
8000056c:	0007a783          	lw	a5,0(a5)
80000570:	00078613          	mv	a2,a5
80000574:	fe442583          	lw	a1,-28(s0)
80000578:	800087b7          	lui	a5,0x80008
8000057c:	22c78513          	addi	a0,a5,556 # 8000822c <_srodata+0x22c>
80000580:	42c040ef          	jal	800049ac <printf>
80000584:	0140006f          	j	80000598 <test_memory_operations+0x13c>
80000588:	fe442583          	lw	a1,-28(s0)
8000058c:	800087b7          	lui	a5,0x80008
80000590:	24078513          	addi	a0,a5,576 # 80008240 <_srodata+0x240>
80000594:	418040ef          	jal	800049ac <printf>
80000598:	fe442783          	lw	a5,-28(s0)
8000059c:	00178793          	addi	a5,a5,1
800005a0:	fef42223          	sw	a5,-28(s0)
800005a4:	fe442703          	lw	a4,-28(s0)
800005a8:	00700793          	li	a5,7
800005ac:	f6e7f2e3          	bgeu	a5,a4,80000510 <test_memory_operations+0xb4>
800005b0:	fec42583          	lw	a1,-20(s0)
800005b4:	800087b7          	lui	a5,0x80008
800005b8:	25478513          	addi	a0,a5,596 # 80008254 <_srodata+0x254>
800005bc:	3f0040ef          	jal	800049ac <printf>
800005c0:	800087b7          	lui	a5,0x80008
800005c4:	0a478513          	addi	a0,a5,164 # 800080a4 <_srodata+0xa4>
800005c8:	3e4040ef          	jal	800049ac <printf>
800005cc:	00000013          	nop
800005d0:	03c12083          	lw	ra,60(sp)
800005d4:	03812403          	lw	s0,56(sp)
800005d8:	04010113          	addi	sp,sp,64
800005dc:	00008067          	ret

800005e0 <test_control_flow>:
800005e0:	fe010113          	addi	sp,sp,-32
800005e4:	00112e23          	sw	ra,28(sp)
800005e8:	00812c23          	sw	s0,24(sp)
800005ec:	02010413          	addi	s0,sp,32
800005f0:	800087b7          	lui	a5,0x80008
800005f4:	26478513          	addi	a0,a5,612 # 80008264 <_srodata+0x264>
800005f8:	3b4040ef          	jal	800049ac <printf>
800005fc:	fe042623          	sw	zero,-20(s0)
80000600:	800087b7          	lui	a5,0x80008
80000604:	28478513          	addi	a0,a5,644 # 80008284 <_srodata+0x284>
80000608:	3a4040ef          	jal	800049ac <printf>
8000060c:	fe042423          	sw	zero,-24(s0)
80000610:	0340006f          	j	80000644 <test_control_flow+0x64>
80000614:	fec42703          	lw	a4,-20(s0)
80000618:	fe842783          	lw	a5,-24(s0)
8000061c:	00f707b3          	add	a5,a4,a5
80000620:	fef42623          	sw	a5,-20(s0)
80000624:	fec42603          	lw	a2,-20(s0)
80000628:	fe842583          	lw	a1,-24(s0)
8000062c:	800087b7          	lui	a5,0x80008
80000630:	29878513          	addi	a0,a5,664 # 80008298 <_srodata+0x298>
80000634:	378040ef          	jal	800049ac <printf>
80000638:	fe842783          	lw	a5,-24(s0)
8000063c:	00178793          	addi	a5,a5,1
80000640:	fef42423          	sw	a5,-24(s0)
80000644:	fe842703          	lw	a4,-24(s0)
80000648:	00400793          	li	a5,4
8000064c:	fce7f4e3          	bgeu	a5,a4,80000614 <test_control_flow+0x34>
80000650:	800087b7          	lui	a5,0x80008
80000654:	2ac78513          	addi	a0,a5,684 # 800082ac <_srodata+0x2ac>
80000658:	354040ef          	jal	800049ac <printf>
8000065c:	fe042223          	sw	zero,-28(s0)
80000660:	0a80006f          	j	80000708 <test_control_flow+0x128>
80000664:	fe442783          	lw	a5,-28(s0)
80000668:	0017f793          	andi	a5,a5,1
8000066c:	06079663          	bnez	a5,800006d8 <test_control_flow+0xf8>
80000670:	fe442783          	lw	a5,-28(s0)
80000674:	0037f793          	andi	a5,a5,3
80000678:	02079c63          	bnez	a5,800006b0 <test_control_flow+0xd0>
8000067c:	fe442783          	lw	a5,-28(s0)
80000680:	00179793          	slli	a5,a5,0x1
80000684:	fec42703          	lw	a4,-20(s0)
80000688:	00f707b3          	add	a5,a4,a5
8000068c:	fef42623          	sw	a5,-20(s0)
80000690:	fe442783          	lw	a5,-28(s0)
80000694:	00179793          	slli	a5,a5,0x1
80000698:	00078613          	mv	a2,a5
8000069c:	fe442583          	lw	a1,-28(s0)
800006a0:	800087b7          	lui	a5,0x80008
800006a4:	2d078513          	addi	a0,a5,720 # 800082d0 <_srodata+0x2d0>
800006a8:	304040ef          	jal	800049ac <printf>
800006ac:	0500006f          	j	800006fc <test_control_flow+0x11c>
800006b0:	fec42703          	lw	a4,-20(s0)
800006b4:	fe442783          	lw	a5,-28(s0)
800006b8:	00f707b3          	add	a5,a4,a5
800006bc:	fef42623          	sw	a5,-20(s0)
800006c0:	fe442603          	lw	a2,-28(s0)
800006c4:	fe442583          	lw	a1,-28(s0)
800006c8:	800087b7          	lui	a5,0x80008
800006cc:	2ec78513          	addi	a0,a5,748 # 800082ec <_srodata+0x2ec>
800006d0:	2dc040ef          	jal	800049ac <printf>
800006d4:	0280006f          	j	800006fc <test_control_flow+0x11c>
800006d8:	fec42703          	lw	a4,-20(s0)
800006dc:	fe442783          	lw	a5,-28(s0)
800006e0:	40f707b3          	sub	a5,a4,a5
800006e4:	fef42623          	sw	a5,-20(s0)
800006e8:	fe442603          	lw	a2,-28(s0)
800006ec:	fe442583          	lw	a1,-28(s0)
800006f0:	800087b7          	lui	a5,0x80008
800006f4:	30078513          	addi	a0,a5,768 # 80008300 <_srodata+0x300>
800006f8:	2b4040ef          	jal	800049ac <printf>
800006fc:	fe442783          	lw	a5,-28(s0)
80000700:	00178793          	addi	a5,a5,1
80000704:	fef42223          	sw	a5,-28(s0)
80000708:	fe442703          	lw	a4,-28(s0)
8000070c:	00900793          	li	a5,9
80000710:	f4e7fae3          	bgeu	a5,a4,80000664 <test_control_flow+0x84>
80000714:	fec42583          	lw	a1,-20(s0)
80000718:	800087b7          	lui	a5,0x80008
8000071c:	31478513          	addi	a0,a5,788 # 80008314 <_srodata+0x314>
80000720:	28c040ef          	jal	800049ac <printf>
80000724:	800087b7          	lui	a5,0x80008
80000728:	0a478513          	addi	a0,a5,164 # 800080a4 <_srodata+0xa4>
8000072c:	280040ef          	jal	800049ac <printf>
80000730:	00000013          	nop
80000734:	01c12083          	lw	ra,28(sp)
80000738:	01812403          	lw	s0,24(sp)
8000073c:	02010113          	addi	sp,sp,32
80000740:	00008067          	ret

80000744 <recursive_sum>:
80000744:	fd010113          	addi	sp,sp,-48
80000748:	02112623          	sw	ra,44(sp)
8000074c:	02812423          	sw	s0,40(sp)
80000750:	03010413          	addi	s0,sp,48
80000754:	fca42e23          	sw	a0,-36(s0)
80000758:	fdc42783          	lw	a5,-36(s0)
8000075c:	00079c63          	bnez	a5,80000774 <recursive_sum+0x30>
80000760:	800087b7          	lui	a5,0x80008
80000764:	32c78513          	addi	a0,a5,812 # 8000832c <_srodata+0x32c>
80000768:	244040ef          	jal	800049ac <printf>
8000076c:	00000793          	li	a5,0
80000770:	03c0006f          	j	800007ac <recursive_sum+0x68>
80000774:	fdc42783          	lw	a5,-36(s0)
80000778:	fff78793          	addi	a5,a5,-1
8000077c:	00078513          	mv	a0,a5
80000780:	fc5ff0ef          	jal	80000744 <recursive_sum>
80000784:	00050713          	mv	a4,a0
80000788:	fdc42783          	lw	a5,-36(s0)
8000078c:	00e787b3          	add	a5,a5,a4
80000790:	fef42623          	sw	a5,-20(s0)
80000794:	fec42603          	lw	a2,-20(s0)
80000798:	fdc42583          	lw	a1,-36(s0)
8000079c:	800087b7          	lui	a5,0x80008
800007a0:	34478513          	addi	a0,a5,836 # 80008344 <_srodata+0x344>
800007a4:	208040ef          	jal	800049ac <printf>
800007a8:	fec42783          	lw	a5,-20(s0)
800007ac:	00078513          	mv	a0,a5
800007b0:	02c12083          	lw	ra,44(sp)
800007b4:	02812403          	lw	s0,40(sp)
800007b8:	03010113          	addi	sp,sp,48
800007bc:	00008067          	ret

800007c0 <test_function_calls>:
800007c0:	fe010113          	addi	sp,sp,-32
800007c4:	00112e23          	sw	ra,28(sp)
800007c8:	00812c23          	sw	s0,24(sp)
800007cc:	02010413          	addi	s0,sp,32
800007d0:	800087b7          	lui	a5,0x80008
800007d4:	35c78513          	addi	a0,a5,860 # 8000835c <_srodata+0x35c>
800007d8:	1d4040ef          	jal	800049ac <printf>
800007dc:	800087b7          	lui	a5,0x80008
800007e0:	38078513          	addi	a0,a5,896 # 80008380 <_srodata+0x380>
800007e4:	1c8040ef          	jal	800049ac <printf>
800007e8:	00500513          	li	a0,5
800007ec:	f59ff0ef          	jal	80000744 <recursive_sum>
800007f0:	fea42623          	sw	a0,-20(s0)
800007f4:	fec42583          	lw	a1,-20(s0)
800007f8:	800087b7          	lui	a5,0x80008
800007fc:	39878513          	addi	a0,a5,920 # 80008398 <_srodata+0x398>
80000800:	1ac040ef          	jal	800049ac <printf>
80000804:	800087b7          	lui	a5,0x80008
80000808:	0a478513          	addi	a0,a5,164 # 800080a4 <_srodata+0xa4>
8000080c:	1a0040ef          	jal	800049ac <printf>
80000810:	00000013          	nop
80000814:	01c12083          	lw	ra,28(sp)
80000818:	01812403          	lw	s0,24(sp)
8000081c:	02010113          	addi	sp,sp,32
80000820:	00008067          	ret

80000824 <test_immediate_operations>:
80000824:	ff010113          	addi	sp,sp,-16
80000828:	00112623          	sw	ra,12(sp)
8000082c:	00812423          	sw	s0,8(sp)
80000830:	01010413          	addi	s0,sp,16
80000834:	800087b7          	lui	a5,0x80008
80000838:	3b878513          	addi	a0,a5,952 # 800083b8 <_srodata+0x3b8>
8000083c:	170040ef          	jal	800049ac <printf>
80000840:	000035b7          	lui	a1,0x3
80000844:	800087b7          	lui	a5,0x80008
80000848:	3e478513          	addi	a0,a5,996 # 800083e4 <_srodata+0x3e4>
8000084c:	160040ef          	jal	800049ac <printf>
80000850:	00000593          	li	a1,0
80000854:	800087b7          	lui	a5,0x80008
80000858:	40478513          	addi	a0,a5,1028 # 80008404 <_srodata+0x404>
8000085c:	150040ef          	jal	800049ac <printf>
80000860:	000017b7          	lui	a5,0x1
80000864:	0ff78593          	addi	a1,a5,255 # 10ff <_start-0x7fffef01>
80000868:	800087b7          	lui	a5,0x80008
8000086c:	42478513          	addi	a0,a5,1060 # 80008424 <_srodata+0x424>
80000870:	13c040ef          	jal	800049ac <printf>
80000874:	000017b7          	lui	a5,0x1
80000878:	0ff78593          	addi	a1,a5,255 # 10ff <_start-0x7fffef01>
8000087c:	800087b7          	lui	a5,0x80008
80000880:	44478513          	addi	a0,a5,1092 # 80008444 <_srodata+0x444>
80000884:	128040ef          	jal	800049ac <printf>
80000888:	800087b7          	lui	a5,0x80008
8000088c:	0a478513          	addi	a0,a5,164 # 800080a4 <_srodata+0xa4>
80000890:	11c040ef          	jal	800049ac <printf>
80000894:	00000013          	nop
80000898:	00c12083          	lw	ra,12(sp)
8000089c:	00812403          	lw	s0,8(sp)
800008a0:	01010113          	addi	sp,sp,16
800008a4:	00008067          	ret

800008a8 <test_pointer_operations>:
800008a8:	fe010113          	addi	sp,sp,-32
800008ac:	00112e23          	sw	ra,28(sp)
800008b0:	00812c23          	sw	s0,24(sp)
800008b4:	02010413          	addi	s0,sp,32
800008b8:	800087b7          	lui	a5,0x80008
800008bc:	46478513          	addi	a0,a5,1124 # 80008464 <_srodata+0x464>
800008c0:	0ec040ef          	jal	800049ac <printf>
800008c4:	abcd17b7          	lui	a5,0xabcd1
800008c8:	23478793          	addi	a5,a5,564 # abcd1234 <maxheap+0x2bcc2224>
800008cc:	fef42423          	sw	a5,-24(s0)
800008d0:	fe840793          	addi	a5,s0,-24
800008d4:	fef42623          	sw	a5,-20(s0)
800008d8:	fec42783          	lw	a5,-20(s0)
800008dc:	00078593          	mv	a1,a5
800008e0:	800087b7          	lui	a5,0x80008
800008e4:	48c78513          	addi	a0,a5,1164 # 8000848c <_srodata+0x48c>
800008e8:	0c4040ef          	jal	800049ac <printf>
800008ec:	fe842783          	lw	a5,-24(s0)
800008f0:	00078593          	mv	a1,a5
800008f4:	800087b7          	lui	a5,0x80008
800008f8:	4a878513          	addi	a0,a5,1192 # 800084a8 <_srodata+0x4a8>
800008fc:	0b0040ef          	jal	800049ac <printf>
80000900:	fec42783          	lw	a5,-20(s0)
80000904:	0007a783          	lw	a5,0(a5)
80000908:	00078593          	mv	a1,a5
8000090c:	800087b7          	lui	a5,0x80008
80000910:	4c078513          	addi	a0,a5,1216 # 800084c0 <_srodata+0x4c0>
80000914:	098040ef          	jal	800049ac <printf>
80000918:	fec42783          	lw	a5,-20(s0)
8000091c:	deadc737          	lui	a4,0xdeadc
80000920:	eef70713          	addi	a4,a4,-273 # deadbeef <maxheap+0x5eaccedf>
80000924:	00e7a023          	sw	a4,0(a5)
80000928:	fe842783          	lw	a5,-24(s0)
8000092c:	00078593          	mv	a1,a5
80000930:	800087b7          	lui	a5,0x80008
80000934:	4dc78513          	addi	a0,a5,1244 # 800084dc <_srodata+0x4dc>
80000938:	074040ef          	jal	800049ac <printf>
8000093c:	800087b7          	lui	a5,0x80008
80000940:	0a478513          	addi	a0,a5,164 # 800080a4 <_srodata+0xa4>
80000944:	068040ef          	jal	800049ac <printf>
80000948:	00000013          	nop
8000094c:	01c12083          	lw	ra,28(sp)
80000950:	01812403          	lw	s0,24(sp)
80000954:	02010113          	addi	sp,sp,32
80000958:	00008067          	ret

8000095c <get_host_clock>:
8000095c:	fe010113          	addi	sp,sp,-32
80000960:	00112e23          	sw	ra,28(sp)
80000964:	00812c23          	sw	s0,24(sp)
80000968:	02010413          	addi	s0,sp,32
8000096c:	00000793          	li	a5,0
80000970:	02d00893          	li	a7,45
80000974:	00000073          	ecall
80000978:	00050793          	mv	a5,a0
8000097c:	00058793          	mv	a5,a1
80000980:	fef42623          	sw	a5,-20(s0)
80000984:	fec42783          	lw	a5,-20(s0)
80000988:	00078513          	mv	a0,a5
8000098c:	01c12083          	lw	ra,28(sp)
80000990:	01812403          	lw	s0,24(sp)
80000994:	02010113          	addi	sp,sp,32
80000998:	00008067          	ret

8000099c <prime_calculation>:
8000099c:	fd010113          	addi	sp,sp,-48
800009a0:	02112623          	sw	ra,44(sp)
800009a4:	02812423          	sw	s0,40(sp)
800009a8:	03010413          	addi	s0,sp,48
800009ac:	800087b7          	lui	a5,0x80008
800009b0:	4fc78513          	addi	a0,a5,1276 # 800084fc <_srodata+0x4fc>
800009b4:	7f9030ef          	jal	800049ac <printf>
800009b8:	fa5ff0ef          	jal	8000095c <get_host_clock>
800009bc:	fca42e23          	sw	a0,-36(s0)
800009c0:	fe042623          	sw	zero,-20(s0)
800009c4:	00200793          	li	a5,2
800009c8:	fef42423          	sw	a5,-24(s0)
800009cc:	0800006f          	j	80000a4c <prime_calculation+0xb0>
800009d0:	00100793          	li	a5,1
800009d4:	fef42223          	sw	a5,-28(s0)
800009d8:	00200793          	li	a5,2
800009dc:	fef42023          	sw	a5,-32(s0)
800009e0:	0300006f          	j	80000a10 <prime_calculation+0x74>
800009e4:	fe842783          	lw	a5,-24(s0)
800009e8:	fe042583          	lw	a1,-32(s0)
800009ec:	00078513          	mv	a0,a5
800009f0:	534070ef          	jal	80007f24 <__modsi3>
800009f4:	00050793          	mv	a5,a0
800009f8:	00079663          	bnez	a5,80000a04 <prime_calculation+0x68>
800009fc:	fe042223          	sw	zero,-28(s0)
80000a00:	02c0006f          	j	80000a2c <prime_calculation+0x90>
80000a04:	fe042783          	lw	a5,-32(s0)
80000a08:	00178793          	addi	a5,a5,1
80000a0c:	fef42023          	sw	a5,-32(s0)
80000a10:	fe042583          	lw	a1,-32(s0)
80000a14:	fe042503          	lw	a0,-32(s0)
80000a18:	464070ef          	jal	80007e7c <__mulsi3>
80000a1c:	00050793          	mv	a5,a0
80000a20:	00078713          	mv	a4,a5
80000a24:	fe842783          	lw	a5,-24(s0)
80000a28:	fae7dee3          	bge	a5,a4,800009e4 <prime_calculation+0x48>
80000a2c:	fe442783          	lw	a5,-28(s0)
80000a30:	00078863          	beqz	a5,80000a40 <prime_calculation+0xa4>
80000a34:	fec42783          	lw	a5,-20(s0)
80000a38:	00178793          	addi	a5,a5,1
80000a3c:	fef42623          	sw	a5,-20(s0)
80000a40:	fe842783          	lw	a5,-24(s0)
80000a44:	00178793          	addi	a5,a5,1
80000a48:	fef42423          	sw	a5,-24(s0)
80000a4c:	fe842703          	lw	a4,-24(s0)
80000a50:	000187b7          	lui	a5,0x18
80000a54:	69f78793          	addi	a5,a5,1695 # 1869f <_start-0x7ffe7961>
80000a58:	f6e7dce3          	bge	a5,a4,800009d0 <prime_calculation+0x34>
80000a5c:	f01ff0ef          	jal	8000095c <get_host_clock>
80000a60:	fca42c23          	sw	a0,-40(s0)
80000a64:	fd842703          	lw	a4,-40(s0)
80000a68:	fdc42783          	lw	a5,-36(s0)
80000a6c:	40f707b3          	sub	a5,a4,a5
80000a70:	00078513          	mv	a0,a5
80000a74:	7f1060ef          	jal	80007a64 <__floatunsisf>
80000a78:	00050793          	mv	a5,a0
80000a7c:	fcf42a23          	sw	a5,-44(s0)
80000a80:	fec42583          	lw	a1,-20(s0)
80000a84:	800087b7          	lui	a5,0x80008
80000a88:	51c78513          	addi	a0,a5,1308 # 8000851c <_srodata+0x51c>
80000a8c:	721030ef          	jal	800049ac <printf>
80000a90:	fd442503          	lw	a0,-44(s0)
80000a94:	120070ef          	jal	80007bb4 <__extendsfdf2>
80000a98:	00050713          	mv	a4,a0
80000a9c:	00058793          	mv	a5,a1
80000aa0:	00070613          	mv	a2,a4
80000aa4:	00078693          	mv	a3,a5
80000aa8:	800087b7          	lui	a5,0x80008
80000aac:	53478513          	addi	a0,a5,1332 # 80008534 <_srodata+0x534>
80000ab0:	6fd030ef          	jal	800049ac <printf>
80000ab4:	00000013          	nop
80000ab8:	02c12083          	lw	ra,44(sp)
80000abc:	02812403          	lw	s0,40(sp)
80000ac0:	03010113          	addi	sp,sp,48
80000ac4:	00008067          	ret

80000ac8 <taylor_series>:
80000ac8:	fc010113          	addi	sp,sp,-64
80000acc:	02112e23          	sw	ra,60(sp)
80000ad0:	02812c23          	sw	s0,56(sp)
80000ad4:	02912a23          	sw	s1,52(sp)
80000ad8:	04010413          	addi	s0,sp,64
80000adc:	800087b7          	lui	a5,0x80008
80000ae0:	54c78513          	addi	a0,a5,1356 # 8000854c <_srodata+0x54c>
80000ae4:	6c9030ef          	jal	800049ac <printf>
80000ae8:	e75ff0ef          	jal	8000095c <get_host_clock>
80000aec:	fca42823          	sw	a0,-48(s0)
80000af0:	00000793          	li	a5,0
80000af4:	fef42623          	sw	a5,-20(s0)
80000af8:	fe042423          	sw	zero,-24(s0)
80000afc:	11c0006f          	j	80000c18 <taylor_series+0x150>
80000b00:	fe842503          	lw	a0,-24(s0)
80000b04:	629060ef          	jal	8000792c <__floatsisf>
80000b08:	00050713          	mv	a4,a0
80000b0c:	800097b7          	lui	a5,0x80009
80000b10:	c487a583          	lw	a1,-952(a5) # 80008c48 <_srodata+0xc48>
80000b14:	00070513          	mv	a0,a4
80000b18:	66d050ef          	jal	80006984 <__divsf3>
80000b1c:	00050793          	mv	a5,a0
80000b20:	fcf42223          	sw	a5,-60(s0)
80000b24:	fc442783          	lw	a5,-60(s0)
80000b28:	fef42223          	sw	a5,-28(s0)
80000b2c:	fe442783          	lw	a5,-28(s0)
80000b30:	fef42023          	sw	a5,-32(s0)
80000b34:	fff00793          	li	a5,-1
80000b38:	fcf42e23          	sw	a5,-36(s0)
80000b3c:	00300793          	li	a5,3
80000b40:	fcf42c23          	sw	a5,-40(s0)
80000b44:	0a80006f          	j	80000bec <taylor_series+0x124>
80000b48:	fc442583          	lw	a1,-60(s0)
80000b4c:	fc442503          	lw	a0,-60(s0)
80000b50:	2e0060ef          	jal	80006e30 <__mulsf3>
80000b54:	00050793          	mv	a5,a0
80000b58:	00078493          	mv	s1,a5
80000b5c:	fd842783          	lw	a5,-40(s0)
80000b60:	fff78793          	addi	a5,a5,-1
80000b64:	fd842583          	lw	a1,-40(s0)
80000b68:	00078513          	mv	a0,a5
80000b6c:	310070ef          	jal	80007e7c <__mulsi3>
80000b70:	00050793          	mv	a5,a0
80000b74:	00078513          	mv	a0,a5
80000b78:	5b5060ef          	jal	8000792c <__floatsisf>
80000b7c:	00050793          	mv	a5,a0
80000b80:	00078593          	mv	a1,a5
80000b84:	00048513          	mv	a0,s1
80000b88:	5fd050ef          	jal	80006984 <__divsf3>
80000b8c:	00050793          	mv	a5,a0
80000b90:	00078593          	mv	a1,a5
80000b94:	fe442503          	lw	a0,-28(s0)
80000b98:	298060ef          	jal	80006e30 <__mulsf3>
80000b9c:	00050793          	mv	a5,a0
80000ba0:	fef42223          	sw	a5,-28(s0)
80000ba4:	fdc42503          	lw	a0,-36(s0)
80000ba8:	585060ef          	jal	8000792c <__floatsisf>
80000bac:	00050793          	mv	a5,a0
80000bb0:	fe442583          	lw	a1,-28(s0)
80000bb4:	00078513          	mv	a0,a5
80000bb8:	278060ef          	jal	80006e30 <__mulsf3>
80000bbc:	00050793          	mv	a5,a0
80000bc0:	00078593          	mv	a1,a5
80000bc4:	fe042503          	lw	a0,-32(s0)
80000bc8:	77c050ef          	jal	80006344 <__addsf3>
80000bcc:	00050793          	mv	a5,a0
80000bd0:	fef42023          	sw	a5,-32(s0)
80000bd4:	fdc42783          	lw	a5,-36(s0)
80000bd8:	40f007b3          	neg	a5,a5
80000bdc:	fcf42e23          	sw	a5,-36(s0)
80000be0:	fd842783          	lw	a5,-40(s0)
80000be4:	00278793          	addi	a5,a5,2
80000be8:	fcf42c23          	sw	a5,-40(s0)
80000bec:	fd842703          	lw	a4,-40(s0)
80000bf0:	01300793          	li	a5,19
80000bf4:	f4e7dae3          	bge	a5,a4,80000b48 <taylor_series+0x80>
80000bf8:	fe042583          	lw	a1,-32(s0)
80000bfc:	fec42503          	lw	a0,-20(s0)
80000c00:	744050ef          	jal	80006344 <__addsf3>
80000c04:	00050793          	mv	a5,a0
80000c08:	fef42623          	sw	a5,-20(s0)
80000c0c:	fe842783          	lw	a5,-24(s0)
80000c10:	00178793          	addi	a5,a5,1
80000c14:	fef42423          	sw	a5,-24(s0)
80000c18:	fe842703          	lw	a4,-24(s0)
80000c1c:	000187b7          	lui	a5,0x18
80000c20:	69f78793          	addi	a5,a5,1695 # 1869f <_start-0x7ffe7961>
80000c24:	ece7dee3          	bge	a5,a4,80000b00 <taylor_series+0x38>
80000c28:	d35ff0ef          	jal	8000095c <get_host_clock>
80000c2c:	fca42623          	sw	a0,-52(s0)
80000c30:	fcc42703          	lw	a4,-52(s0)
80000c34:	fd042783          	lw	a5,-48(s0)
80000c38:	40f707b3          	sub	a5,a4,a5
80000c3c:	fcf42a23          	sw	a5,-44(s0)
80000c40:	fd442703          	lw	a4,-44(s0)
80000c44:	fcc42783          	lw	a5,-52(s0)
80000c48:	00e7f463          	bgeu	a5,a4,80000c50 <taylor_series+0x188>
80000c4c:	fc042a23          	sw	zero,-44(s0)
80000c50:	fd442503          	lw	a0,-44(s0)
80000c54:	611060ef          	jal	80007a64 <__floatunsisf>
80000c58:	00050713          	mv	a4,a0
80000c5c:	800097b7          	lui	a5,0x80009
80000c60:	c4c7a583          	lw	a1,-948(a5) # 80008c4c <_srodata+0xc4c>
80000c64:	00070513          	mv	a0,a4
80000c68:	51d050ef          	jal	80006984 <__divsf3>
80000c6c:	00050793          	mv	a5,a0
80000c70:	fcf42423          	sw	a5,-56(s0)
80000c74:	fec42503          	lw	a0,-20(s0)
80000c78:	73d060ef          	jal	80007bb4 <__extendsfdf2>
80000c7c:	00050713          	mv	a4,a0
80000c80:	00058793          	mv	a5,a1
80000c84:	00070613          	mv	a2,a4
80000c88:	00078693          	mv	a3,a5
80000c8c:	800087b7          	lui	a5,0x80008
80000c90:	57478513          	addi	a0,a5,1396 # 80008574 <_srodata+0x574>
80000c94:	519030ef          	jal	800049ac <printf>
80000c98:	fc842503          	lw	a0,-56(s0)
80000c9c:	719060ef          	jal	80007bb4 <__extendsfdf2>
80000ca0:	00050713          	mv	a4,a0
80000ca4:	00058793          	mv	a5,a1
80000ca8:	00070613          	mv	a2,a4
80000cac:	00078693          	mv	a3,a5
80000cb0:	800087b7          	lui	a5,0x80008
80000cb4:	53478513          	addi	a0,a5,1332 # 80008534 <_srodata+0x534>
80000cb8:	4f5030ef          	jal	800049ac <printf>
80000cbc:	00000013          	nop
80000cc0:	03c12083          	lw	ra,60(sp)
80000cc4:	03812403          	lw	s0,56(sp)
80000cc8:	03412483          	lw	s1,52(sp)
80000ccc:	04010113          	addi	sp,sp,64
80000cd0:	00008067          	ret

80000cd4 <monte_carlo_pi>:
80000cd4:	fd010113          	addi	sp,sp,-48
80000cd8:	02112623          	sw	ra,44(sp)
80000cdc:	02812423          	sw	s0,40(sp)
80000ce0:	02912223          	sw	s1,36(sp)
80000ce4:	03010413          	addi	s0,sp,48
80000ce8:	800087b7          	lui	a5,0x80008
80000cec:	58878513          	addi	a0,a5,1416 # 80008588 <_srodata+0x588>
80000cf0:	4bd030ef          	jal	800049ac <printf>
80000cf4:	c69ff0ef          	jal	8000095c <get_host_clock>
80000cf8:	fea42223          	sw	a0,-28(s0)
80000cfc:	fe042623          	sw	zero,-20(s0)
80000d00:	fe042423          	sw	zero,-24(s0)
80000d04:	0c40006f          	j	80000dc8 <monte_carlo_pi+0xf4>
80000d08:	404040ef          	jal	8000510c <rand>
80000d0c:	00050793          	mv	a5,a0
80000d10:	00078513          	mv	a0,a5
80000d14:	419060ef          	jal	8000792c <__floatsisf>
80000d18:	00050713          	mv	a4,a0
80000d1c:	800097b7          	lui	a5,0x80009
80000d20:	c507a583          	lw	a1,-944(a5) # 80008c50 <_srodata+0xc50>
80000d24:	00070513          	mv	a0,a4
80000d28:	45d050ef          	jal	80006984 <__divsf3>
80000d2c:	00050793          	mv	a5,a0
80000d30:	fcf42a23          	sw	a5,-44(s0)
80000d34:	3d8040ef          	jal	8000510c <rand>
80000d38:	00050793          	mv	a5,a0
80000d3c:	00078513          	mv	a0,a5
80000d40:	3ed060ef          	jal	8000792c <__floatsisf>
80000d44:	00050713          	mv	a4,a0
80000d48:	800097b7          	lui	a5,0x80009
80000d4c:	c507a583          	lw	a1,-944(a5) # 80008c50 <_srodata+0xc50>
80000d50:	00070513          	mv	a0,a4
80000d54:	431050ef          	jal	80006984 <__divsf3>
80000d58:	00050793          	mv	a5,a0
80000d5c:	fcf42823          	sw	a5,-48(s0)
80000d60:	fd442583          	lw	a1,-44(s0)
80000d64:	fd442503          	lw	a0,-44(s0)
80000d68:	0c8060ef          	jal	80006e30 <__mulsf3>
80000d6c:	00050793          	mv	a5,a0
80000d70:	00078493          	mv	s1,a5
80000d74:	fd042583          	lw	a1,-48(s0)
80000d78:	fd042503          	lw	a0,-48(s0)
80000d7c:	0b4060ef          	jal	80006e30 <__mulsf3>
80000d80:	00050793          	mv	a5,a0
80000d84:	00078593          	mv	a1,a5
80000d88:	00048513          	mv	a0,s1
80000d8c:	5b8050ef          	jal	80006344 <__addsf3>
80000d90:	00050793          	mv	a5,a0
80000d94:	00078713          	mv	a4,a5
80000d98:	800097b7          	lui	a5,0x80009
80000d9c:	c547a583          	lw	a1,-940(a5) # 80008c54 <_srodata+0xc54>
80000da0:	00070513          	mv	a0,a4
80000da4:	7b9050ef          	jal	80006d5c <__lesf2>
80000da8:	00050793          	mv	a5,a0
80000dac:	00f04863          	bgtz	a5,80000dbc <monte_carlo_pi+0xe8>
80000db0:	fec42783          	lw	a5,-20(s0)
80000db4:	00178793          	addi	a5,a5,1
80000db8:	fef42623          	sw	a5,-20(s0)
80000dbc:	fe842783          	lw	a5,-24(s0)
80000dc0:	00178793          	addi	a5,a5,1
80000dc4:	fef42423          	sw	a5,-24(s0)
80000dc8:	fe842703          	lw	a4,-24(s0)
80000dcc:	000187b7          	lui	a5,0x18
80000dd0:	69f78793          	addi	a5,a5,1695 # 1869f <_start-0x7ffe7961>
80000dd4:	f2e7dae3          	bge	a5,a4,80000d08 <monte_carlo_pi+0x34>
80000dd8:	fec42503          	lw	a0,-20(s0)
80000ddc:	4a0050ef          	jal	8000627c <__floatsidf>
80000de0:	00050713          	mv	a4,a0
80000de4:	00058793          	mv	a5,a1
80000de8:	800096b7          	lui	a3,0x80009
80000dec:	c586a603          	lw	a2,-936(a3) # 80008c58 <_srodata+0xc58>
80000df0:	c5c6a683          	lw	a3,-932(a3)
80000df4:	00070513          	mv	a0,a4
80000df8:	00078593          	mv	a1,a5
80000dfc:	4e1040ef          	jal	80005adc <__muldf3>
80000e00:	00050713          	mv	a4,a0
80000e04:	00058793          	mv	a5,a1
80000e08:	00070513          	mv	a0,a4
80000e0c:	00078593          	mv	a1,a5
80000e10:	800097b7          	lui	a5,0x80009
80000e14:	c607a603          	lw	a2,-928(a5) # 80008c60 <_srodata+0xc60>
80000e18:	c647a683          	lw	a3,-924(a5)
80000e1c:	3d8040ef          	jal	800051f4 <__divdf3>
80000e20:	00050713          	mv	a4,a0
80000e24:	00058793          	mv	a5,a1
80000e28:	00070513          	mv	a0,a4
80000e2c:	00078593          	mv	a1,a5
80000e30:	68d060ef          	jal	80007cbc <__truncdfsf2>
80000e34:	00050793          	mv	a5,a0
80000e38:	fef42023          	sw	a5,-32(s0)
80000e3c:	b21ff0ef          	jal	8000095c <get_host_clock>
80000e40:	fca42e23          	sw	a0,-36(s0)
80000e44:	fdc42703          	lw	a4,-36(s0)
80000e48:	fe442783          	lw	a5,-28(s0)
80000e4c:	40f707b3          	sub	a5,a4,a5
80000e50:	00078513          	mv	a0,a5
80000e54:	411060ef          	jal	80007a64 <__floatunsisf>
80000e58:	00050713          	mv	a4,a0
80000e5c:	800097b7          	lui	a5,0x80009
80000e60:	c4c7a583          	lw	a1,-948(a5) # 80008c4c <_srodata+0xc4c>
80000e64:	00070513          	mv	a0,a4
80000e68:	31d050ef          	jal	80006984 <__divsf3>
80000e6c:	00050793          	mv	a5,a0
80000e70:	fcf42c23          	sw	a5,-40(s0)
80000e74:	fe042503          	lw	a0,-32(s0)
80000e78:	53d060ef          	jal	80007bb4 <__extendsfdf2>
80000e7c:	00050713          	mv	a4,a0
80000e80:	00058793          	mv	a5,a1
80000e84:	00070613          	mv	a2,a4
80000e88:	00078693          	mv	a3,a5
80000e8c:	800087b7          	lui	a5,0x80008
80000e90:	5b878513          	addi	a0,a5,1464 # 800085b8 <_srodata+0x5b8>
80000e94:	319030ef          	jal	800049ac <printf>
80000e98:	fd842503          	lw	a0,-40(s0)
80000e9c:	519060ef          	jal	80007bb4 <__extendsfdf2>
80000ea0:	00050713          	mv	a4,a0
80000ea4:	00058793          	mv	a5,a1
80000ea8:	00070613          	mv	a2,a4
80000eac:	00078693          	mv	a3,a5
80000eb0:	800087b7          	lui	a5,0x80008
80000eb4:	53478513          	addi	a0,a5,1332 # 80008534 <_srodata+0x534>
80000eb8:	2f5030ef          	jal	800049ac <printf>
80000ebc:	00000013          	nop
80000ec0:	02c12083          	lw	ra,44(sp)
80000ec4:	02812403          	lw	s0,40(sp)
80000ec8:	02412483          	lw	s1,36(sp)
80000ecc:	03010113          	addi	sp,sp,48
80000ed0:	00008067          	ret

80000ed4 <main>:
80000ed4:	fa010113          	addi	sp,sp,-96
80000ed8:	04112e23          	sw	ra,92(sp)
80000edc:	04812c23          	sw	s0,88(sp)
80000ee0:	06010413          	addi	s0,sp,96
80000ee4:	faa42623          	sw	a0,-84(s0)
80000ee8:	fab42423          	sw	a1,-88(s0)
80000eec:	444030ef          	jal	80004330 <meminit>
80000ef0:	fe042423          	sw	zero,-24(s0)
80000ef4:	8000f7b7          	lui	a5,0x8000f
80000ef8:	00478793          	addi	a5,a5,4 # 8000f004 <memlist>
80000efc:	0007a783          	lw	a5,0(a5)
80000f00:	fef42623          	sw	a5,-20(s0)
80000f04:	0240006f          	j	80000f28 <main+0x54>
80000f08:	fec42783          	lw	a5,-20(s0)
80000f0c:	0047a783          	lw	a5,4(a5)
80000f10:	fe842703          	lw	a4,-24(s0)
80000f14:	00f707b3          	add	a5,a4,a5
80000f18:	fef42423          	sw	a5,-24(s0)
80000f1c:	fec42783          	lw	a5,-20(s0)
80000f20:	0007a783          	lw	a5,0(a5)
80000f24:	fef42623          	sw	a5,-20(s0)
80000f28:	fec42783          	lw	a5,-20(s0)
80000f2c:	fc079ee3          	bnez	a5,80000f08 <main+0x34>
80000f30:	800087b7          	lui	a5,0x80008
80000f34:	5cc78613          	addi	a2,a5,1484 # 800085cc <_srodata+0x5cc>
80000f38:	800087b7          	lui	a5,0x80008
80000f3c:	5d878593          	addi	a1,a5,1496 # 800085d8 <_srodata+0x5d8>
80000f40:	800087b7          	lui	a5,0x80008
80000f44:	5e478513          	addi	a0,a5,1508 # 800085e4 <_srodata+0x5e4>
80000f48:	265030ef          	jal	800049ac <printf>
80000f4c:	fe842583          	lw	a1,-24(s0)
80000f50:	800087b7          	lui	a5,0x80008
80000f54:	5f878513          	addi	a0,a5,1528 # 800085f8 <_srodata+0x5f8>
80000f58:	255030ef          	jal	800049ac <printf>
80000f5c:	8000f7b7          	lui	a5,0x8000f
80000f60:	00478793          	addi	a5,a5,4 # 8000f004 <memlist>
80000f64:	0007a783          	lw	a5,0(a5)
80000f68:	fef42623          	sw	a5,-20(s0)
80000f6c:	03c0006f          	j	80000fa8 <main+0xd4>
80000f70:	fec42683          	lw	a3,-20(s0)
80000f74:	fec42783          	lw	a5,-20(s0)
80000f78:	0047a703          	lw	a4,4(a5)
80000f7c:	fec42783          	lw	a5,-20(s0)
80000f80:	00f707b3          	add	a5,a4,a5
80000f84:	fff78793          	addi	a5,a5,-1
80000f88:	00078613          	mv	a2,a5
80000f8c:	00068593          	mv	a1,a3
80000f90:	800087b7          	lui	a5,0x80008
80000f94:	62078513          	addi	a0,a5,1568 # 80008620 <_srodata+0x620>
80000f98:	215030ef          	jal	800049ac <printf>
80000f9c:	fec42783          	lw	a5,-20(s0)
80000fa0:	0007a783          	lw	a5,0(a5)
80000fa4:	fef42623          	sw	a5,-20(s0)
80000fa8:	fec42783          	lw	a5,-20(s0)
80000fac:	fc0792e3          	bnez	a5,80000f70 <main+0x9c>
80000fb0:	800087b7          	lui	a5,0x80008
80000fb4:	fdc78713          	addi	a4,a5,-36 # 80007fdc <_etext>
80000fb8:	800007b7          	lui	a5,0x80000
80000fbc:	00078793          	mv	a5,a5
80000fc0:	40f707b3          	sub	a5,a4,a5
80000fc4:	00078593          	mv	a1,a5
80000fc8:	800087b7          	lui	a5,0x80008
80000fcc:	64078513          	addi	a0,a5,1600 # 80008640 <_srodata+0x640>
80000fd0:	1dd030ef          	jal	800049ac <printf>
80000fd4:	800007b7          	lui	a5,0x80000
80000fd8:	00078713          	mv	a4,a5
80000fdc:	800087b7          	lui	a5,0x80008
80000fe0:	fdc78793          	addi	a5,a5,-36 # 80007fdc <_etext>
80000fe4:	fff78793          	addi	a5,a5,-1
80000fe8:	00078613          	mv	a2,a5
80000fec:	00070593          	mv	a1,a4
80000ff0:	800087b7          	lui	a5,0x80008
80000ff4:	62078513          	addi	a0,a5,1568 # 80008620 <_srodata+0x620>
80000ff8:	1b5030ef          	jal	800049ac <printf>
80000ffc:	8000b7b7          	lui	a5,0x8000b
80001000:	22078713          	addi	a4,a5,544 # 8000b220 <_ebss>
80001004:	8000b7b7          	lui	a5,0x8000b
80001008:	90078793          	addi	a5,a5,-1792 # 8000a900 <_sdata>
8000100c:	40f707b3          	sub	a5,a4,a5
80001010:	00078593          	mv	a1,a5
80001014:	800087b7          	lui	a5,0x80008
80001018:	65c78513          	addi	a0,a5,1628 # 8000865c <_srodata+0x65c>
8000101c:	191030ef          	jal	800049ac <printf>
80001020:	8000b7b7          	lui	a5,0x8000b
80001024:	90078713          	addi	a4,a5,-1792 # 8000a900 <_sdata>
80001028:	8000b7b7          	lui	a5,0x8000b
8000102c:	22078793          	addi	a5,a5,544 # 8000b220 <_ebss>
80001030:	fff78793          	addi	a5,a5,-1
80001034:	00078613          	mv	a2,a5
80001038:	00070593          	mv	a1,a4
8000103c:	800087b7          	lui	a5,0x80008
80001040:	67478513          	addi	a0,a5,1652 # 80008674 <_srodata+0x674>
80001044:	169030ef          	jal	800049ac <printf>
80001048:	061030ef          	jal	800048a8 <heap_free>
8000104c:	fca42823          	sw	a0,-48(s0)
80001050:	800087b7          	lui	a5,0x80008
80001054:	69478513          	addi	a0,a5,1684 # 80008694 <_srodata+0x694>
80001058:	155030ef          	jal	800049ac <printf>
8000105c:	fd042583          	lw	a1,-48(s0)
80001060:	800087b7          	lui	a5,0x80008
80001064:	6b878513          	addi	a0,a5,1720 # 800086b8 <_srodata+0x6b8>
80001068:	145030ef          	jal	800049ac <printf>
8000106c:	8000f7b7          	lui	a5,0x8000f
80001070:	00c7a783          	lw	a5,12(a5) # 8000f00c <minheap>
80001074:	00078593          	mv	a1,a5
80001078:	800087b7          	lui	a5,0x80008
8000107c:	6d878513          	addi	a0,a5,1752 # 800086d8 <_srodata+0x6d8>
80001080:	12d030ef          	jal	800049ac <printf>
80001084:	8000f7b7          	lui	a5,0x8000f
80001088:	0107a783          	lw	a5,16(a5) # 8000f010 <maxheap>
8000108c:	00078593          	mv	a1,a5
80001090:	800087b7          	lui	a5,0x80008
80001094:	6ec78513          	addi	a0,a5,1772 # 800086ec <_srodata+0x6ec>
80001098:	115030ef          	jal	800049ac <printf>
8000109c:	800087b7          	lui	a5,0x80008
800010a0:	0a478513          	addi	a0,a5,164 # 800080a4 <_srodata+0xa4>
800010a4:	109030ef          	jal	800049ac <printf>
800010a8:	800087b7          	lui	a5,0x80008
800010ac:	70078513          	addi	a0,a5,1792 # 80008700 <_srodata+0x700>
800010b0:	0fd030ef          	jal	800049ac <printf>
800010b4:	04000513          	li	a0,64
800010b8:	08c030ef          	jal	80004144 <malloc>
800010bc:	fca42623          	sw	a0,-52(s0)
800010c0:	fcc42783          	lw	a5,-52(s0)
800010c4:	00079a63          	bnez	a5,800010d8 <main+0x204>
800010c8:	800087b7          	lui	a5,0x80008
800010cc:	72078513          	addi	a0,a5,1824 # 80008720 <_srodata+0x720>
800010d0:	0dd030ef          	jal	800049ac <printf>
800010d4:	0480006f          	j	8000111c <main+0x248>
800010d8:	800087b7          	lui	a5,0x80008
800010dc:	73c78513          	addi	a0,a5,1852 # 8000873c <_srodata+0x73c>
800010e0:	0cd030ef          	jal	800049ac <printf>
800010e4:	fcc42783          	lw	a5,-52(s0)
800010e8:	00078593          	mv	a1,a5
800010ec:	800087b7          	lui	a5,0x80008
800010f0:	75478513          	addi	a0,a5,1876 # 80008754 <_srodata+0x754>
800010f4:	0b9030ef          	jal	800049ac <printf>
800010f8:	fcc42783          	lw	a5,-52(s0)
800010fc:	deadc737          	lui	a4,0xdeadc
80001100:	eef70713          	addi	a4,a4,-273 # deadbeef <maxheap+0x5eaccedf>
80001104:	00e7a023          	sw	a4,0(a5)
80001108:	fcc42783          	lw	a5,-52(s0)
8000110c:	00078593          	mv	a1,a5
80001110:	800087b7          	lui	a5,0x80008
80001114:	77878513          	addi	a0,a5,1912 # 80008778 <_srodata+0x778>
80001118:	095030ef          	jal	800049ac <printf>
8000111c:	78c030ef          	jal	800048a8 <heap_free>
80001120:	fca42423          	sw	a0,-56(s0)
80001124:	fd042703          	lw	a4,-48(s0)
80001128:	fc842783          	lw	a5,-56(s0)
8000112c:	40f707b3          	sub	a5,a4,a5
80001130:	00078613          	mv	a2,a5
80001134:	fc842583          	lw	a1,-56(s0)
80001138:	800087b7          	lui	a5,0x80008
8000113c:	79478513          	addi	a0,a5,1940 # 80008794 <_srodata+0x794>
80001140:	06d030ef          	jal	800049ac <printf>
80001144:	800087b7          	lui	a5,0x80008
80001148:	0a478513          	addi	a0,a5,164 # 800080a4 <_srodata+0xa4>
8000114c:	061030ef          	jal	800049ac <printf>
80001150:	800087b7          	lui	a5,0x80008
80001154:	7d078513          	addi	a0,a5,2000 # 800087d0 <_srodata+0x7d0>
80001158:	055030ef          	jal	800049ac <printf>
8000115c:	7d000513          	li	a0,2000
80001160:	7e5020ef          	jal	80004144 <malloc>
80001164:	fca42223          	sw	a0,-60(s0)
80001168:	fc442783          	lw	a5,-60(s0)
8000116c:	00079a63          	bnez	a5,80001180 <main+0x2ac>
80001170:	800087b7          	lui	a5,0x80008
80001174:	7f078513          	addi	a0,a5,2032 # 800087f0 <_srodata+0x7f0>
80001178:	035030ef          	jal	800049ac <printf>
8000117c:	08c0006f          	j	80001208 <main+0x334>
80001180:	fc442783          	lw	a5,-60(s0)
80001184:	00078593          	mv	a1,a5
80001188:	800097b7          	lui	a5,0x80009
8000118c:	81078513          	addi	a0,a5,-2032 # 80008810 <_srodata+0x810>
80001190:	01d030ef          	jal	800049ac <printf>
80001194:	fe042223          	sw	zero,-28(s0)
80001198:	0400006f          	j	800011d8 <main+0x304>
8000119c:	fe442783          	lw	a5,-28(s0)
800011a0:	01a00593          	li	a1,26
800011a4:	00078513          	mv	a0,a5
800011a8:	57d060ef          	jal	80007f24 <__modsi3>
800011ac:	00050793          	mv	a5,a0
800011b0:	0ff7f713          	zext.b	a4,a5
800011b4:	fe442783          	lw	a5,-28(s0)
800011b8:	fc442683          	lw	a3,-60(s0)
800011bc:	00f687b3          	add	a5,a3,a5
800011c0:	04170713          	addi	a4,a4,65
800011c4:	0ff77713          	zext.b	a4,a4
800011c8:	00e78023          	sb	a4,0(a5)
800011cc:	fe442783          	lw	a5,-28(s0)
800011d0:	00178793          	addi	a5,a5,1
800011d4:	fef42223          	sw	a5,-28(s0)
800011d8:	fe442703          	lw	a4,-28(s0)
800011dc:	00f00793          	li	a5,15
800011e0:	fae7dee3          	bge	a5,a4,8000119c <main+0x2c8>
800011e4:	fc442783          	lw	a5,-60(s0)
800011e8:	00f78793          	addi	a5,a5,15
800011ec:	00078023          	sb	zero,0(a5)
800011f0:	fc442783          	lw	a5,-60(s0)
800011f4:	00078613          	mv	a2,a5
800011f8:	fc442583          	lw	a1,-60(s0)
800011fc:	800097b7          	lui	a5,0x80009
80001200:	83478513          	addi	a0,a5,-1996 # 80008834 <_srodata+0x834>
80001204:	7a8030ef          	jal	800049ac <printf>
80001208:	6a0030ef          	jal	800048a8 <heap_free>
8000120c:	fca42423          	sw	a0,-56(s0)
80001210:	fd042703          	lw	a4,-48(s0)
80001214:	fc842783          	lw	a5,-56(s0)
80001218:	40f707b3          	sub	a5,a4,a5
8000121c:	00078613          	mv	a2,a5
80001220:	fc842583          	lw	a1,-56(s0)
80001224:	800097b7          	lui	a5,0x80009
80001228:	84c78513          	addi	a0,a5,-1972 # 8000884c <_srodata+0x84c>
8000122c:	780030ef          	jal	800049ac <printf>
80001230:	800087b7          	lui	a5,0x80008
80001234:	0a478513          	addi	a0,a5,164 # 800080a4 <_srodata+0xa4>
80001238:	774030ef          	jal	800049ac <printf>
8000123c:	800097b7          	lui	a5,0x80009
80001240:	88878513          	addi	a0,a5,-1912 # 80008888 <_srodata+0x888>
80001244:	768030ef          	jal	800049ac <printf>
80001248:	660030ef          	jal	800048a8 <heap_free>
8000124c:	fca42023          	sw	a0,-64(s0)
80001250:	fc042583          	lw	a1,-64(s0)
80001254:	800097b7          	lui	a5,0x80009
80001258:	8b078513          	addi	a0,a5,-1872 # 800088b0 <_srodata+0x8b0>
8000125c:	750030ef          	jal	800049ac <printf>
80001260:	fc042503          	lw	a0,-64(s0)
80001264:	6e1020ef          	jal	80004144 <malloc>
80001268:	faa42e23          	sw	a0,-68(s0)
8000126c:	fbc42783          	lw	a5,-68(s0)
80001270:	00079c63          	bnez	a5,80001288 <main+0x3b4>
80001274:	fc042583          	lw	a1,-64(s0)
80001278:	800097b7          	lui	a5,0x80009
8000127c:	8d478513          	addi	a0,a5,-1836 # 800088d4 <_srodata+0x8d4>
80001280:	72c030ef          	jal	800049ac <printf>
80001284:	01c0006f          	j	800012a0 <main+0x3cc>
80001288:	fc042583          	lw	a1,-64(s0)
8000128c:	800097b7          	lui	a5,0x80009
80001290:	91478513          	addi	a0,a5,-1772 # 80008914 <_srodata+0x914>
80001294:	718030ef          	jal	800049ac <printf>
80001298:	fbc42503          	lw	a0,-68(s0)
8000129c:	72d020ef          	jal	800041c8 <free>
800012a0:	800087b7          	lui	a5,0x80008
800012a4:	0a478513          	addi	a0,a5,164 # 800080a4 <_srodata+0xa4>
800012a8:	704030ef          	jal	800049ac <printf>
800012ac:	800097b7          	lui	a5,0x80009
800012b0:	95078513          	addi	a0,a5,-1712 # 80008950 <_srodata+0x950>
800012b4:	6f8030ef          	jal	800049ac <printf>
800012b8:	fcc42783          	lw	a5,-52(s0)
800012bc:	00078c63          	beqz	a5,800012d4 <main+0x400>
800012c0:	fcc42503          	lw	a0,-52(s0)
800012c4:	705020ef          	jal	800041c8 <free>
800012c8:	800097b7          	lui	a5,0x80009
800012cc:	97078513          	addi	a0,a5,-1680 # 80008970 <_srodata+0x970>
800012d0:	6dc030ef          	jal	800049ac <printf>
800012d4:	5d4030ef          	jal	800048a8 <heap_free>
800012d8:	fca42423          	sw	a0,-56(s0)
800012dc:	fc842703          	lw	a4,-56(s0)
800012e0:	fd042783          	lw	a5,-48(s0)
800012e4:	40f70733          	sub	a4,a4,a5
800012e8:	000017b7          	lui	a5,0x1
800012ec:	81078793          	addi	a5,a5,-2032 # 810 <_start-0x7ffff7f0>
800012f0:	00f707b3          	add	a5,a4,a5
800012f4:	00078613          	mv	a2,a5
800012f8:	fc842583          	lw	a1,-56(s0)
800012fc:	800097b7          	lui	a5,0x80009
80001300:	98478513          	addi	a0,a5,-1660 # 80008984 <_srodata+0x984>
80001304:	6a8030ef          	jal	800049ac <printf>
80001308:	800087b7          	lui	a5,0x80008
8000130c:	0a478513          	addi	a0,a5,164 # 800080a4 <_srodata+0xa4>
80001310:	69c030ef          	jal	800049ac <printf>
80001314:	800097b7          	lui	a5,0x80009
80001318:	9c078513          	addi	a0,a5,-1600 # 800089c0 <_srodata+0x9c0>
8000131c:	690030ef          	jal	800049ac <printf>
80001320:	fc442783          	lw	a5,-60(s0)
80001324:	00078c63          	beqz	a5,8000133c <main+0x468>
80001328:	fc442503          	lw	a0,-60(s0)
8000132c:	69d020ef          	jal	800041c8 <free>
80001330:	800097b7          	lui	a5,0x80009
80001334:	9e078513          	addi	a0,a5,-1568 # 800089e0 <_srodata+0x9e0>
80001338:	674030ef          	jal	800049ac <printf>
8000133c:	56c030ef          	jal	800048a8 <heap_free>
80001340:	fca42423          	sw	a0,-56(s0)
80001344:	fc842703          	lw	a4,-56(s0)
80001348:	fd042783          	lw	a5,-48(s0)
8000134c:	00f71863          	bne	a4,a5,8000135c <main+0x488>
80001350:	800097b7          	lui	a5,0x80009
80001354:	9f478793          	addi	a5,a5,-1548 # 800089f4 <_srodata+0x9f4>
80001358:	00c0006f          	j	80001364 <main+0x490>
8000135c:	800097b7          	lui	a5,0x80009
80001360:	9f878793          	addi	a5,a5,-1544 # 800089f8 <_srodata+0x9f8>
80001364:	00078613          	mv	a2,a5
80001368:	fc842583          	lw	a1,-56(s0)
8000136c:	800097b7          	lui	a5,0x80009
80001370:	a1078513          	addi	a0,a5,-1520 # 80008a10 <_srodata+0xa10>
80001374:	638030ef          	jal	800049ac <printf>
80001378:	800087b7          	lui	a5,0x80008
8000137c:	0a478513          	addi	a0,a5,164 # 800080a4 <_srodata+0xa4>
80001380:	62c030ef          	jal	800049ac <printf>
80001384:	800097b7          	lui	a5,0x80009
80001388:	a5078513          	addi	a0,a5,-1456 # 80008a50 <_srodata+0xa50>
8000138c:	620030ef          	jal	800049ac <printf>
80001390:	00000513          	li	a0,0
80001394:	635020ef          	jal	800041c8 <free>
80001398:	800097b7          	lui	a5,0x80009
8000139c:	a7078513          	addi	a0,a5,-1424 # 80008a70 <_srodata+0xa70>
800013a0:	60c030ef          	jal	800049ac <printf>
800013a4:	800087b7          	lui	a5,0x80008
800013a8:	0a478513          	addi	a0,a5,164 # 800080a4 <_srodata+0xa4>
800013ac:	600030ef          	jal	800049ac <printf>
800013b0:	800097b7          	lui	a5,0x80009
800013b4:	a9478513          	addi	a0,a5,-1388 # 80008a94 <_srodata+0xa94>
800013b8:	5f4030ef          	jal	800049ac <printf>
800013bc:	4ec030ef          	jal	800048a8 <heap_free>
800013c0:	00050793          	mv	a5,a0
800013c4:	00078593          	mv	a1,a5
800013c8:	800097b7          	lui	a5,0x80009
800013cc:	ab078513          	addi	a0,a5,-1360 # 80008ab0 <_srodata+0xab0>
800013d0:	5dc030ef          	jal	800049ac <printf>
800013d4:	fd042583          	lw	a1,-48(s0)
800013d8:	800097b7          	lui	a5,0x80009
800013dc:	ad078513          	addi	a0,a5,-1328 # 80008ad0 <_srodata+0xad0>
800013e0:	5cc030ef          	jal	800049ac <printf>
800013e4:	800097b7          	lui	a5,0x80009
800013e8:	af078513          	addi	a0,a5,-1296 # 80008af0 <_srodata+0xaf0>
800013ec:	5c0030ef          	jal	800049ac <printf>
800013f0:	800097b7          	lui	a5,0x80009
800013f4:	af078513          	addi	a0,a5,-1296 # 80008af0 <_srodata+0xaf0>
800013f8:	5b4030ef          	jal	800049ac <printf>
800013fc:	00a00693          	li	a3,10
80001400:	01400613          	li	a2,20
80001404:	8000b7b7          	lui	a5,0x8000b
80001408:	20078593          	addi	a1,a5,512 # 8000b200 <buf>
8000140c:	1ca00513          	li	a0,458
80001410:	07d020ef          	jal	80003c8c <uitoa>
80001414:	8000b7b7          	lui	a5,0x8000b
80001418:	20078593          	addi	a1,a5,512 # 8000b200 <buf>
8000141c:	800097b7          	lui	a5,0x80009
80001420:	af878513          	addi	a0,a5,-1288 # 80008af8 <_srodata+0xaf8>
80001424:	588030ef          	jal	800049ac <printf>
80001428:	8000b7b7          	lui	a5,0x8000b
8000142c:	1c07a783          	lw	a5,448(a5) # 8000b1c0 <count>
80001430:	00078613          	mv	a2,a5
80001434:	800097b7          	lui	a5,0x80009
80001438:	afc78593          	addi	a1,a5,-1284 # 80008afc <_srodata+0xafc>
8000143c:	8000b7b7          	lui	a5,0x8000b
80001440:	20078513          	addi	a0,a5,512 # 8000b200 <buf>
80001444:	5dc030ef          	jal	80004a20 <sprintf>
80001448:	8000b7b7          	lui	a5,0x8000b
8000144c:	20078593          	addi	a1,a5,512 # 8000b200 <buf>
80001450:	800097b7          	lui	a5,0x80009
80001454:	af878513          	addi	a0,a5,-1288 # 80008af8 <_srodata+0xaf8>
80001458:	554030ef          	jal	800049ac <printf>
8000145c:	800097b7          	lui	a5,0x80009
80001460:	b0878593          	addi	a1,a5,-1272 # 80008b08 <_srodata+0xb08>
80001464:	8000b7b7          	lui	a5,0x8000b
80001468:	20078513          	addi	a0,a5,512 # 8000b200 <buf>
8000146c:	751010ef          	jal	800033bc <strcpy>
80001470:	04100513          	li	a0,65
80001474:	49c030ef          	jal	80004910 <kputc>
80001478:	00a00513          	li	a0,10
8000147c:	494030ef          	jal	80004910 <kputc>
80001480:	800097b7          	lui	a5,0x80009
80001484:	b1878513          	addi	a0,a5,-1256 # 80008b18 <_srodata+0xb18>
80001488:	524030ef          	jal	800049ac <printf>
8000148c:	fe042023          	sw	zero,-32(s0)
80001490:	0200006f          	j	800014b0 <main+0x5dc>
80001494:	fe042583          	lw	a1,-32(s0)
80001498:	800097b7          	lui	a5,0x80009
8000149c:	b2c78513          	addi	a0,a5,-1236 # 80008b2c <_srodata+0xb2c>
800014a0:	50c030ef          	jal	800049ac <printf>
800014a4:	fe042783          	lw	a5,-32(s0)
800014a8:	00178793          	addi	a5,a5,1
800014ac:	fef42023          	sw	a5,-32(s0)
800014b0:	fe042703          	lw	a4,-32(s0)
800014b4:	00900793          	li	a5,9
800014b8:	fce7dee3          	bge	a5,a4,80001494 <main+0x5c0>
800014bc:	800087b7          	lui	a5,0x80008
800014c0:	0a478513          	addi	a0,a5,164 # 800080a4 <_srodata+0xa4>
800014c4:	4e8030ef          	jal	800049ac <printf>
800014c8:	800097b7          	lui	a5,0x80009
800014cc:	b3078513          	addi	a0,a5,-1232 # 80008b30 <_srodata+0xb30>
800014d0:	4dc030ef          	jal	800049ac <printf>
800014d4:	800097b7          	lui	a5,0x80009
800014d8:	b4478513          	addi	a0,a5,-1212 # 80008b44 <_srodata+0xb44>
800014dc:	4d0030ef          	jal	800049ac <printf>
800014e0:	4d200593          	li	a1,1234
800014e4:	800097b7          	lui	a5,0x80009
800014e8:	b5478513          	addi	a0,a5,-1196 # 80008b54 <_srodata+0xb54>
800014ec:	4c0030ef          	jal	800049ac <printf>
800014f0:	02c00593          	li	a1,44
800014f4:	800097b7          	lui	a5,0x80009
800014f8:	b6078513          	addi	a0,a5,-1184 # 80008b60 <_srodata+0xb60>
800014fc:	4b0030ef          	jal	800049ac <printf>
80001500:	8000b7b7          	lui	a5,0x8000b
80001504:	20078593          	addi	a1,a5,512 # 8000b200 <buf>
80001508:	800097b7          	lui	a5,0x80009
8000150c:	af878513          	addi	a0,a5,-1288 # 80008af8 <_srodata+0xaf8>
80001510:	49c030ef          	jal	800049ac <printf>
80001514:	04800513          	li	a0,72
80001518:	3f8030ef          	jal	80004910 <kputc>
8000151c:	06500513          	li	a0,101
80001520:	3f0030ef          	jal	80004910 <kputc>
80001524:	06c00513          	li	a0,108
80001528:	3e8030ef          	jal	80004910 <kputc>
8000152c:	06c00513          	li	a0,108
80001530:	3e0030ef          	jal	80004910 <kputc>
80001534:	06f00513          	li	a0,111
80001538:	3d8030ef          	jal	80004910 <kputc>
8000153c:	02100513          	li	a0,33
80001540:	3d0030ef          	jal	80004910 <kputc>
80001544:	00a00513          	li	a0,10
80001548:	3c8030ef          	jal	80004910 <kputc>
8000154c:	00800793          	li	a5,8
80001550:	faf42c23          	sw	a5,-72(s0)
80001554:	fb842583          	lw	a1,-72(s0)
80001558:	800097b7          	lui	a5,0x80009
8000155c:	b6c78513          	addi	a0,a5,-1172 # 80008b6c <_srodata+0xb6c>
80001560:	44c030ef          	jal	800049ac <printf>
80001564:	00100793          	li	a5,1
80001568:	fcf42e23          	sw	a5,-36(s0)
8000156c:	0840006f          	j	800015f0 <main+0x71c>
80001570:	fc042c23          	sw	zero,-40(s0)
80001574:	01c0006f          	j	80001590 <main+0x6bc>
80001578:	800097b7          	lui	a5,0x80009
8000157c:	b9478513          	addi	a0,a5,-1132 # 80008b94 <_srodata+0xb94>
80001580:	42c030ef          	jal	800049ac <printf>
80001584:	fd842783          	lw	a5,-40(s0)
80001588:	00178793          	addi	a5,a5,1
8000158c:	fcf42c23          	sw	a5,-40(s0)
80001590:	fb842703          	lw	a4,-72(s0)
80001594:	fdc42783          	lw	a5,-36(s0)
80001598:	40f707b3          	sub	a5,a4,a5
8000159c:	fd842703          	lw	a4,-40(s0)
800015a0:	fcf74ce3          	blt	a4,a5,80001578 <main+0x6a4>
800015a4:	fc042a23          	sw	zero,-44(s0)
800015a8:	01c0006f          	j	800015c4 <main+0x6f0>
800015ac:	800097b7          	lui	a5,0x80009
800015b0:	b9878513          	addi	a0,a5,-1128 # 80008b98 <_srodata+0xb98>
800015b4:	3f8030ef          	jal	800049ac <printf>
800015b8:	fd442783          	lw	a5,-44(s0)
800015bc:	00178793          	addi	a5,a5,1
800015c0:	fcf42a23          	sw	a5,-44(s0)
800015c4:	fdc42783          	lw	a5,-36(s0)
800015c8:	00179793          	slli	a5,a5,0x1
800015cc:	fff78793          	addi	a5,a5,-1
800015d0:	fd442703          	lw	a4,-44(s0)
800015d4:	fcf74ce3          	blt	a4,a5,800015ac <main+0x6d8>
800015d8:	800087b7          	lui	a5,0x80008
800015dc:	0a478513          	addi	a0,a5,164 # 800080a4 <_srodata+0xa4>
800015e0:	3cc030ef          	jal	800049ac <printf>
800015e4:	fdc42783          	lw	a5,-36(s0)
800015e8:	00178793          	addi	a5,a5,1
800015ec:	fcf42e23          	sw	a5,-36(s0)
800015f0:	fdc42703          	lw	a4,-36(s0)
800015f4:	fb842783          	lw	a5,-72(s0)
800015f8:	f6e7dce3          	bge	a5,a4,80001570 <main+0x69c>
800015fc:	800097b7          	lui	a5,0x80009
80001600:	b9c78513          	addi	a0,a5,-1124 # 80008b9c <_srodata+0xb9c>
80001604:	3a8030ef          	jal	800049ac <printf>
80001608:	800097b7          	lui	a5,0x80009
8000160c:	bb478513          	addi	a0,a5,-1100 # 80008bb4 <_srodata+0xbb4>
80001610:	39c030ef          	jal	800049ac <printf>
80001614:	800097b7          	lui	a5,0x80009
80001618:	be078513          	addi	a0,a5,-1056 # 80008be0 <_srodata+0xbe0>
8000161c:	390030ef          	jal	800049ac <printf>
80001620:	800097b7          	lui	a5,0x80009
80001624:	bf478513          	addi	a0,a5,-1036 # 80008bf4 <_srodata+0xbf4>
80001628:	384030ef          	jal	800049ac <printf>
8000162c:	b1dfe0ef          	jal	80000148 <test_basic_operations>
80001630:	c05fe0ef          	jal	80000234 <test_shift_operations>
80001634:	ca9fe0ef          	jal	800002dc <test_comparison_operations>
80001638:	e25fe0ef          	jal	8000045c <test_memory_operations>
8000163c:	fa5fe0ef          	jal	800005e0 <test_control_flow>
80001640:	980ff0ef          	jal	800007c0 <test_function_calls>
80001644:	9e0ff0ef          	jal	80000824 <test_immediate_operations>
80001648:	a60ff0ef          	jal	800008a8 <test_pointer_operations>
8000164c:	800097b7          	lui	a5,0x80009
80001650:	bb478513          	addi	a0,a5,-1100 # 80008bb4 <_srodata+0xbb4>
80001654:	358030ef          	jal	800049ac <printf>
80001658:	800097b7          	lui	a5,0x80009
8000165c:	c2078513          	addi	a0,a5,-992 # 80008c20 <_srodata+0xc20>
80001660:	34c030ef          	jal	800049ac <printf>
80001664:	800097b7          	lui	a5,0x80009
80001668:	bb478513          	addi	a0,a5,-1100 # 80008bb4 <_srodata+0xbb4>
8000166c:	340030ef          	jal	800049ac <printf>
80001670:	800097b7          	lui	a5,0x80009
80001674:	c687a783          	lw	a5,-920(a5) # 80008c68 <_srodata+0xc68>
80001678:	faf42a23          	sw	a5,-76(s0)
8000167c:	fb442503          	lw	a0,-76(s0)
80001680:	534060ef          	jal	80007bb4 <__extendsfdf2>
80001684:	00050713          	mv	a4,a0
80001688:	00058793          	mv	a5,a1
8000168c:	00070613          	mv	a2,a4
80001690:	00078693          	mv	a3,a5
80001694:	800097b7          	lui	a5,0x80009
80001698:	c4478513          	addi	a0,a5,-956 # 80008c44 <_srodata+0xc44>
8000169c:	310030ef          	jal	800049ac <printf>
800016a0:	afcff0ef          	jal	8000099c <prime_calculation>
800016a4:	c24ff0ef          	jal	80000ac8 <taylor_series>
800016a8:	e2cff0ef          	jal	80000cd4 <monte_carlo_pi>
800016ac:	00000793          	li	a5,0
800016b0:	00078513          	mv	a0,a5
800016b4:	05c12083          	lw	ra,92(sp)
800016b8:	05812403          	lw	s0,88(sp)
800016bc:	06010113          	addi	sp,sp,96
800016c0:	00008067          	ret

800016c4 <_fdoprnt>:
800016c4:	f6010113          	addi	sp,sp,-160
800016c8:	08112e23          	sw	ra,156(sp)
800016cc:	08812c23          	sw	s0,152(sp)
800016d0:	0a010413          	addi	s0,sp,160
800016d4:	f6a42623          	sw	a0,-148(s0)
800016d8:	f6b42423          	sw	a1,-152(s0)
800016dc:	f6c42223          	sw	a2,-156(s0)
800016e0:	f6d42023          	sw	a3,-160(s0)
800016e4:	01c0006f          	j	80001700 <_fdoprnt+0x3c>
800016e8:	fc842783          	lw	a5,-56(s0)
800016ec:	5e078a63          	beqz	a5,80001ce0 <_fdoprnt+0x61c>
800016f0:	f6442783          	lw	a5,-156(s0)
800016f4:	fc842583          	lw	a1,-56(s0)
800016f8:	f6042503          	lw	a0,-160(s0)
800016fc:	000780e7          	jalr	a5
80001700:	f6c42783          	lw	a5,-148(s0)
80001704:	00178713          	addi	a4,a5,1
80001708:	f6e42623          	sw	a4,-148(s0)
8000170c:	0007c783          	lbu	a5,0(a5)
80001710:	fcf42423          	sw	a5,-56(s0)
80001714:	fc842703          	lw	a4,-56(s0)
80001718:	02500793          	li	a5,37
8000171c:	fcf716e3          	bne	a4,a5,800016e8 <_fdoprnt+0x24>
80001720:	f6c42783          	lw	a5,-148(s0)
80001724:	0007c703          	lbu	a4,0(a5)
80001728:	02500793          	li	a5,37
8000172c:	02f71663          	bne	a4,a5,80001758 <_fdoprnt+0x94>
80001730:	f6c42783          	lw	a5,-148(s0)
80001734:	00178713          	addi	a4,a5,1
80001738:	f6e42623          	sw	a4,-148(s0)
8000173c:	0007c783          	lbu	a5,0(a5)
80001740:	00078713          	mv	a4,a5
80001744:	f6442783          	lw	a5,-156(s0)
80001748:	00070593          	mv	a1,a4
8000174c:	f6042503          	lw	a0,-160(s0)
80001750:	000780e7          	jalr	a5
80001754:	5880006f          	j	80001cdc <_fdoprnt+0x618>
80001758:	f6c42783          	lw	a5,-148(s0)
8000175c:	0007c783          	lbu	a5,0(a5)
80001760:	fd378793          	addi	a5,a5,-45
80001764:	0017b793          	seqz	a5,a5
80001768:	0ff7f793          	zext.b	a5,a5
8000176c:	fcf42223          	sw	a5,-60(s0)
80001770:	fc442783          	lw	a5,-60(s0)
80001774:	00078863          	beqz	a5,80001784 <_fdoprnt+0xc0>
80001778:	f6c42783          	lw	a5,-148(s0)
8000177c:	00178793          	addi	a5,a5,1
80001780:	f6f42623          	sw	a5,-148(s0)
80001784:	f6c42783          	lw	a5,-148(s0)
80001788:	0007c703          	lbu	a4,0(a5)
8000178c:	03000793          	li	a5,48
80001790:	00f71c63          	bne	a4,a5,800017a8 <_fdoprnt+0xe4>
80001794:	f6c42783          	lw	a5,-148(s0)
80001798:	00178713          	addi	a4,a5,1
8000179c:	f6e42623          	sw	a4,-148(s0)
800017a0:	0007c783          	lbu	a5,0(a5)
800017a4:	0080006f          	j	800017ac <_fdoprnt+0xe8>
800017a8:	02000793          	li	a5,32
800017ac:	fef401a3          	sb	a5,-29(s0)
800017b0:	fc042c23          	sw	zero,-40(s0)
800017b4:	f6c42783          	lw	a5,-148(s0)
800017b8:	0007c703          	lbu	a4,0(a5)
800017bc:	02a00793          	li	a5,42
800017c0:	04f71e63          	bne	a4,a5,8000181c <_fdoprnt+0x158>
800017c4:	f6842783          	lw	a5,-152(s0)
800017c8:	00478713          	addi	a4,a5,4
800017cc:	f6e42423          	sw	a4,-152(s0)
800017d0:	0007a783          	lw	a5,0(a5)
800017d4:	fcf42c23          	sw	a5,-40(s0)
800017d8:	f6c42783          	lw	a5,-148(s0)
800017dc:	00178793          	addi	a5,a5,1
800017e0:	f6f42623          	sw	a5,-148(s0)
800017e4:	0580006f          	j	8000183c <_fdoprnt+0x178>
800017e8:	fd842703          	lw	a4,-40(s0)
800017ec:	00070793          	mv	a5,a4
800017f0:	00279793          	slli	a5,a5,0x2
800017f4:	00e787b3          	add	a5,a5,a4
800017f8:	00179793          	slli	a5,a5,0x1
800017fc:	00078693          	mv	a3,a5
80001800:	f6c42783          	lw	a5,-148(s0)
80001804:	00178713          	addi	a4,a5,1
80001808:	f6e42623          	sw	a4,-148(s0)
8000180c:	0007c783          	lbu	a5,0(a5)
80001810:	00f687b3          	add	a5,a3,a5
80001814:	fd078793          	addi	a5,a5,-48
80001818:	fcf42c23          	sw	a5,-40(s0)
8000181c:	f6c42783          	lw	a5,-148(s0)
80001820:	0007c703          	lbu	a4,0(a5)
80001824:	02f00793          	li	a5,47
80001828:	00e7fa63          	bgeu	a5,a4,8000183c <_fdoprnt+0x178>
8000182c:	f6c42783          	lw	a5,-148(s0)
80001830:	0007c703          	lbu	a4,0(a5)
80001834:	03900793          	li	a5,57
80001838:	fae7f8e3          	bgeu	a5,a4,800017e8 <_fdoprnt+0x124>
8000183c:	fc042e23          	sw	zero,-36(s0)
80001840:	f6c42783          	lw	a5,-148(s0)
80001844:	0007c703          	lbu	a4,0(a5)
80001848:	02e00793          	li	a5,46
8000184c:	08f71c63          	bne	a4,a5,800018e4 <_fdoprnt+0x220>
80001850:	f6c42783          	lw	a5,-148(s0)
80001854:	00178793          	addi	a5,a5,1
80001858:	f6f42623          	sw	a5,-148(s0)
8000185c:	f6c42783          	lw	a5,-148(s0)
80001860:	0007c703          	lbu	a4,0(a5)
80001864:	02a00793          	li	a5,42
80001868:	04f71e63          	bne	a4,a5,800018c4 <_fdoprnt+0x200>
8000186c:	f6842783          	lw	a5,-152(s0)
80001870:	00478713          	addi	a4,a5,4
80001874:	f6e42423          	sw	a4,-152(s0)
80001878:	0007a783          	lw	a5,0(a5)
8000187c:	fcf42e23          	sw	a5,-36(s0)
80001880:	f6c42783          	lw	a5,-148(s0)
80001884:	00178793          	addi	a5,a5,1
80001888:	f6f42623          	sw	a5,-148(s0)
8000188c:	0580006f          	j	800018e4 <_fdoprnt+0x220>
80001890:	fdc42703          	lw	a4,-36(s0)
80001894:	00070793          	mv	a5,a4
80001898:	00279793          	slli	a5,a5,0x2
8000189c:	00e787b3          	add	a5,a5,a4
800018a0:	00179793          	slli	a5,a5,0x1
800018a4:	00078693          	mv	a3,a5
800018a8:	f6c42783          	lw	a5,-148(s0)
800018ac:	00178713          	addi	a4,a5,1
800018b0:	f6e42623          	sw	a4,-148(s0)
800018b4:	0007c783          	lbu	a5,0(a5)
800018b8:	00f687b3          	add	a5,a3,a5
800018bc:	fd078793          	addi	a5,a5,-48
800018c0:	fcf42e23          	sw	a5,-36(s0)
800018c4:	f6c42783          	lw	a5,-148(s0)
800018c8:	0007c703          	lbu	a4,0(a5)
800018cc:	02f00793          	li	a5,47
800018d0:	00e7fa63          	bgeu	a5,a4,800018e4 <_fdoprnt+0x220>
800018d4:	f6c42783          	lw	a5,-148(s0)
800018d8:	0007c703          	lbu	a4,0(a5)
800018dc:	03900793          	li	a5,57
800018e0:	fae7f8e3          	bgeu	a5,a4,80001890 <_fdoprnt+0x1cc>
800018e4:	f7040793          	addi	a5,s0,-144
800018e8:	fef42423          	sw	a5,-24(s0)
800018ec:	f6c42783          	lw	a5,-148(s0)
800018f0:	00178713          	addi	a4,a5,1
800018f4:	f6e42623          	sw	a4,-148(s0)
800018f8:	0007c783          	lbu	a5,0(a5)
800018fc:	fcf42023          	sw	a5,-64(s0)
80001900:	fc042783          	lw	a5,-64(s0)
80001904:	00079c63          	bnez	a5,8000191c <_fdoprnt+0x258>
80001908:	f6442783          	lw	a5,-156(s0)
8000190c:	02500593          	li	a1,37
80001910:	f6042503          	lw	a0,-160(s0)
80001914:	000780e7          	jalr	a5
80001918:	3cc0006f          	j	80001ce4 <_fdoprnt+0x620>
8000191c:	fc0409a3          	sb	zero,-45(s0)
80001920:	fc042783          	lw	a5,-64(s0)
80001924:	fa878793          	addi	a5,a5,-88
80001928:	02000713          	li	a4,32
8000192c:	1cf76863          	bltu	a4,a5,80001afc <_fdoprnt+0x438>
80001930:	00279713          	slli	a4,a5,0x2
80001934:	800097b7          	lui	a5,0x80009
80001938:	c7478793          	addi	a5,a5,-908 # 80008c74 <_srodata+0xc74>
8000193c:	00f707b3          	add	a5,a4,a5
80001940:	0007a783          	lw	a5,0(a5)
80001944:	00078067          	jr	a5
80001948:	f6842783          	lw	a5,-152(s0)
8000194c:	00478713          	addi	a4,a5,4
80001950:	f6e42423          	sw	a4,-152(s0)
80001954:	0007a783          	lw	a5,0(a5)
80001958:	0ff7f793          	zext.b	a5,a5
8000195c:	f6f40823          	sb	a5,-144(s0)
80001960:	f60408a3          	sb	zero,-143(s0)
80001964:	fc042e23          	sw	zero,-36(s0)
80001968:	02000793          	li	a5,32
8000196c:	fef401a3          	sb	a5,-29(s0)
80001970:	1a00006f          	j	80001b10 <_fdoprnt+0x44c>
80001974:	f6842783          	lw	a5,-152(s0)
80001978:	00478713          	addi	a4,a5,4
8000197c:	f6e42423          	sw	a4,-152(s0)
80001980:	0007a783          	lw	a5,0(a5)
80001984:	fef42423          	sw	a5,-24(s0)
80001988:	fe842783          	lw	a5,-24(s0)
8000198c:	00079863          	bnez	a5,8000199c <_fdoprnt+0x2d8>
80001990:	800097b7          	lui	a5,0x80009
80001994:	c6c78793          	addi	a5,a5,-916 # 80008c6c <_srodata+0xc6c>
80001998:	fef42423          	sw	a5,-24(s0)
8000199c:	02000793          	li	a5,32
800019a0:	fef401a3          	sb	a5,-29(s0)
800019a4:	16c0006f          	j	80001b10 <_fdoprnt+0x44c>
800019a8:	f6842783          	lw	a5,-152(s0)
800019ac:	00478713          	addi	a4,a5,4
800019b0:	f6e42423          	sw	a4,-152(s0)
800019b4:	0007a783          	lw	a5,0(a5)
800019b8:	fcf42623          	sw	a5,-52(s0)
800019bc:	fcc42783          	lw	a5,-52(s0)
800019c0:	0007dc63          	bgez	a5,800019d8 <_fdoprnt+0x314>
800019c4:	02d00793          	li	a5,45
800019c8:	fcf409a3          	sb	a5,-45(s0)
800019cc:	fcc42783          	lw	a5,-52(s0)
800019d0:	40f007b3          	neg	a5,a5
800019d4:	fcf42623          	sw	a5,-52(s0)
800019d8:	fe842583          	lw	a1,-24(s0)
800019dc:	fcc42503          	lw	a0,-52(s0)
800019e0:	239000ef          	jal	80002418 <_prtl10>
800019e4:	12c0006f          	j	80001b10 <_fdoprnt+0x44c>
800019e8:	fc040923          	sb	zero,-46(s0)
800019ec:	f6842783          	lw	a5,-152(s0)
800019f0:	00478713          	addi	a4,a5,4
800019f4:	f6e42423          	sw	a4,-152(s0)
800019f8:	0007a783          	lw	a5,0(a5)
800019fc:	fcf42623          	sw	a5,-52(s0)
80001a00:	0240006f          	j	80001a24 <_fdoprnt+0x360>
80001a04:	fcc42703          	lw	a4,-52(s0)
80001a08:	c46537b7          	lui	a5,0xc4653
80001a0c:	60078793          	addi	a5,a5,1536 # c4653600 <maxheap+0x446445f0>
80001a10:	00f707b3          	add	a5,a4,a5
80001a14:	fcf42623          	sw	a5,-52(s0)
80001a18:	fd244783          	lbu	a5,-46(s0)
80001a1c:	00178793          	addi	a5,a5,1
80001a20:	fcf40923          	sb	a5,-46(s0)
80001a24:	fcc42783          	lw	a5,-52(s0)
80001a28:	fc07cee3          	bltz	a5,80001a04 <_fdoprnt+0x340>
80001a2c:	fe842583          	lw	a1,-24(s0)
80001a30:	fcc42503          	lw	a0,-52(s0)
80001a34:	1e5000ef          	jal	80002418 <_prtl10>
80001a38:	fe842783          	lw	a5,-24(s0)
80001a3c:	0007c783          	lbu	a5,0(a5)
80001a40:	fd244703          	lbu	a4,-46(s0)
80001a44:	00e787b3          	add	a5,a5,a4
80001a48:	0ff7f713          	zext.b	a4,a5
80001a4c:	fe842783          	lw	a5,-24(s0)
80001a50:	00e78023          	sb	a4,0(a5)
80001a54:	fc042e23          	sw	zero,-36(s0)
80001a58:	0b80006f          	j	80001b10 <_fdoprnt+0x44c>
80001a5c:	f6842783          	lw	a5,-152(s0)
80001a60:	00478713          	addi	a4,a5,4
80001a64:	f6e42423          	sw	a4,-152(s0)
80001a68:	0007a783          	lw	a5,0(a5)
80001a6c:	fcf42623          	sw	a5,-52(s0)
80001a70:	fe842583          	lw	a1,-24(s0)
80001a74:	fcc42503          	lw	a0,-52(s0)
80001a78:	335000ef          	jal	800025ac <_prtl8>
80001a7c:	fc042e23          	sw	zero,-36(s0)
80001a80:	0900006f          	j	80001b10 <_fdoprnt+0x44c>
80001a84:	f6842783          	lw	a5,-152(s0)
80001a88:	00478713          	addi	a4,a5,4
80001a8c:	f6e42423          	sw	a4,-152(s0)
80001a90:	0007a783          	lw	a5,0(a5)
80001a94:	fcf42623          	sw	a5,-52(s0)
80001a98:	fe842583          	lw	a1,-24(s0)
80001a9c:	fcc42503          	lw	a0,-52(s0)
80001aa0:	525000ef          	jal	800027c4 <_prtX16>
80001aa4:	fc042e23          	sw	zero,-36(s0)
80001aa8:	0680006f          	j	80001b10 <_fdoprnt+0x44c>
80001aac:	f6842783          	lw	a5,-152(s0)
80001ab0:	00478713          	addi	a4,a5,4
80001ab4:	f6e42423          	sw	a4,-152(s0)
80001ab8:	0007a783          	lw	a5,0(a5)
80001abc:	fcf42623          	sw	a5,-52(s0)
80001ac0:	fe842583          	lw	a1,-24(s0)
80001ac4:	fcc42503          	lw	a0,-52(s0)
80001ac8:	3f9000ef          	jal	800026c0 <_prtl16>
80001acc:	fc042e23          	sw	zero,-36(s0)
80001ad0:	0400006f          	j	80001b10 <_fdoprnt+0x44c>
80001ad4:	f6842783          	lw	a5,-152(s0)
80001ad8:	00478713          	addi	a4,a5,4
80001adc:	f6e42423          	sw	a4,-152(s0)
80001ae0:	0007a783          	lw	a5,0(a5)
80001ae4:	fcf42623          	sw	a5,-52(s0)
80001ae8:	fe842583          	lw	a1,-24(s0)
80001aec:	fcc42503          	lw	a0,-52(s0)
80001af0:	5d9000ef          	jal	800028c8 <_prtl2>
80001af4:	fc042e23          	sw	zero,-36(s0)
80001af8:	0180006f          	j	80001b10 <_fdoprnt+0x44c>
80001afc:	f6442783          	lw	a5,-156(s0)
80001b00:	fc042583          	lw	a1,-64(s0)
80001b04:	f6042503          	lw	a0,-160(s0)
80001b08:	000780e7          	jalr	a5
80001b0c:	00000013          	nop
80001b10:	fe042223          	sw	zero,-28(s0)
80001b14:	0100006f          	j	80001b24 <_fdoprnt+0x460>
80001b18:	fe442783          	lw	a5,-28(s0)
80001b1c:	00178793          	addi	a5,a5,1
80001b20:	fef42223          	sw	a5,-28(s0)
80001b24:	fe442783          	lw	a5,-28(s0)
80001b28:	fe842703          	lw	a4,-24(s0)
80001b2c:	00f707b3          	add	a5,a4,a5
80001b30:	0007c783          	lbu	a5,0(a5)
80001b34:	fe0792e3          	bnez	a5,80001b18 <_fdoprnt+0x454>
80001b38:	fd842703          	lw	a4,-40(s0)
80001b3c:	05000793          	li	a5,80
80001b40:	00e7c663          	blt	a5,a4,80001b4c <_fdoprnt+0x488>
80001b44:	fd842783          	lw	a5,-40(s0)
80001b48:	0007d463          	bgez	a5,80001b50 <_fdoprnt+0x48c>
80001b4c:	fc042c23          	sw	zero,-40(s0)
80001b50:	fdc42703          	lw	a4,-36(s0)
80001b54:	05000793          	li	a5,80
80001b58:	00e7c663          	blt	a5,a4,80001b64 <_fdoprnt+0x4a0>
80001b5c:	fdc42783          	lw	a5,-36(s0)
80001b60:	0007d463          	bgez	a5,80001b68 <_fdoprnt+0x4a4>
80001b64:	fc042e23          	sw	zero,-36(s0)
80001b68:	fc042a23          	sw	zero,-44(s0)
80001b6c:	fdc42783          	lw	a5,-36(s0)
80001b70:	00079663          	bnez	a5,80001b7c <_fdoprnt+0x4b8>
80001b74:	fd842783          	lw	a5,-40(s0)
80001b78:	04078863          	beqz	a5,80001bc8 <_fdoprnt+0x504>
80001b7c:	fdc42783          	lw	a5,-36(s0)
80001b80:	00078c63          	beqz	a5,80001b98 <_fdoprnt+0x4d4>
80001b84:	fe442703          	lw	a4,-28(s0)
80001b88:	fdc42783          	lw	a5,-36(s0)
80001b8c:	00e7d663          	bge	a5,a4,80001b98 <_fdoprnt+0x4d4>
80001b90:	fdc42783          	lw	a5,-36(s0)
80001b94:	fef42223          	sw	a5,-28(s0)
80001b98:	fd842783          	lw	a5,-40(s0)
80001b9c:	00078a63          	beqz	a5,80001bb0 <_fdoprnt+0x4ec>
80001ba0:	fd842703          	lw	a4,-40(s0)
80001ba4:	fe442783          	lw	a5,-28(s0)
80001ba8:	40f707b3          	sub	a5,a4,a5
80001bac:	fcf42a23          	sw	a5,-44(s0)
80001bb0:	fd344703          	lbu	a4,-45(s0)
80001bb4:	02d00793          	li	a5,45
80001bb8:	00f71863          	bne	a4,a5,80001bc8 <_fdoprnt+0x504>
80001bbc:	fd442783          	lw	a5,-44(s0)
80001bc0:	fff78793          	addi	a5,a5,-1
80001bc4:	fcf42a23          	sw	a5,-44(s0)
80001bc8:	fd344703          	lbu	a4,-45(s0)
80001bcc:	02d00793          	li	a5,45
80001bd0:	02f71263          	bne	a4,a5,80001bf4 <_fdoprnt+0x530>
80001bd4:	fe344703          	lbu	a4,-29(s0)
80001bd8:	03000793          	li	a5,48
80001bdc:	00f71c63          	bne	a4,a5,80001bf4 <_fdoprnt+0x530>
80001be0:	fd344703          	lbu	a4,-45(s0)
80001be4:	f6442783          	lw	a5,-156(s0)
80001be8:	00070593          	mv	a1,a4
80001bec:	f6042503          	lw	a0,-160(s0)
80001bf0:	000780e7          	jalr	a5
80001bf4:	fc442783          	lw	a5,-60(s0)
80001bf8:	02079c63          	bnez	a5,80001c30 <_fdoprnt+0x56c>
80001bfc:	fe042623          	sw	zero,-20(s0)
80001c00:	0240006f          	j	80001c24 <_fdoprnt+0x560>
80001c04:	fe344703          	lbu	a4,-29(s0)
80001c08:	f6442783          	lw	a5,-156(s0)
80001c0c:	00070593          	mv	a1,a4
80001c10:	f6042503          	lw	a0,-160(s0)
80001c14:	000780e7          	jalr	a5
80001c18:	fec42783          	lw	a5,-20(s0)
80001c1c:	00178793          	addi	a5,a5,1
80001c20:	fef42623          	sw	a5,-20(s0)
80001c24:	fec42703          	lw	a4,-20(s0)
80001c28:	fd442783          	lw	a5,-44(s0)
80001c2c:	fcf74ce3          	blt	a4,a5,80001c04 <_fdoprnt+0x540>
80001c30:	fd344703          	lbu	a4,-45(s0)
80001c34:	02d00793          	li	a5,45
80001c38:	02f71263          	bne	a4,a5,80001c5c <_fdoprnt+0x598>
80001c3c:	fe344703          	lbu	a4,-29(s0)
80001c40:	02000793          	li	a5,32
80001c44:	00f71c63          	bne	a4,a5,80001c5c <_fdoprnt+0x598>
80001c48:	fd344703          	lbu	a4,-45(s0)
80001c4c:	f6442783          	lw	a5,-156(s0)
80001c50:	00070593          	mv	a1,a4
80001c54:	f6042503          	lw	a0,-160(s0)
80001c58:	000780e7          	jalr	a5
80001c5c:	fe042623          	sw	zero,-20(s0)
80001c60:	0340006f          	j	80001c94 <_fdoprnt+0x5d0>
80001c64:	fec42783          	lw	a5,-20(s0)
80001c68:	fe842703          	lw	a4,-24(s0)
80001c6c:	00f707b3          	add	a5,a4,a5
80001c70:	0007c783          	lbu	a5,0(a5)
80001c74:	00078713          	mv	a4,a5
80001c78:	f6442783          	lw	a5,-156(s0)
80001c7c:	00070593          	mv	a1,a4
80001c80:	f6042503          	lw	a0,-160(s0)
80001c84:	000780e7          	jalr	a5
80001c88:	fec42783          	lw	a5,-20(s0)
80001c8c:	00178793          	addi	a5,a5,1
80001c90:	fef42623          	sw	a5,-20(s0)
80001c94:	fec42703          	lw	a4,-20(s0)
80001c98:	fe442783          	lw	a5,-28(s0)
80001c9c:	fcf744e3          	blt	a4,a5,80001c64 <_fdoprnt+0x5a0>
80001ca0:	fc442783          	lw	a5,-60(s0)
80001ca4:	a4078ee3          	beqz	a5,80001700 <_fdoprnt+0x3c>
80001ca8:	fe042623          	sw	zero,-20(s0)
80001cac:	0240006f          	j	80001cd0 <_fdoprnt+0x60c>
80001cb0:	fe344703          	lbu	a4,-29(s0)
80001cb4:	f6442783          	lw	a5,-156(s0)
80001cb8:	00070593          	mv	a1,a4
80001cbc:	f6042503          	lw	a0,-160(s0)
80001cc0:	000780e7          	jalr	a5
80001cc4:	fec42783          	lw	a5,-20(s0)
80001cc8:	00178793          	addi	a5,a5,1
80001ccc:	fef42623          	sw	a5,-20(s0)
80001cd0:	fec42703          	lw	a4,-20(s0)
80001cd4:	fd442783          	lw	a5,-44(s0)
80001cd8:	fcf74ce3          	blt	a4,a5,80001cb0 <_fdoprnt+0x5ec>
80001cdc:	a25ff06f          	j	80001700 <_fdoprnt+0x3c>
80001ce0:	00000013          	nop
80001ce4:	09c12083          	lw	ra,156(sp)
80001ce8:	09812403          	lw	s0,152(sp)
80001cec:	0a010113          	addi	sp,sp,160
80001cf0:	00008067          	ret

80001cf4 <_doprnt>:
80001cf4:	f8010113          	addi	sp,sp,-128
80001cf8:	06112e23          	sw	ra,124(sp)
80001cfc:	06812c23          	sw	s0,120(sp)
80001d00:	08010413          	addi	s0,sp,128
80001d04:	f8a42623          	sw	a0,-116(s0)
80001d08:	f8b42423          	sw	a1,-120(s0)
80001d0c:	f8c42223          	sw	a2,-124(s0)
80001d10:	0180006f          	j	80001d28 <_doprnt+0x34>
80001d14:	fc842783          	lw	a5,-56(s0)
80001d18:	6e078663          	beqz	a5,80002404 <_doprnt+0x710>
80001d1c:	f8442783          	lw	a5,-124(s0)
80001d20:	fc842503          	lw	a0,-56(s0)
80001d24:	000780e7          	jalr	a5
80001d28:	f8c42783          	lw	a5,-116(s0)
80001d2c:	00178713          	addi	a4,a5,1
80001d30:	f8e42623          	sw	a4,-116(s0)
80001d34:	0007c783          	lbu	a5,0(a5)
80001d38:	fcf42423          	sw	a5,-56(s0)
80001d3c:	fc842703          	lw	a4,-56(s0)
80001d40:	02500793          	li	a5,37
80001d44:	fcf718e3          	bne	a4,a5,80001d14 <_doprnt+0x20>
80001d48:	f8c42783          	lw	a5,-116(s0)
80001d4c:	0007c703          	lbu	a4,0(a5)
80001d50:	02500793          	li	a5,37
80001d54:	02f71463          	bne	a4,a5,80001d7c <_doprnt+0x88>
80001d58:	f8c42783          	lw	a5,-116(s0)
80001d5c:	00178713          	addi	a4,a5,1
80001d60:	f8e42623          	sw	a4,-116(s0)
80001d64:	0007c783          	lbu	a5,0(a5)
80001d68:	00078713          	mv	a4,a5
80001d6c:	f8442783          	lw	a5,-124(s0)
80001d70:	00070513          	mv	a0,a4
80001d74:	000780e7          	jalr	a5
80001d78:	6880006f          	j	80002400 <_doprnt+0x70c>
80001d7c:	f8c42783          	lw	a5,-116(s0)
80001d80:	0007c783          	lbu	a5,0(a5)
80001d84:	fd378793          	addi	a5,a5,-45
80001d88:	0017b793          	seqz	a5,a5
80001d8c:	0ff7f793          	zext.b	a5,a5
80001d90:	fcf42223          	sw	a5,-60(s0)
80001d94:	fc442783          	lw	a5,-60(s0)
80001d98:	00078863          	beqz	a5,80001da8 <_doprnt+0xb4>
80001d9c:	f8c42783          	lw	a5,-116(s0)
80001da0:	00178793          	addi	a5,a5,1
80001da4:	f8f42623          	sw	a5,-116(s0)
80001da8:	f8c42783          	lw	a5,-116(s0)
80001dac:	0007c703          	lbu	a4,0(a5)
80001db0:	03000793          	li	a5,48
80001db4:	00f71c63          	bne	a4,a5,80001dcc <_doprnt+0xd8>
80001db8:	f8c42783          	lw	a5,-116(s0)
80001dbc:	00178713          	addi	a4,a5,1
80001dc0:	f8e42623          	sw	a4,-116(s0)
80001dc4:	0007c783          	lbu	a5,0(a5)
80001dc8:	0080006f          	j	80001dd0 <_doprnt+0xdc>
80001dcc:	02000793          	li	a5,32
80001dd0:	fef401a3          	sb	a5,-29(s0)
80001dd4:	fc042c23          	sw	zero,-40(s0)
80001dd8:	f8c42783          	lw	a5,-116(s0)
80001ddc:	0007c703          	lbu	a4,0(a5)
80001de0:	02a00793          	li	a5,42
80001de4:	04f71e63          	bne	a4,a5,80001e40 <_doprnt+0x14c>
80001de8:	f8842783          	lw	a5,-120(s0)
80001dec:	00478713          	addi	a4,a5,4
80001df0:	f8e42423          	sw	a4,-120(s0)
80001df4:	0007a783          	lw	a5,0(a5)
80001df8:	fcf42c23          	sw	a5,-40(s0)
80001dfc:	f8c42783          	lw	a5,-116(s0)
80001e00:	00178793          	addi	a5,a5,1
80001e04:	f8f42623          	sw	a5,-116(s0)
80001e08:	0580006f          	j	80001e60 <_doprnt+0x16c>
80001e0c:	fd842703          	lw	a4,-40(s0)
80001e10:	00070793          	mv	a5,a4
80001e14:	00279793          	slli	a5,a5,0x2
80001e18:	00e787b3          	add	a5,a5,a4
80001e1c:	00179793          	slli	a5,a5,0x1
80001e20:	00078693          	mv	a3,a5
80001e24:	f8c42783          	lw	a5,-116(s0)
80001e28:	00178713          	addi	a4,a5,1
80001e2c:	f8e42623          	sw	a4,-116(s0)
80001e30:	0007c783          	lbu	a5,0(a5)
80001e34:	00f687b3          	add	a5,a3,a5
80001e38:	fd078793          	addi	a5,a5,-48
80001e3c:	fcf42c23          	sw	a5,-40(s0)
80001e40:	f8c42783          	lw	a5,-116(s0)
80001e44:	0007c703          	lbu	a4,0(a5)
80001e48:	02f00793          	li	a5,47
80001e4c:	00e7fa63          	bgeu	a5,a4,80001e60 <_doprnt+0x16c>
80001e50:	f8c42783          	lw	a5,-116(s0)
80001e54:	0007c703          	lbu	a4,0(a5)
80001e58:	03900793          	li	a5,57
80001e5c:	fae7f8e3          	bgeu	a5,a4,80001e0c <_doprnt+0x118>
80001e60:	fc042e23          	sw	zero,-36(s0)
80001e64:	f8c42783          	lw	a5,-116(s0)
80001e68:	0007c703          	lbu	a4,0(a5)
80001e6c:	02e00793          	li	a5,46
80001e70:	08f71c63          	bne	a4,a5,80001f08 <_doprnt+0x214>
80001e74:	f8c42783          	lw	a5,-116(s0)
80001e78:	00178793          	addi	a5,a5,1
80001e7c:	f8f42623          	sw	a5,-116(s0)
80001e80:	f8c42783          	lw	a5,-116(s0)
80001e84:	0007c703          	lbu	a4,0(a5)
80001e88:	02a00793          	li	a5,42
80001e8c:	04f71e63          	bne	a4,a5,80001ee8 <_doprnt+0x1f4>
80001e90:	f8842783          	lw	a5,-120(s0)
80001e94:	00478713          	addi	a4,a5,4
80001e98:	f8e42423          	sw	a4,-120(s0)
80001e9c:	0007a783          	lw	a5,0(a5)
80001ea0:	fcf42e23          	sw	a5,-36(s0)
80001ea4:	f8c42783          	lw	a5,-116(s0)
80001ea8:	00178793          	addi	a5,a5,1
80001eac:	f8f42623          	sw	a5,-116(s0)
80001eb0:	0580006f          	j	80001f08 <_doprnt+0x214>
80001eb4:	fdc42703          	lw	a4,-36(s0)
80001eb8:	00070793          	mv	a5,a4
80001ebc:	00279793          	slli	a5,a5,0x2
80001ec0:	00e787b3          	add	a5,a5,a4
80001ec4:	00179793          	slli	a5,a5,0x1
80001ec8:	00078693          	mv	a3,a5
80001ecc:	f8c42783          	lw	a5,-116(s0)
80001ed0:	00178713          	addi	a4,a5,1
80001ed4:	f8e42623          	sw	a4,-116(s0)
80001ed8:	0007c783          	lbu	a5,0(a5)
80001edc:	00f687b3          	add	a5,a3,a5
80001ee0:	fd078793          	addi	a5,a5,-48
80001ee4:	fcf42e23          	sw	a5,-36(s0)
80001ee8:	f8c42783          	lw	a5,-116(s0)
80001eec:	0007c703          	lbu	a4,0(a5)
80001ef0:	02f00793          	li	a5,47
80001ef4:	00e7fa63          	bgeu	a5,a4,80001f08 <_doprnt+0x214>
80001ef8:	f8c42783          	lw	a5,-116(s0)
80001efc:	0007c703          	lbu	a4,0(a5)
80001f00:	03900793          	li	a5,57
80001f04:	fae7f8e3          	bgeu	a5,a4,80001eb4 <_doprnt+0x1c0>
80001f08:	f9440793          	addi	a5,s0,-108
80001f0c:	fef42423          	sw	a5,-24(s0)
80001f10:	f8c42783          	lw	a5,-116(s0)
80001f14:	00178713          	addi	a4,a5,1
80001f18:	f8e42623          	sw	a4,-116(s0)
80001f1c:	0007c783          	lbu	a5,0(a5)
80001f20:	fcf42023          	sw	a5,-64(s0)
80001f24:	fc042783          	lw	a5,-64(s0)
80001f28:	00079a63          	bnez	a5,80001f3c <_doprnt+0x248>
80001f2c:	f8442783          	lw	a5,-124(s0)
80001f30:	02500513          	li	a0,37
80001f34:	000780e7          	jalr	a5
80001f38:	4d00006f          	j	80002408 <_doprnt+0x714>
80001f3c:	fc0409a3          	sb	zero,-45(s0)
80001f40:	fc042783          	lw	a5,-64(s0)
80001f44:	fb878793          	addi	a5,a5,-72
80001f48:	03000713          	li	a4,48
80001f4c:	2ef76663          	bltu	a4,a5,80002238 <_doprnt+0x544>
80001f50:	00279713          	slli	a4,a5,0x2
80001f54:	800097b7          	lui	a5,0x80009
80001f58:	cf878793          	addi	a5,a5,-776 # 80008cf8 <_srodata+0xcf8>
80001f5c:	00f707b3          	add	a5,a4,a5
80001f60:	0007a783          	lw	a5,0(a5)
80001f64:	00078067          	jr	a5
80001f68:	f8842783          	lw	a5,-120(s0)
80001f6c:	00478713          	addi	a4,a5,4
80001f70:	f8e42423          	sw	a4,-120(s0)
80001f74:	0007a783          	lw	a5,0(a5)
80001f78:	0ff7f793          	zext.b	a5,a5
80001f7c:	f8f40a23          	sb	a5,-108(s0)
80001f80:	f8040aa3          	sb	zero,-107(s0)
80001f84:	fc042e23          	sw	zero,-36(s0)
80001f88:	02000793          	li	a5,32
80001f8c:	fef401a3          	sb	a5,-29(s0)
80001f90:	2b80006f          	j	80002248 <_doprnt+0x554>
80001f94:	f8842783          	lw	a5,-120(s0)
80001f98:	00478713          	addi	a4,a5,4
80001f9c:	f8e42423          	sw	a4,-120(s0)
80001fa0:	0007a783          	lw	a5,0(a5)
80001fa4:	fef42423          	sw	a5,-24(s0)
80001fa8:	fe842783          	lw	a5,-24(s0)
80001fac:	00079863          	bnez	a5,80001fbc <_doprnt+0x2c8>
80001fb0:	800097b7          	lui	a5,0x80009
80001fb4:	c6c78793          	addi	a5,a5,-916 # 80008c6c <_srodata+0xc6c>
80001fb8:	fef42423          	sw	a5,-24(s0)
80001fbc:	02000793          	li	a5,32
80001fc0:	fef401a3          	sb	a5,-29(s0)
80001fc4:	2840006f          	j	80002248 <_doprnt+0x554>
80001fc8:	f8842783          	lw	a5,-120(s0)
80001fcc:	00478713          	addi	a4,a5,4
80001fd0:	f8e42423          	sw	a4,-120(s0)
80001fd4:	0007a783          	lw	a5,0(a5)
80001fd8:	fcf42623          	sw	a5,-52(s0)
80001fdc:	fcc42783          	lw	a5,-52(s0)
80001fe0:	0007d663          	bgez	a5,80001fec <_doprnt+0x2f8>
80001fe4:	02d00793          	li	a5,45
80001fe8:	fcf409a3          	sb	a5,-45(s0)
80001fec:	fe842583          	lw	a1,-24(s0)
80001ff0:	fcc42503          	lw	a0,-52(s0)
80001ff4:	424000ef          	jal	80002418 <_prtl10>
80001ff8:	2500006f          	j	80002248 <_doprnt+0x554>
80001ffc:	f8842783          	lw	a5,-120(s0)
80002000:	00778793          	addi	a5,a5,7
80002004:	ff87f793          	andi	a5,a5,-8
80002008:	00878713          	addi	a4,a5,8
8000200c:	f8e42423          	sw	a4,-120(s0)
80002010:	0007a703          	lw	a4,0(a5)
80002014:	0047a783          	lw	a5,4(a5)
80002018:	00070513          	mv	a0,a4
8000201c:	00078593          	mv	a1,a5
80002020:	49d050ef          	jal	80007cbc <__truncdfsf2>
80002024:	00050793          	mv	a5,a0
80002028:	faf42e23          	sw	a5,-68(s0)
8000202c:	00000593          	li	a1,0
80002030:	fbc42503          	lw	a0,-68(s0)
80002034:	529040ef          	jal	80006d5c <__lesf2>
80002038:	00050793          	mv	a5,a0
8000203c:	0007d663          	bgez	a5,80002048 <_doprnt+0x354>
80002040:	02d00793          	li	a5,45
80002044:	fcf409a3          	sb	a5,-45(s0)
80002048:	00400693          	li	a3,4
8000204c:	fe842603          	lw	a2,-24(s0)
80002050:	00600593          	li	a1,6
80002054:	fbc42503          	lw	a0,-68(s0)
80002058:	589010ef          	jal	80003de0 <ftoa>
8000205c:	fbc42503          	lw	a0,-68(s0)
80002060:	355050ef          	jal	80007bb4 <__extendsfdf2>
80002064:	00050713          	mv	a4,a0
80002068:	00058793          	mv	a5,a1
8000206c:	fe842683          	lw	a3,-24(s0)
80002070:	00600613          	li	a2,6
80002074:	00070513          	mv	a0,a4
80002078:	00078593          	mv	a1,a5
8000207c:	151000ef          	jal	800029cc <_prtdbl>
80002080:	1c80006f          	j	80002248 <_doprnt+0x554>
80002084:	fc040923          	sb	zero,-46(s0)
80002088:	f8842783          	lw	a5,-120(s0)
8000208c:	00478713          	addi	a4,a5,4
80002090:	f8e42423          	sw	a4,-120(s0)
80002094:	0007a783          	lw	a5,0(a5)
80002098:	fcf42623          	sw	a5,-52(s0)
8000209c:	0240006f          	j	800020c0 <_doprnt+0x3cc>
800020a0:	fcc42703          	lw	a4,-52(s0)
800020a4:	c46537b7          	lui	a5,0xc4653
800020a8:	60078793          	addi	a5,a5,1536 # c4653600 <maxheap+0x446445f0>
800020ac:	00f707b3          	add	a5,a4,a5
800020b0:	fcf42623          	sw	a5,-52(s0)
800020b4:	fd244783          	lbu	a5,-46(s0)
800020b8:	00178793          	addi	a5,a5,1
800020bc:	fcf40923          	sb	a5,-46(s0)
800020c0:	fcc42783          	lw	a5,-52(s0)
800020c4:	fc07cee3          	bltz	a5,800020a0 <_doprnt+0x3ac>
800020c8:	fe842583          	lw	a1,-24(s0)
800020cc:	fcc42503          	lw	a0,-52(s0)
800020d0:	348000ef          	jal	80002418 <_prtl10>
800020d4:	fe842783          	lw	a5,-24(s0)
800020d8:	0007c783          	lbu	a5,0(a5)
800020dc:	fd244703          	lbu	a4,-46(s0)
800020e0:	00e787b3          	add	a5,a5,a4
800020e4:	0ff7f713          	zext.b	a4,a5
800020e8:	fe842783          	lw	a5,-24(s0)
800020ec:	00e78023          	sb	a4,0(a5)
800020f0:	fc042e23          	sw	zero,-36(s0)
800020f4:	1540006f          	j	80002248 <_doprnt+0x554>
800020f8:	f8842783          	lw	a5,-120(s0)
800020fc:	00478713          	addi	a4,a5,4
80002100:	f8e42423          	sw	a4,-120(s0)
80002104:	0007a783          	lw	a5,0(a5)
80002108:	fcf42623          	sw	a5,-52(s0)
8000210c:	fe842583          	lw	a1,-24(s0)
80002110:	fcc42503          	lw	a0,-52(s0)
80002114:	498000ef          	jal	800025ac <_prtl8>
80002118:	fc042e23          	sw	zero,-36(s0)
8000211c:	12c0006f          	j	80002248 <_doprnt+0x554>
80002120:	f8842783          	lw	a5,-120(s0)
80002124:	00478713          	addi	a4,a5,4
80002128:	f8e42423          	sw	a4,-120(s0)
8000212c:	0007a783          	lw	a5,0(a5)
80002130:	fcf42623          	sw	a5,-52(s0)
80002134:	fe842583          	lw	a1,-24(s0)
80002138:	fcc42503          	lw	a0,-52(s0)
8000213c:	688000ef          	jal	800027c4 <_prtX16>
80002140:	fc042e23          	sw	zero,-36(s0)
80002144:	1040006f          	j	80002248 <_doprnt+0x554>
80002148:	f8842783          	lw	a5,-120(s0)
8000214c:	00478713          	addi	a4,a5,4
80002150:	f8e42423          	sw	a4,-120(s0)
80002154:	0007a783          	lw	a5,0(a5)
80002158:	fcf42623          	sw	a5,-52(s0)
8000215c:	fe842583          	lw	a1,-24(s0)
80002160:	fcc42503          	lw	a0,-52(s0)
80002164:	55c000ef          	jal	800026c0 <_prtl16>
80002168:	fc042e23          	sw	zero,-36(s0)
8000216c:	0dc0006f          	j	80002248 <_doprnt+0x554>
80002170:	f8842783          	lw	a5,-120(s0)
80002174:	00478713          	addi	a4,a5,4
80002178:	f8e42423          	sw	a4,-120(s0)
8000217c:	0007a783          	lw	a5,0(a5)
80002180:	fcf42623          	sw	a5,-52(s0)
80002184:	fe842583          	lw	a1,-24(s0)
80002188:	fcc42503          	lw	a0,-52(s0)
8000218c:	638000ef          	jal	800027c4 <_prtX16>
80002190:	f8842783          	lw	a5,-120(s0)
80002194:	00478713          	addi	a4,a5,4
80002198:	f8e42423          	sw	a4,-120(s0)
8000219c:	0007a783          	lw	a5,0(a5)
800021a0:	fcf42623          	sw	a5,-52(s0)
800021a4:	fe842783          	lw	a5,-24(s0)
800021a8:	00878793          	addi	a5,a5,8
800021ac:	00078593          	mv	a1,a5
800021b0:	fcc42503          	lw	a0,-52(s0)
800021b4:	610000ef          	jal	800027c4 <_prtX16>
800021b8:	fc042e23          	sw	zero,-36(s0)
800021bc:	08c0006f          	j	80002248 <_doprnt+0x554>
800021c0:	f8842783          	lw	a5,-120(s0)
800021c4:	00478713          	addi	a4,a5,4
800021c8:	f8e42423          	sw	a4,-120(s0)
800021cc:	0007a783          	lw	a5,0(a5)
800021d0:	fcf42623          	sw	a5,-52(s0)
800021d4:	fe842583          	lw	a1,-24(s0)
800021d8:	fcc42503          	lw	a0,-52(s0)
800021dc:	4e4000ef          	jal	800026c0 <_prtl16>
800021e0:	f8842783          	lw	a5,-120(s0)
800021e4:	00478713          	addi	a4,a5,4
800021e8:	f8e42423          	sw	a4,-120(s0)
800021ec:	0007a783          	lw	a5,0(a5)
800021f0:	fcf42623          	sw	a5,-52(s0)
800021f4:	fe842783          	lw	a5,-24(s0)
800021f8:	00878793          	addi	a5,a5,8
800021fc:	00078593          	mv	a1,a5
80002200:	fcc42503          	lw	a0,-52(s0)
80002204:	4bc000ef          	jal	800026c0 <_prtl16>
80002208:	fc042e23          	sw	zero,-36(s0)
8000220c:	03c0006f          	j	80002248 <_doprnt+0x554>
80002210:	f8842783          	lw	a5,-120(s0)
80002214:	00478713          	addi	a4,a5,4
80002218:	f8e42423          	sw	a4,-120(s0)
8000221c:	0007a783          	lw	a5,0(a5)
80002220:	fcf42623          	sw	a5,-52(s0)
80002224:	fe842583          	lw	a1,-24(s0)
80002228:	fcc42503          	lw	a0,-52(s0)
8000222c:	69c000ef          	jal	800028c8 <_prtl2>
80002230:	fc042e23          	sw	zero,-36(s0)
80002234:	0140006f          	j	80002248 <_doprnt+0x554>
80002238:	f8442783          	lw	a5,-124(s0)
8000223c:	fc042503          	lw	a0,-64(s0)
80002240:	000780e7          	jalr	a5
80002244:	00000013          	nop
80002248:	fe042223          	sw	zero,-28(s0)
8000224c:	0100006f          	j	8000225c <_doprnt+0x568>
80002250:	fe442783          	lw	a5,-28(s0)
80002254:	00178793          	addi	a5,a5,1
80002258:	fef42223          	sw	a5,-28(s0)
8000225c:	fe442783          	lw	a5,-28(s0)
80002260:	fe842703          	lw	a4,-24(s0)
80002264:	00f707b3          	add	a5,a4,a5
80002268:	0007c783          	lbu	a5,0(a5)
8000226c:	fe0792e3          	bnez	a5,80002250 <_doprnt+0x55c>
80002270:	fd842703          	lw	a4,-40(s0)
80002274:	05000793          	li	a5,80
80002278:	00e7c663          	blt	a5,a4,80002284 <_doprnt+0x590>
8000227c:	fd842783          	lw	a5,-40(s0)
80002280:	0007d463          	bgez	a5,80002288 <_doprnt+0x594>
80002284:	fc042c23          	sw	zero,-40(s0)
80002288:	fdc42703          	lw	a4,-36(s0)
8000228c:	05000793          	li	a5,80
80002290:	00e7c663          	blt	a5,a4,8000229c <_doprnt+0x5a8>
80002294:	fdc42783          	lw	a5,-36(s0)
80002298:	0007d463          	bgez	a5,800022a0 <_doprnt+0x5ac>
8000229c:	fc042e23          	sw	zero,-36(s0)
800022a0:	fc042a23          	sw	zero,-44(s0)
800022a4:	fdc42783          	lw	a5,-36(s0)
800022a8:	00079663          	bnez	a5,800022b4 <_doprnt+0x5c0>
800022ac:	fd842783          	lw	a5,-40(s0)
800022b0:	04078863          	beqz	a5,80002300 <_doprnt+0x60c>
800022b4:	fdc42783          	lw	a5,-36(s0)
800022b8:	00078c63          	beqz	a5,800022d0 <_doprnt+0x5dc>
800022bc:	fe442703          	lw	a4,-28(s0)
800022c0:	fdc42783          	lw	a5,-36(s0)
800022c4:	00e7d663          	bge	a5,a4,800022d0 <_doprnt+0x5dc>
800022c8:	fdc42783          	lw	a5,-36(s0)
800022cc:	fef42223          	sw	a5,-28(s0)
800022d0:	fd842783          	lw	a5,-40(s0)
800022d4:	00078a63          	beqz	a5,800022e8 <_doprnt+0x5f4>
800022d8:	fd842703          	lw	a4,-40(s0)
800022dc:	fe442783          	lw	a5,-28(s0)
800022e0:	40f707b3          	sub	a5,a4,a5
800022e4:	fcf42a23          	sw	a5,-44(s0)
800022e8:	fd344703          	lbu	a4,-45(s0)
800022ec:	02d00793          	li	a5,45
800022f0:	00f71863          	bne	a4,a5,80002300 <_doprnt+0x60c>
800022f4:	fd442783          	lw	a5,-44(s0)
800022f8:	fff78793          	addi	a5,a5,-1
800022fc:	fcf42a23          	sw	a5,-44(s0)
80002300:	fd344703          	lbu	a4,-45(s0)
80002304:	02d00793          	li	a5,45
80002308:	02f71063          	bne	a4,a5,80002328 <_doprnt+0x634>
8000230c:	fe344703          	lbu	a4,-29(s0)
80002310:	03000793          	li	a5,48
80002314:	00f71a63          	bne	a4,a5,80002328 <_doprnt+0x634>
80002318:	fd344703          	lbu	a4,-45(s0)
8000231c:	f8442783          	lw	a5,-124(s0)
80002320:	00070513          	mv	a0,a4
80002324:	000780e7          	jalr	a5
80002328:	fc442783          	lw	a5,-60(s0)
8000232c:	02079a63          	bnez	a5,80002360 <_doprnt+0x66c>
80002330:	fe042623          	sw	zero,-20(s0)
80002334:	0200006f          	j	80002354 <_doprnt+0x660>
80002338:	fe344703          	lbu	a4,-29(s0)
8000233c:	f8442783          	lw	a5,-124(s0)
80002340:	00070513          	mv	a0,a4
80002344:	000780e7          	jalr	a5
80002348:	fec42783          	lw	a5,-20(s0)
8000234c:	00178793          	addi	a5,a5,1
80002350:	fef42623          	sw	a5,-20(s0)
80002354:	fec42703          	lw	a4,-20(s0)
80002358:	fd442783          	lw	a5,-44(s0)
8000235c:	fcf74ee3          	blt	a4,a5,80002338 <_doprnt+0x644>
80002360:	fd344703          	lbu	a4,-45(s0)
80002364:	02d00793          	li	a5,45
80002368:	02f71063          	bne	a4,a5,80002388 <_doprnt+0x694>
8000236c:	fe344703          	lbu	a4,-29(s0)
80002370:	02000793          	li	a5,32
80002374:	00f71a63          	bne	a4,a5,80002388 <_doprnt+0x694>
80002378:	fd344703          	lbu	a4,-45(s0)
8000237c:	f8442783          	lw	a5,-124(s0)
80002380:	00070513          	mv	a0,a4
80002384:	000780e7          	jalr	a5
80002388:	fe042623          	sw	zero,-20(s0)
8000238c:	0300006f          	j	800023bc <_doprnt+0x6c8>
80002390:	fec42783          	lw	a5,-20(s0)
80002394:	fe842703          	lw	a4,-24(s0)
80002398:	00f707b3          	add	a5,a4,a5
8000239c:	0007c783          	lbu	a5,0(a5)
800023a0:	00078713          	mv	a4,a5
800023a4:	f8442783          	lw	a5,-124(s0)
800023a8:	00070513          	mv	a0,a4
800023ac:	000780e7          	jalr	a5
800023b0:	fec42783          	lw	a5,-20(s0)
800023b4:	00178793          	addi	a5,a5,1
800023b8:	fef42623          	sw	a5,-20(s0)
800023bc:	fec42703          	lw	a4,-20(s0)
800023c0:	fe442783          	lw	a5,-28(s0)
800023c4:	fcf746e3          	blt	a4,a5,80002390 <_doprnt+0x69c>
800023c8:	fc442783          	lw	a5,-60(s0)
800023cc:	94078ee3          	beqz	a5,80001d28 <_doprnt+0x34>
800023d0:	fe042623          	sw	zero,-20(s0)
800023d4:	0200006f          	j	800023f4 <_doprnt+0x700>
800023d8:	fe344703          	lbu	a4,-29(s0)
800023dc:	f8442783          	lw	a5,-124(s0)
800023e0:	00070513          	mv	a0,a4
800023e4:	000780e7          	jalr	a5
800023e8:	fec42783          	lw	a5,-20(s0)
800023ec:	00178793          	addi	a5,a5,1
800023f0:	fef42623          	sw	a5,-20(s0)
800023f4:	fec42703          	lw	a4,-20(s0)
800023f8:	fd442783          	lw	a5,-44(s0)
800023fc:	fcf74ee3          	blt	a4,a5,800023d8 <_doprnt+0x6e4>
80002400:	929ff06f          	j	80001d28 <_doprnt+0x34>
80002404:	00000013          	nop
80002408:	07c12083          	lw	ra,124(sp)
8000240c:	07812403          	lw	s0,120(sp)
80002410:	08010113          	addi	sp,sp,128
80002414:	00008067          	ret

80002418 <_prtl10>:
80002418:	fc010113          	addi	sp,sp,-64
8000241c:	02112e23          	sw	ra,60(sp)
80002420:	02812c23          	sw	s0,56(sp)
80002424:	04010413          	addi	s0,sp,64
80002428:	fca42623          	sw	a0,-52(s0)
8000242c:	fcb42423          	sw	a1,-56(s0)
80002430:	fc040e23          	sb	zero,-36(s0)
80002434:	fcc42783          	lw	a5,-52(s0)
80002438:	0207d663          	bgez	a5,80002464 <_prtl10+0x4c>
8000243c:	fcc42783          	lw	a5,-52(s0)
80002440:	00a00593          	li	a1,10
80002444:	00078513          	mv	a0,a5
80002448:	2dd050ef          	jal	80007f24 <__modsi3>
8000244c:	00050793          	mv	a5,a0
80002450:	0ff7f793          	zext.b	a5,a5
80002454:	03000713          	li	a4,48
80002458:	40f707b3          	sub	a5,a4,a5
8000245c:	0ff7f793          	zext.b	a5,a5
80002460:	0240006f          	j	80002484 <_prtl10+0x6c>
80002464:	fcc42783          	lw	a5,-52(s0)
80002468:	00a00593          	li	a1,10
8000246c:	00078513          	mv	a0,a5
80002470:	2b5050ef          	jal	80007f24 <__modsi3>
80002474:	00050793          	mv	a5,a0
80002478:	0ff7f793          	zext.b	a5,a5
8000247c:	03078793          	addi	a5,a5,48
80002480:	0ff7f793          	zext.b	a5,a5
80002484:	fcf40ea3          	sb	a5,-35(s0)
80002488:	fcc42783          	lw	a5,-52(s0)
8000248c:	0007d663          	bgez	a5,80002498 <_prtl10+0x80>
80002490:	ff600793          	li	a5,-10
80002494:	0080006f          	j	8000249c <_prtl10+0x84>
80002498:	00a00793          	li	a5,10
8000249c:	00078593          	mv	a1,a5
800024a0:	fcc42503          	lw	a0,-52(s0)
800024a4:	1fd050ef          	jal	80007ea0 <__divsi3>
800024a8:	00050793          	mv	a5,a0
800024ac:	fcf42623          	sw	a5,-52(s0)
800024b0:	00200793          	li	a5,2
800024b4:	fef42623          	sw	a5,-20(s0)
800024b8:	0580006f          	j	80002510 <_prtl10+0xf8>
800024bc:	fcc42783          	lw	a5,-52(s0)
800024c0:	00a00593          	li	a1,10
800024c4:	00078513          	mv	a0,a5
800024c8:	25d050ef          	jal	80007f24 <__modsi3>
800024cc:	00050793          	mv	a5,a0
800024d0:	0ff7f793          	zext.b	a5,a5
800024d4:	03078793          	addi	a5,a5,48
800024d8:	0ff7f713          	zext.b	a4,a5
800024dc:	fec42783          	lw	a5,-20(s0)
800024e0:	ff078793          	addi	a5,a5,-16
800024e4:	008787b3          	add	a5,a5,s0
800024e8:	fee78623          	sb	a4,-20(a5)
800024ec:	fcc42783          	lw	a5,-52(s0)
800024f0:	00a00593          	li	a1,10
800024f4:	00078513          	mv	a0,a5
800024f8:	1a9050ef          	jal	80007ea0 <__divsi3>
800024fc:	00050793          	mv	a5,a0
80002500:	fcf42623          	sw	a5,-52(s0)
80002504:	fec42783          	lw	a5,-20(s0)
80002508:	00178793          	addi	a5,a5,1
8000250c:	fef42623          	sw	a5,-20(s0)
80002510:	fec42703          	lw	a4,-20(s0)
80002514:	00a00793          	li	a5,10
80002518:	fae7d2e3          	bge	a5,a4,800024bc <_prtl10+0xa4>
8000251c:	00a00793          	li	a5,10
80002520:	fef42623          	sw	a5,-20(s0)
80002524:	0100006f          	j	80002534 <_prtl10+0x11c>
80002528:	fec42783          	lw	a5,-20(s0)
8000252c:	fff78793          	addi	a5,a5,-1
80002530:	fef42623          	sw	a5,-20(s0)
80002534:	fec42783          	lw	a5,-20(s0)
80002538:	ff078793          	addi	a5,a5,-16
8000253c:	008787b3          	add	a5,a5,s0
80002540:	fec7c703          	lbu	a4,-20(a5)
80002544:	03000793          	li	a5,48
80002548:	fef700e3          	beq	a4,a5,80002528 <_prtl10+0x110>
8000254c:	fec42783          	lw	a5,-20(s0)
80002550:	02079e63          	bnez	a5,8000258c <_prtl10+0x174>
80002554:	fec42783          	lw	a5,-20(s0)
80002558:	00178793          	addi	a5,a5,1
8000255c:	fef42623          	sw	a5,-20(s0)
80002560:	02c0006f          	j	8000258c <_prtl10+0x174>
80002564:	fec42703          	lw	a4,-20(s0)
80002568:	fff70793          	addi	a5,a4,-1
8000256c:	fef42623          	sw	a5,-20(s0)
80002570:	fc842783          	lw	a5,-56(s0)
80002574:	00178693          	addi	a3,a5,1
80002578:	fcd42423          	sw	a3,-56(s0)
8000257c:	ff070713          	addi	a4,a4,-16
80002580:	00870733          	add	a4,a4,s0
80002584:	fec74703          	lbu	a4,-20(a4)
80002588:	00e78023          	sb	a4,0(a5)
8000258c:	fec42783          	lw	a5,-20(s0)
80002590:	fc07dae3          	bgez	a5,80002564 <_prtl10+0x14c>
80002594:	00000013          	nop
80002598:	00000013          	nop
8000259c:	03c12083          	lw	ra,60(sp)
800025a0:	03812403          	lw	s0,56(sp)
800025a4:	04010113          	addi	sp,sp,64
800025a8:	00008067          	ret

800025ac <_prtl8>:
800025ac:	fd010113          	addi	sp,sp,-48
800025b0:	02112623          	sw	ra,44(sp)
800025b4:	02812423          	sw	s0,40(sp)
800025b8:	03010413          	addi	s0,sp,48
800025bc:	fca42e23          	sw	a0,-36(s0)
800025c0:	fcb42c23          	sw	a1,-40(s0)
800025c4:	fe040023          	sb	zero,-32(s0)
800025c8:	00100793          	li	a5,1
800025cc:	fef42623          	sw	a5,-20(s0)
800025d0:	0440006f          	j	80002614 <_prtl8+0x68>
800025d4:	fdc42783          	lw	a5,-36(s0)
800025d8:	0ff7f793          	zext.b	a5,a5
800025dc:	0077f793          	andi	a5,a5,7
800025e0:	0ff7f793          	zext.b	a5,a5
800025e4:	03078793          	addi	a5,a5,48
800025e8:	0ff7f713          	zext.b	a4,a5
800025ec:	fec42783          	lw	a5,-20(s0)
800025f0:	ff078793          	addi	a5,a5,-16
800025f4:	008787b3          	add	a5,a5,s0
800025f8:	fee78823          	sb	a4,-16(a5)
800025fc:	fdc42783          	lw	a5,-36(s0)
80002600:	4037d793          	srai	a5,a5,0x3
80002604:	fcf42e23          	sw	a5,-36(s0)
80002608:	fec42783          	lw	a5,-20(s0)
8000260c:	00178793          	addi	a5,a5,1
80002610:	fef42623          	sw	a5,-20(s0)
80002614:	fec42703          	lw	a4,-20(s0)
80002618:	00b00793          	li	a5,11
8000261c:	fae7dce3          	bge	a5,a4,800025d4 <_prtl8+0x28>
80002620:	feb44783          	lbu	a5,-21(s0)
80002624:	0337f793          	andi	a5,a5,51
80002628:	0ff7f793          	zext.b	a5,a5
8000262c:	fef405a3          	sb	a5,-21(s0)
80002630:	00b00793          	li	a5,11
80002634:	fef42623          	sw	a5,-20(s0)
80002638:	0100006f          	j	80002648 <_prtl8+0x9c>
8000263c:	fec42783          	lw	a5,-20(s0)
80002640:	fff78793          	addi	a5,a5,-1
80002644:	fef42623          	sw	a5,-20(s0)
80002648:	fec42783          	lw	a5,-20(s0)
8000264c:	ff078793          	addi	a5,a5,-16
80002650:	008787b3          	add	a5,a5,s0
80002654:	ff07c703          	lbu	a4,-16(a5)
80002658:	03000793          	li	a5,48
8000265c:	fef700e3          	beq	a4,a5,8000263c <_prtl8+0x90>
80002660:	fec42783          	lw	a5,-20(s0)
80002664:	02079e63          	bnez	a5,800026a0 <_prtl8+0xf4>
80002668:	fec42783          	lw	a5,-20(s0)
8000266c:	00178793          	addi	a5,a5,1
80002670:	fef42623          	sw	a5,-20(s0)
80002674:	02c0006f          	j	800026a0 <_prtl8+0xf4>
80002678:	fec42703          	lw	a4,-20(s0)
8000267c:	fff70793          	addi	a5,a4,-1
80002680:	fef42623          	sw	a5,-20(s0)
80002684:	fd842783          	lw	a5,-40(s0)
80002688:	00178693          	addi	a3,a5,1
8000268c:	fcd42c23          	sw	a3,-40(s0)
80002690:	ff070713          	addi	a4,a4,-16
80002694:	00870733          	add	a4,a4,s0
80002698:	ff074703          	lbu	a4,-16(a4)
8000269c:	00e78023          	sb	a4,0(a5)
800026a0:	fec42783          	lw	a5,-20(s0)
800026a4:	fc07dae3          	bgez	a5,80002678 <_prtl8+0xcc>
800026a8:	00000013          	nop
800026ac:	00000013          	nop
800026b0:	02c12083          	lw	ra,44(sp)
800026b4:	02812403          	lw	s0,40(sp)
800026b8:	03010113          	addi	sp,sp,48
800026bc:	00008067          	ret

800026c0 <_prtl16>:
800026c0:	fd010113          	addi	sp,sp,-48
800026c4:	02112623          	sw	ra,44(sp)
800026c8:	02812423          	sw	s0,40(sp)
800026cc:	03010413          	addi	s0,sp,48
800026d0:	fca42e23          	sw	a0,-36(s0)
800026d4:	fcb42c23          	sw	a1,-40(s0)
800026d8:	fe040023          	sb	zero,-32(s0)
800026dc:	00100793          	li	a5,1
800026e0:	fef42623          	sw	a5,-20(s0)
800026e4:	0440006f          	j	80002728 <_prtl16+0x68>
800026e8:	fdc42783          	lw	a5,-36(s0)
800026ec:	00f7f793          	andi	a5,a5,15
800026f0:	80009737          	lui	a4,0x80009
800026f4:	dbc70713          	addi	a4,a4,-580 # 80008dbc <_srodata+0xdbc>
800026f8:	00f707b3          	add	a5,a4,a5
800026fc:	0007c703          	lbu	a4,0(a5)
80002700:	fec42783          	lw	a5,-20(s0)
80002704:	ff078793          	addi	a5,a5,-16
80002708:	008787b3          	add	a5,a5,s0
8000270c:	fee78823          	sb	a4,-16(a5)
80002710:	fdc42783          	lw	a5,-36(s0)
80002714:	4047d793          	srai	a5,a5,0x4
80002718:	fcf42e23          	sw	a5,-36(s0)
8000271c:	fec42783          	lw	a5,-20(s0)
80002720:	00178793          	addi	a5,a5,1
80002724:	fef42623          	sw	a5,-20(s0)
80002728:	fec42703          	lw	a4,-20(s0)
8000272c:	00800793          	li	a5,8
80002730:	fae7dce3          	bge	a5,a4,800026e8 <_prtl16+0x28>
80002734:	00800793          	li	a5,8
80002738:	fef42623          	sw	a5,-20(s0)
8000273c:	0100006f          	j	8000274c <_prtl16+0x8c>
80002740:	fec42783          	lw	a5,-20(s0)
80002744:	fff78793          	addi	a5,a5,-1
80002748:	fef42623          	sw	a5,-20(s0)
8000274c:	fec42783          	lw	a5,-20(s0)
80002750:	ff078793          	addi	a5,a5,-16
80002754:	008787b3          	add	a5,a5,s0
80002758:	ff07c703          	lbu	a4,-16(a5)
8000275c:	03000793          	li	a5,48
80002760:	fef700e3          	beq	a4,a5,80002740 <_prtl16+0x80>
80002764:	fec42783          	lw	a5,-20(s0)
80002768:	02079e63          	bnez	a5,800027a4 <_prtl16+0xe4>
8000276c:	fec42783          	lw	a5,-20(s0)
80002770:	00178793          	addi	a5,a5,1
80002774:	fef42623          	sw	a5,-20(s0)
80002778:	02c0006f          	j	800027a4 <_prtl16+0xe4>
8000277c:	fec42703          	lw	a4,-20(s0)
80002780:	fff70793          	addi	a5,a4,-1
80002784:	fef42623          	sw	a5,-20(s0)
80002788:	fd842783          	lw	a5,-40(s0)
8000278c:	00178693          	addi	a3,a5,1
80002790:	fcd42c23          	sw	a3,-40(s0)
80002794:	ff070713          	addi	a4,a4,-16
80002798:	00870733          	add	a4,a4,s0
8000279c:	ff074703          	lbu	a4,-16(a4)
800027a0:	00e78023          	sb	a4,0(a5)
800027a4:	fec42783          	lw	a5,-20(s0)
800027a8:	fc07dae3          	bgez	a5,8000277c <_prtl16+0xbc>
800027ac:	00000013          	nop
800027b0:	00000013          	nop
800027b4:	02c12083          	lw	ra,44(sp)
800027b8:	02812403          	lw	s0,40(sp)
800027bc:	03010113          	addi	sp,sp,48
800027c0:	00008067          	ret

800027c4 <_prtX16>:
800027c4:	fd010113          	addi	sp,sp,-48
800027c8:	02112623          	sw	ra,44(sp)
800027cc:	02812423          	sw	s0,40(sp)
800027d0:	03010413          	addi	s0,sp,48
800027d4:	fca42e23          	sw	a0,-36(s0)
800027d8:	fcb42c23          	sw	a1,-40(s0)
800027dc:	fe040023          	sb	zero,-32(s0)
800027e0:	00100793          	li	a5,1
800027e4:	fef42623          	sw	a5,-20(s0)
800027e8:	0440006f          	j	8000282c <_prtX16+0x68>
800027ec:	fdc42783          	lw	a5,-36(s0)
800027f0:	00f7f793          	andi	a5,a5,15
800027f4:	80009737          	lui	a4,0x80009
800027f8:	dd070713          	addi	a4,a4,-560 # 80008dd0 <_srodata+0xdd0>
800027fc:	00f707b3          	add	a5,a4,a5
80002800:	0007c703          	lbu	a4,0(a5)
80002804:	fec42783          	lw	a5,-20(s0)
80002808:	ff078793          	addi	a5,a5,-16
8000280c:	008787b3          	add	a5,a5,s0
80002810:	fee78823          	sb	a4,-16(a5)
80002814:	fdc42783          	lw	a5,-36(s0)
80002818:	4047d793          	srai	a5,a5,0x4
8000281c:	fcf42e23          	sw	a5,-36(s0)
80002820:	fec42783          	lw	a5,-20(s0)
80002824:	00178793          	addi	a5,a5,1
80002828:	fef42623          	sw	a5,-20(s0)
8000282c:	fec42703          	lw	a4,-20(s0)
80002830:	00800793          	li	a5,8
80002834:	fae7dce3          	bge	a5,a4,800027ec <_prtX16+0x28>
80002838:	00800793          	li	a5,8
8000283c:	fef42623          	sw	a5,-20(s0)
80002840:	0100006f          	j	80002850 <_prtX16+0x8c>
80002844:	fec42783          	lw	a5,-20(s0)
80002848:	fff78793          	addi	a5,a5,-1
8000284c:	fef42623          	sw	a5,-20(s0)
80002850:	fec42783          	lw	a5,-20(s0)
80002854:	ff078793          	addi	a5,a5,-16
80002858:	008787b3          	add	a5,a5,s0
8000285c:	ff07c703          	lbu	a4,-16(a5)
80002860:	03000793          	li	a5,48
80002864:	fef700e3          	beq	a4,a5,80002844 <_prtX16+0x80>
80002868:	fec42783          	lw	a5,-20(s0)
8000286c:	02079e63          	bnez	a5,800028a8 <_prtX16+0xe4>
80002870:	fec42783          	lw	a5,-20(s0)
80002874:	00178793          	addi	a5,a5,1
80002878:	fef42623          	sw	a5,-20(s0)
8000287c:	02c0006f          	j	800028a8 <_prtX16+0xe4>
80002880:	fec42703          	lw	a4,-20(s0)
80002884:	fff70793          	addi	a5,a4,-1
80002888:	fef42623          	sw	a5,-20(s0)
8000288c:	fd842783          	lw	a5,-40(s0)
80002890:	00178693          	addi	a3,a5,1
80002894:	fcd42c23          	sw	a3,-40(s0)
80002898:	ff070713          	addi	a4,a4,-16
8000289c:	00870733          	add	a4,a4,s0
800028a0:	ff074703          	lbu	a4,-16(a4)
800028a4:	00e78023          	sb	a4,0(a5)
800028a8:	fec42783          	lw	a5,-20(s0)
800028ac:	fc07dae3          	bgez	a5,80002880 <_prtX16+0xbc>
800028b0:	00000013          	nop
800028b4:	00000013          	nop
800028b8:	02c12083          	lw	ra,44(sp)
800028bc:	02812403          	lw	s0,40(sp)
800028c0:	03010113          	addi	sp,sp,48
800028c4:	00008067          	ret

800028c8 <_prtl2>:
800028c8:	fb010113          	addi	sp,sp,-80
800028cc:	04112623          	sw	ra,76(sp)
800028d0:	04812423          	sw	s0,72(sp)
800028d4:	05010413          	addi	s0,sp,80
800028d8:	faa42e23          	sw	a0,-68(s0)
800028dc:	fab42c23          	sw	a1,-72(s0)
800028e0:	fc040423          	sb	zero,-56(s0)
800028e4:	00100793          	li	a5,1
800028e8:	fef42623          	sw	a5,-20(s0)
800028ec:	0440006f          	j	80002930 <_prtl2+0x68>
800028f0:	fbc42783          	lw	a5,-68(s0)
800028f4:	0017f793          	andi	a5,a5,1
800028f8:	00079663          	bnez	a5,80002904 <_prtl2+0x3c>
800028fc:	03000793          	li	a5,48
80002900:	0080006f          	j	80002908 <_prtl2+0x40>
80002904:	03100793          	li	a5,49
80002908:	fec42703          	lw	a4,-20(s0)
8000290c:	ff070713          	addi	a4,a4,-16
80002910:	00870733          	add	a4,a4,s0
80002914:	fcf70c23          	sb	a5,-40(a4)
80002918:	fbc42783          	lw	a5,-68(s0)
8000291c:	4017d793          	srai	a5,a5,0x1
80002920:	faf42e23          	sw	a5,-68(s0)
80002924:	fec42783          	lw	a5,-20(s0)
80002928:	00178793          	addi	a5,a5,1
8000292c:	fef42623          	sw	a5,-20(s0)
80002930:	fec42703          	lw	a4,-20(s0)
80002934:	02000793          	li	a5,32
80002938:	fae7dce3          	bge	a5,a4,800028f0 <_prtl2+0x28>
8000293c:	02000793          	li	a5,32
80002940:	fef42623          	sw	a5,-20(s0)
80002944:	0100006f          	j	80002954 <_prtl2+0x8c>
80002948:	fec42783          	lw	a5,-20(s0)
8000294c:	fff78793          	addi	a5,a5,-1
80002950:	fef42623          	sw	a5,-20(s0)
80002954:	fec42783          	lw	a5,-20(s0)
80002958:	ff078793          	addi	a5,a5,-16
8000295c:	008787b3          	add	a5,a5,s0
80002960:	fd87c703          	lbu	a4,-40(a5)
80002964:	03000793          	li	a5,48
80002968:	fef700e3          	beq	a4,a5,80002948 <_prtl2+0x80>
8000296c:	fec42783          	lw	a5,-20(s0)
80002970:	02079e63          	bnez	a5,800029ac <_prtl2+0xe4>
80002974:	fec42783          	lw	a5,-20(s0)
80002978:	00178793          	addi	a5,a5,1
8000297c:	fef42623          	sw	a5,-20(s0)
80002980:	02c0006f          	j	800029ac <_prtl2+0xe4>
80002984:	fec42703          	lw	a4,-20(s0)
80002988:	fff70793          	addi	a5,a4,-1
8000298c:	fef42623          	sw	a5,-20(s0)
80002990:	fb842783          	lw	a5,-72(s0)
80002994:	00178693          	addi	a3,a5,1
80002998:	fad42c23          	sw	a3,-72(s0)
8000299c:	ff070713          	addi	a4,a4,-16
800029a0:	00870733          	add	a4,a4,s0
800029a4:	fd874703          	lbu	a4,-40(a4)
800029a8:	00e78023          	sb	a4,0(a5)
800029ac:	fec42783          	lw	a5,-20(s0)
800029b0:	fc07dae3          	bgez	a5,80002984 <_prtl2+0xbc>
800029b4:	00000013          	nop
800029b8:	00000013          	nop
800029bc:	04c12083          	lw	ra,76(sp)
800029c0:	04812403          	lw	s0,72(sp)
800029c4:	05010113          	addi	sp,sp,80
800029c8:	00008067          	ret

800029cc <_prtdbl>:
800029cc:	fc010113          	addi	sp,sp,-64
800029d0:	02112e23          	sw	ra,60(sp)
800029d4:	02812c23          	sw	s0,56(sp)
800029d8:	02912a23          	sw	s1,52(sp)
800029dc:	03212823          	sw	s2,48(sp)
800029e0:	03312623          	sw	s3,44(sp)
800029e4:	04010413          	addi	s0,sp,64
800029e8:	fca42423          	sw	a0,-56(s0)
800029ec:	fcb42623          	sw	a1,-52(s0)
800029f0:	fcc42223          	sw	a2,-60(s0)
800029f4:	fcd42023          	sw	a3,-64(s0)
800029f8:	fc042e23          	sw	zero,-36(s0)
800029fc:	00100793          	li	a5,1
80002a00:	fcf42c23          	sw	a5,-40(s0)
80002a04:	0280006f          	j	80002a2c <_prtdbl+0x60>
80002a08:	fdc42783          	lw	a5,-36(s0)
80002a0c:	00178793          	addi	a5,a5,1
80002a10:	fcf42e23          	sw	a5,-36(s0)
80002a14:	fd842703          	lw	a4,-40(s0)
80002a18:	00070793          	mv	a5,a4
80002a1c:	00279793          	slli	a5,a5,0x2
80002a20:	00e787b3          	add	a5,a5,a4
80002a24:	00179793          	slli	a5,a5,0x1
80002a28:	fcf42c23          	sw	a5,-40(s0)
80002a2c:	fdc42703          	lw	a4,-36(s0)
80002a30:	fc442783          	lw	a5,-60(s0)
80002a34:	fcf74ae3          	blt	a4,a5,80002a08 <_prtdbl+0x3c>
80002a38:	00000613          	li	a2,0
80002a3c:	00000693          	li	a3,0
80002a40:	fc842503          	lw	a0,-56(s0)
80002a44:	fcc42583          	lw	a1,-52(s0)
80002a48:	795020ef          	jal	800059dc <__ledf2>
80002a4c:	00050793          	mv	a5,a0
80002a50:	0007dc63          	bgez	a5,80002a68 <_prtdbl+0x9c>
80002a54:	fc842903          	lw	s2,-56(s0)
80002a58:	fcc42703          	lw	a4,-52(s0)
80002a5c:	800007b7          	lui	a5,0x80000
80002a60:	00f749b3          	xor	s3,a4,a5
80002a64:	00c0006f          	j	80002a70 <_prtdbl+0xa4>
80002a68:	fc842903          	lw	s2,-56(s0)
80002a6c:	fcc42983          	lw	s3,-52(s0)
80002a70:	fd242423          	sw	s2,-56(s0)
80002a74:	fd342623          	sw	s3,-52(s0)
80002a78:	fc842503          	lw	a0,-56(s0)
80002a7c:	fcc42583          	lw	a1,-52(s0)
80002a80:	778030ef          	jal	800061f8 <__fixdfsi>
80002a84:	00050793          	mv	a5,a0
80002a88:	fcf42a23          	sw	a5,-44(s0)
80002a8c:	fd842503          	lw	a0,-40(s0)
80002a90:	7ec030ef          	jal	8000627c <__floatsidf>
80002a94:	00050713          	mv	a4,a0
80002a98:	00058793          	mv	a5,a1
80002a9c:	fc842603          	lw	a2,-56(s0)
80002aa0:	fcc42683          	lw	a3,-52(s0)
80002aa4:	00070513          	mv	a0,a4
80002aa8:	00078593          	mv	a1,a5
80002aac:	030030ef          	jal	80005adc <__muldf3>
80002ab0:	00050713          	mv	a4,a0
80002ab4:	00058793          	mv	a5,a1
80002ab8:	00070513          	mv	a0,a4
80002abc:	00078593          	mv	a1,a5
80002ac0:	738030ef          	jal	800061f8 <__fixdfsi>
80002ac4:	00050493          	mv	s1,a0
80002ac8:	fd842583          	lw	a1,-40(s0)
80002acc:	fd442503          	lw	a0,-44(s0)
80002ad0:	3ac050ef          	jal	80007e7c <__mulsi3>
80002ad4:	00050793          	mv	a5,a0
80002ad8:	40f487b3          	sub	a5,s1,a5
80002adc:	fcf42823          	sw	a5,-48(s0)
80002ae0:	fc042583          	lw	a1,-64(s0)
80002ae4:	fd442503          	lw	a0,-44(s0)
80002ae8:	931ff0ef          	jal	80002418 <_prtl10>
80002aec:	0100006f          	j	80002afc <_prtdbl+0x130>
80002af0:	fc042783          	lw	a5,-64(s0)
80002af4:	00178793          	addi	a5,a5,1 # 80000001 <_start+0x1>
80002af8:	fcf42023          	sw	a5,-64(s0)
80002afc:	fc042783          	lw	a5,-64(s0)
80002b00:	0007c783          	lbu	a5,0(a5)
80002b04:	fe0796e3          	bnez	a5,80002af0 <_prtdbl+0x124>
80002b08:	fc042783          	lw	a5,-64(s0)
80002b0c:	00178713          	addi	a4,a5,1
80002b10:	fce42023          	sw	a4,-64(s0)
80002b14:	02e00713          	li	a4,46
80002b18:	00e78023          	sb	a4,0(a5)
80002b1c:	fc042583          	lw	a1,-64(s0)
80002b20:	fd042503          	lw	a0,-48(s0)
80002b24:	8f5ff0ef          	jal	80002418 <_prtl10>
80002b28:	00000013          	nop
80002b2c:	03c12083          	lw	ra,60(sp)
80002b30:	03812403          	lw	s0,56(sp)
80002b34:	03412483          	lw	s1,52(sp)
80002b38:	03012903          	lw	s2,48(sp)
80002b3c:	02c12983          	lw	s3,44(sp)
80002b40:	04010113          	addi	sp,sp,64
80002b44:	00008067          	ret

80002b48 <memchr>:
80002b48:	fd010113          	addi	sp,sp,-48
80002b4c:	02112623          	sw	ra,44(sp)
80002b50:	02812423          	sw	s0,40(sp)
80002b54:	03010413          	addi	s0,sp,48
80002b58:	fca42e23          	sw	a0,-36(s0)
80002b5c:	fcb42c23          	sw	a1,-40(s0)
80002b60:	fcc42a23          	sw	a2,-44(s0)
80002b64:	fdc42783          	lw	a5,-36(s0)
80002b68:	fef42623          	sw	a5,-20(s0)
80002b6c:	02c0006f          	j	80002b98 <memchr+0x50>
80002b70:	fec42783          	lw	a5,-20(s0)
80002b74:	0007c783          	lbu	a5,0(a5)
80002b78:	00078713          	mv	a4,a5
80002b7c:	fd842783          	lw	a5,-40(s0)
80002b80:	00e79663          	bne	a5,a4,80002b8c <memchr+0x44>
80002b84:	fec42783          	lw	a5,-20(s0)
80002b88:	0240006f          	j	80002bac <memchr+0x64>
80002b8c:	fec42783          	lw	a5,-20(s0)
80002b90:	00178793          	addi	a5,a5,1
80002b94:	fef42623          	sw	a5,-20(s0)
80002b98:	fd442783          	lw	a5,-44(s0)
80002b9c:	fff78713          	addi	a4,a5,-1
80002ba0:	fce42a23          	sw	a4,-44(s0)
80002ba4:	fc0796e3          	bnez	a5,80002b70 <memchr+0x28>
80002ba8:	00000793          	li	a5,0
80002bac:	00078513          	mv	a0,a5
80002bb0:	02c12083          	lw	ra,44(sp)
80002bb4:	02812403          	lw	s0,40(sp)
80002bb8:	03010113          	addi	sp,sp,48
80002bbc:	00008067          	ret

80002bc0 <memcmp>:
80002bc0:	fd010113          	addi	sp,sp,-48
80002bc4:	02112623          	sw	ra,44(sp)
80002bc8:	02812423          	sw	s0,40(sp)
80002bcc:	03010413          	addi	s0,sp,48
80002bd0:	fca42e23          	sw	a0,-36(s0)
80002bd4:	fcb42c23          	sw	a1,-40(s0)
80002bd8:	fcc42a23          	sw	a2,-44(s0)
80002bdc:	fdc42783          	lw	a5,-36(s0)
80002be0:	fef42623          	sw	a5,-20(s0)
80002be4:	fd842783          	lw	a5,-40(s0)
80002be8:	fef42423          	sw	a5,-24(s0)
80002bec:	0540006f          	j	80002c40 <memcmp+0x80>
80002bf0:	fec42783          	lw	a5,-20(s0)
80002bf4:	0007c703          	lbu	a4,0(a5)
80002bf8:	fe842783          	lw	a5,-24(s0)
80002bfc:	0007c783          	lbu	a5,0(a5)
80002c00:	02f70463          	beq	a4,a5,80002c28 <memcmp+0x68>
80002c04:	fec42783          	lw	a5,-20(s0)
80002c08:	0007c703          	lbu	a4,0(a5)
80002c0c:	fe842783          	lw	a5,-24(s0)
80002c10:	0007c783          	lbu	a5,0(a5)
80002c14:	00e7f663          	bgeu	a5,a4,80002c20 <memcmp+0x60>
80002c18:	00100793          	li	a5,1
80002c1c:	0380006f          	j	80002c54 <memcmp+0x94>
80002c20:	fff00793          	li	a5,-1
80002c24:	0300006f          	j	80002c54 <memcmp+0x94>
80002c28:	fec42783          	lw	a5,-20(s0)
80002c2c:	00178793          	addi	a5,a5,1
80002c30:	fef42623          	sw	a5,-20(s0)
80002c34:	fe842783          	lw	a5,-24(s0)
80002c38:	00178793          	addi	a5,a5,1
80002c3c:	fef42423          	sw	a5,-24(s0)
80002c40:	fd442783          	lw	a5,-44(s0)
80002c44:	fff78713          	addi	a4,a5,-1
80002c48:	fce42a23          	sw	a4,-44(s0)
80002c4c:	fa0792e3          	bnez	a5,80002bf0 <memcmp+0x30>
80002c50:	00000793          	li	a5,0
80002c54:	00078513          	mv	a0,a5
80002c58:	02c12083          	lw	ra,44(sp)
80002c5c:	02812403          	lw	s0,40(sp)
80002c60:	03010113          	addi	sp,sp,48
80002c64:	00008067          	ret

80002c68 <memset>:
80002c68:	fd010113          	addi	sp,sp,-48
80002c6c:	02112623          	sw	ra,44(sp)
80002c70:	02812423          	sw	s0,40(sp)
80002c74:	03010413          	addi	s0,sp,48
80002c78:	fca42e23          	sw	a0,-36(s0)
80002c7c:	00058793          	mv	a5,a1
80002c80:	fcc42a23          	sw	a2,-44(s0)
80002c84:	fcf40da3          	sb	a5,-37(s0)
80002c88:	fdc42703          	lw	a4,-36(s0)
80002c8c:	fd442783          	lw	a5,-44(s0)
80002c90:	00f707b3          	add	a5,a4,a5
80002c94:	fef42623          	sw	a5,-20(s0)
80002c98:	01c0006f          	j	80002cb4 <memset+0x4c>
80002c9c:	fdc42783          	lw	a5,-36(s0)
80002ca0:	fdb44703          	lbu	a4,-37(s0)
80002ca4:	00e78023          	sb	a4,0(a5)
80002ca8:	fdc42783          	lw	a5,-36(s0)
80002cac:	00178793          	addi	a5,a5,1
80002cb0:	fcf42e23          	sw	a5,-36(s0)
80002cb4:	fdc42703          	lw	a4,-36(s0)
80002cb8:	fec42783          	lw	a5,-20(s0)
80002cbc:	fef760e3          	bltu	a4,a5,80002c9c <memset+0x34>
80002cc0:	00000013          	nop
80002cc4:	00000013          	nop
80002cc8:	02c12083          	lw	ra,44(sp)
80002ccc:	02812403          	lw	s0,40(sp)
80002cd0:	03010113          	addi	sp,sp,48
80002cd4:	00008067          	ret

80002cd8 <memcpy>:
80002cd8:	fd010113          	addi	sp,sp,-48
80002cdc:	02112623          	sw	ra,44(sp)
80002ce0:	02812423          	sw	s0,40(sp)
80002ce4:	02912223          	sw	s1,36(sp)
80002ce8:	03010413          	addi	s0,sp,48
80002cec:	fca42e23          	sw	a0,-36(s0)
80002cf0:	fcb42c23          	sw	a1,-40(s0)
80002cf4:	fcc42a23          	sw	a2,-44(s0)
80002cf8:	fdc42783          	lw	a5,-36(s0)
80002cfc:	fef42623          	sw	a5,-20(s0)
80002d00:	fd842783          	lw	a5,-40(s0)
80002d04:	fef42423          	sw	a5,-24(s0)
80002d08:	00000493          	li	s1,0
80002d0c:	0280006f          	j	80002d34 <memcpy+0x5c>
80002d10:	fe842703          	lw	a4,-24(s0)
80002d14:	00170793          	addi	a5,a4,1
80002d18:	fef42423          	sw	a5,-24(s0)
80002d1c:	fec42783          	lw	a5,-20(s0)
80002d20:	00178693          	addi	a3,a5,1
80002d24:	fed42623          	sw	a3,-20(s0)
80002d28:	00074703          	lbu	a4,0(a4)
80002d2c:	00e78023          	sb	a4,0(a5)
80002d30:	00148493          	addi	s1,s1,1
80002d34:	fd442783          	lw	a5,-44(s0)
80002d38:	fcf4cce3          	blt	s1,a5,80002d10 <memcpy+0x38>
80002d3c:	fdc42783          	lw	a5,-36(s0)
80002d40:	00078513          	mv	a0,a5
80002d44:	02c12083          	lw	ra,44(sp)
80002d48:	02812403          	lw	s0,40(sp)
80002d4c:	02412483          	lw	s1,36(sp)
80002d50:	03010113          	addi	sp,sp,48
80002d54:	00008067          	ret

80002d58 <memmove>:
80002d58:	fd010113          	addi	sp,sp,-48
80002d5c:	02112623          	sw	ra,44(sp)
80002d60:	02812423          	sw	s0,40(sp)
80002d64:	03010413          	addi	s0,sp,48
80002d68:	fca42e23          	sw	a0,-36(s0)
80002d6c:	fcb42c23          	sw	a1,-40(s0)
80002d70:	fcc42a23          	sw	a2,-44(s0)
80002d74:	fd842783          	lw	a5,-40(s0)
80002d78:	fef42623          	sw	a5,-20(s0)
80002d7c:	fdc42783          	lw	a5,-36(s0)
80002d80:	fef42423          	sw	a5,-24(s0)
80002d84:	fec42703          	lw	a4,-20(s0)
80002d88:	fe842783          	lw	a5,-24(s0)
80002d8c:	04f77e63          	bgeu	a4,a5,80002de8 <memmove+0x90>
80002d90:	0240006f          	j	80002db4 <memmove+0x5c>
80002d94:	fec42703          	lw	a4,-20(s0)
80002d98:	fd442783          	lw	a5,-44(s0)
80002d9c:	00f70733          	add	a4,a4,a5
80002da0:	fe842683          	lw	a3,-24(s0)
80002da4:	fd442783          	lw	a5,-44(s0)
80002da8:	00f687b3          	add	a5,a3,a5
80002dac:	00074703          	lbu	a4,0(a4)
80002db0:	00e78023          	sb	a4,0(a5)
80002db4:	fd442783          	lw	a5,-44(s0)
80002db8:	fff78713          	addi	a4,a5,-1
80002dbc:	fce42a23          	sw	a4,-44(s0)
80002dc0:	fc079ae3          	bnez	a5,80002d94 <memmove+0x3c>
80002dc4:	0340006f          	j	80002df8 <memmove+0xa0>
80002dc8:	fec42703          	lw	a4,-20(s0)
80002dcc:	00170793          	addi	a5,a4,1
80002dd0:	fef42623          	sw	a5,-20(s0)
80002dd4:	fe842783          	lw	a5,-24(s0)
80002dd8:	00178693          	addi	a3,a5,1
80002ddc:	fed42423          	sw	a3,-24(s0)
80002de0:	00074703          	lbu	a4,0(a4)
80002de4:	00e78023          	sb	a4,0(a5)
80002de8:	fd442783          	lw	a5,-44(s0)
80002dec:	fff78713          	addi	a4,a5,-1
80002df0:	fce42a23          	sw	a4,-44(s0)
80002df4:	fc079ae3          	bnez	a5,80002dc8 <memmove+0x70>
80002df8:	00000013          	nop
80002dfc:	02c12083          	lw	ra,44(sp)
80002e00:	02812403          	lw	s0,40(sp)
80002e04:	03010113          	addi	sp,sp,48
80002e08:	00008067          	ret

80002e0c <strchr>:
80002e0c:	fe010113          	addi	sp,sp,-32
80002e10:	00112e23          	sw	ra,28(sp)
80002e14:	00812c23          	sw	s0,24(sp)
80002e18:	02010413          	addi	s0,sp,32
80002e1c:	fea42623          	sw	a0,-20(s0)
80002e20:	feb42423          	sw	a1,-24(s0)
80002e24:	0100006f          	j	80002e34 <strchr+0x28>
80002e28:	fec42783          	lw	a5,-20(s0)
80002e2c:	00178793          	addi	a5,a5,1
80002e30:	fef42623          	sw	a5,-20(s0)
80002e34:	fec42783          	lw	a5,-20(s0)
80002e38:	0007c783          	lbu	a5,0(a5)
80002e3c:	00078713          	mv	a4,a5
80002e40:	fe842783          	lw	a5,-24(s0)
80002e44:	00e78863          	beq	a5,a4,80002e54 <strchr+0x48>
80002e48:	fec42783          	lw	a5,-20(s0)
80002e4c:	0007c783          	lbu	a5,0(a5)
80002e50:	fc079ce3          	bnez	a5,80002e28 <strchr+0x1c>
80002e54:	fec42783          	lw	a5,-20(s0)
80002e58:	0007c783          	lbu	a5,0(a5)
80002e5c:	00078713          	mv	a4,a5
80002e60:	fe842783          	lw	a5,-24(s0)
80002e64:	00e79663          	bne	a5,a4,80002e70 <strchr+0x64>
80002e68:	fec42783          	lw	a5,-20(s0)
80002e6c:	0080006f          	j	80002e74 <strchr+0x68>
80002e70:	00000793          	li	a5,0
80002e74:	00078513          	mv	a0,a5
80002e78:	01c12083          	lw	ra,28(sp)
80002e7c:	01812403          	lw	s0,24(sp)
80002e80:	02010113          	addi	sp,sp,32
80002e84:	00008067          	ret

80002e88 <strlen>:
80002e88:	fd010113          	addi	sp,sp,-48
80002e8c:	02112623          	sw	ra,44(sp)
80002e90:	02812423          	sw	s0,40(sp)
80002e94:	03010413          	addi	s0,sp,48
80002e98:	fca42e23          	sw	a0,-36(s0)
80002e9c:	fe042623          	sw	zero,-20(s0)
80002ea0:	0100006f          	j	80002eb0 <strlen+0x28>
80002ea4:	fec42783          	lw	a5,-20(s0)
80002ea8:	00178793          	addi	a5,a5,1
80002eac:	fef42623          	sw	a5,-20(s0)
80002eb0:	fdc42783          	lw	a5,-36(s0)
80002eb4:	00178713          	addi	a4,a5,1
80002eb8:	fce42e23          	sw	a4,-36(s0)
80002ebc:	0007c783          	lbu	a5,0(a5)
80002ec0:	fe0792e3          	bnez	a5,80002ea4 <strlen+0x1c>
80002ec4:	fec42783          	lw	a5,-20(s0)
80002ec8:	00078513          	mv	a0,a5
80002ecc:	02c12083          	lw	ra,44(sp)
80002ed0:	02812403          	lw	s0,40(sp)
80002ed4:	03010113          	addi	sp,sp,48
80002ed8:	00008067          	ret

80002edc <strreverse>:
80002edc:	fd010113          	addi	sp,sp,-48
80002ee0:	02112623          	sw	ra,44(sp)
80002ee4:	02812423          	sw	s0,40(sp)
80002ee8:	03010413          	addi	s0,sp,48
80002eec:	fca42e23          	sw	a0,-36(s0)
80002ef0:	fdc42783          	lw	a5,-36(s0)
80002ef4:	fef42623          	sw	a5,-20(s0)
80002ef8:	fdc42783          	lw	a5,-36(s0)
80002efc:	08078263          	beqz	a5,80002f80 <strreverse+0xa4>
80002f00:	fdc42783          	lw	a5,-36(s0)
80002f04:	0007c783          	lbu	a5,0(a5)
80002f08:	06078c63          	beqz	a5,80002f80 <strreverse+0xa4>
80002f0c:	00000013          	nop
80002f10:	fdc42783          	lw	a5,-36(s0)
80002f14:	00178793          	addi	a5,a5,1
80002f18:	fcf42e23          	sw	a5,-36(s0)
80002f1c:	fdc42783          	lw	a5,-36(s0)
80002f20:	0007c783          	lbu	a5,0(a5)
80002f24:	fe0796e3          	bnez	a5,80002f10 <strreverse+0x34>
80002f28:	fdc42783          	lw	a5,-36(s0)
80002f2c:	fff78793          	addi	a5,a5,-1
80002f30:	fcf42e23          	sw	a5,-36(s0)
80002f34:	03c0006f          	j	80002f70 <strreverse+0x94>
80002f38:	fec42783          	lw	a5,-20(s0)
80002f3c:	0007c783          	lbu	a5,0(a5)
80002f40:	fef405a3          	sb	a5,-21(s0)
80002f44:	fec42783          	lw	a5,-20(s0)
80002f48:	00178713          	addi	a4,a5,1
80002f4c:	fee42623          	sw	a4,-20(s0)
80002f50:	fdc42703          	lw	a4,-36(s0)
80002f54:	00074703          	lbu	a4,0(a4)
80002f58:	00e78023          	sb	a4,0(a5)
80002f5c:	fdc42783          	lw	a5,-36(s0)
80002f60:	fff78713          	addi	a4,a5,-1
80002f64:	fce42e23          	sw	a4,-36(s0)
80002f68:	feb44703          	lbu	a4,-21(s0)
80002f6c:	00e78023          	sb	a4,0(a5)
80002f70:	fdc42703          	lw	a4,-36(s0)
80002f74:	fec42783          	lw	a5,-20(s0)
80002f78:	fce7e0e3          	bltu	a5,a4,80002f38 <strreverse+0x5c>
80002f7c:	0080006f          	j	80002f84 <strreverse+0xa8>
80002f80:	00000013          	nop
80002f84:	02c12083          	lw	ra,44(sp)
80002f88:	02812403          	lw	s0,40(sp)
80002f8c:	03010113          	addi	sp,sp,48
80002f90:	00008067          	ret

80002f94 <strcmp>:
80002f94:	fe010113          	addi	sp,sp,-32
80002f98:	00112e23          	sw	ra,28(sp)
80002f9c:	00812c23          	sw	s0,24(sp)
80002fa0:	02010413          	addi	s0,sp,32
80002fa4:	fea42623          	sw	a0,-20(s0)
80002fa8:	feb42423          	sw	a1,-24(s0)
80002fac:	01c0006f          	j	80002fc8 <strcmp+0x34>
80002fb0:	fec42783          	lw	a5,-20(s0)
80002fb4:	00178793          	addi	a5,a5,1
80002fb8:	fef42623          	sw	a5,-20(s0)
80002fbc:	fe842783          	lw	a5,-24(s0)
80002fc0:	00178793          	addi	a5,a5,1
80002fc4:	fef42423          	sw	a5,-24(s0)
80002fc8:	fec42783          	lw	a5,-20(s0)
80002fcc:	0007c703          	lbu	a4,0(a5)
80002fd0:	fe842783          	lw	a5,-24(s0)
80002fd4:	0007c783          	lbu	a5,0(a5)
80002fd8:	00f71e63          	bne	a4,a5,80002ff4 <strcmp+0x60>
80002fdc:	fec42783          	lw	a5,-20(s0)
80002fe0:	0007c783          	lbu	a5,0(a5)
80002fe4:	00078863          	beqz	a5,80002ff4 <strcmp+0x60>
80002fe8:	fe842783          	lw	a5,-24(s0)
80002fec:	0007c783          	lbu	a5,0(a5)
80002ff0:	fc0790e3          	bnez	a5,80002fb0 <strcmp+0x1c>
80002ff4:	fec42783          	lw	a5,-20(s0)
80002ff8:	0007c703          	lbu	a4,0(a5)
80002ffc:	fe842783          	lw	a5,-24(s0)
80003000:	0007c783          	lbu	a5,0(a5)
80003004:	00f71663          	bne	a4,a5,80003010 <strcmp+0x7c>
80003008:	00000793          	li	a5,0
8000300c:	0240006f          	j	80003030 <strcmp+0x9c>
80003010:	fec42783          	lw	a5,-20(s0)
80003014:	0007c703          	lbu	a4,0(a5)
80003018:	fe842783          	lw	a5,-24(s0)
8000301c:	0007c783          	lbu	a5,0(a5)
80003020:	00e7f663          	bgeu	a5,a4,8000302c <strcmp+0x98>
80003024:	00100793          	li	a5,1
80003028:	0080006f          	j	80003030 <strcmp+0x9c>
8000302c:	fff00793          	li	a5,-1
80003030:	00078513          	mv	a0,a5
80003034:	01c12083          	lw	ra,28(sp)
80003038:	01812403          	lw	s0,24(sp)
8000303c:	02010113          	addi	sp,sp,32
80003040:	00008067          	ret

80003044 <strncmp>:
80003044:	fe010113          	addi	sp,sp,-32
80003048:	00112e23          	sw	ra,28(sp)
8000304c:	00812c23          	sw	s0,24(sp)
80003050:	02010413          	addi	s0,sp,32
80003054:	fea42623          	sw	a0,-20(s0)
80003058:	feb42423          	sw	a1,-24(s0)
8000305c:	fec42223          	sw	a2,-28(s0)
80003060:	0280006f          	j	80003088 <strncmp+0x44>
80003064:	fec42783          	lw	a5,-20(s0)
80003068:	00178793          	addi	a5,a5,1
8000306c:	fef42623          	sw	a5,-20(s0)
80003070:	fe842783          	lw	a5,-24(s0)
80003074:	00178793          	addi	a5,a5,1
80003078:	fef42423          	sw	a5,-24(s0)
8000307c:	fe442783          	lw	a5,-28(s0)
80003080:	fff78793          	addi	a5,a5,-1
80003084:	fef42223          	sw	a5,-28(s0)
80003088:	fec42783          	lw	a5,-20(s0)
8000308c:	0007c703          	lbu	a4,0(a5)
80003090:	fe842783          	lw	a5,-24(s0)
80003094:	0007c783          	lbu	a5,0(a5)
80003098:	02f71263          	bne	a4,a5,800030bc <strncmp+0x78>
8000309c:	fec42783          	lw	a5,-20(s0)
800030a0:	0007c783          	lbu	a5,0(a5)
800030a4:	00078c63          	beqz	a5,800030bc <strncmp+0x78>
800030a8:	fe842783          	lw	a5,-24(s0)
800030ac:	0007c783          	lbu	a5,0(a5)
800030b0:	00078663          	beqz	a5,800030bc <strncmp+0x78>
800030b4:	fe442783          	lw	a5,-28(s0)
800030b8:	fa0796e3          	bnez	a5,80003064 <strncmp+0x20>
800030bc:	fe442783          	lw	a5,-28(s0)
800030c0:	00078c63          	beqz	a5,800030d8 <strncmp+0x94>
800030c4:	fec42783          	lw	a5,-20(s0)
800030c8:	0007c703          	lbu	a4,0(a5)
800030cc:	fe842783          	lw	a5,-24(s0)
800030d0:	0007c783          	lbu	a5,0(a5)
800030d4:	00f71663          	bne	a4,a5,800030e0 <strncmp+0x9c>
800030d8:	00000793          	li	a5,0
800030dc:	0240006f          	j	80003100 <strncmp+0xbc>
800030e0:	fec42783          	lw	a5,-20(s0)
800030e4:	0007c703          	lbu	a4,0(a5)
800030e8:	fe842783          	lw	a5,-24(s0)
800030ec:	0007c783          	lbu	a5,0(a5)
800030f0:	00e7f663          	bgeu	a5,a4,800030fc <strncmp+0xb8>
800030f4:	00100793          	li	a5,1
800030f8:	0080006f          	j	80003100 <strncmp+0xbc>
800030fc:	fff00793          	li	a5,-1
80003100:	00078513          	mv	a0,a5
80003104:	01c12083          	lw	ra,28(sp)
80003108:	01812403          	lw	s0,24(sp)
8000310c:	02010113          	addi	sp,sp,32
80003110:	00008067          	ret

80003114 <strncpy>:
80003114:	fd010113          	addi	sp,sp,-48
80003118:	02112623          	sw	ra,44(sp)
8000311c:	02812423          	sw	s0,40(sp)
80003120:	03010413          	addi	s0,sp,48
80003124:	fca42e23          	sw	a0,-36(s0)
80003128:	fcb42c23          	sw	a1,-40(s0)
8000312c:	fcc42a23          	sw	a2,-44(s0)
80003130:	fdc42783          	lw	a5,-36(s0)
80003134:	fef42623          	sw	a5,-20(s0)
80003138:	0240006f          	j	8000315c <strncpy+0x48>
8000313c:	fd842703          	lw	a4,-40(s0)
80003140:	00170793          	addi	a5,a4,1
80003144:	fcf42c23          	sw	a5,-40(s0)
80003148:	fdc42783          	lw	a5,-36(s0)
8000314c:	00178693          	addi	a3,a5,1
80003150:	fcd42e23          	sw	a3,-36(s0)
80003154:	00074703          	lbu	a4,0(a4)
80003158:	00e78023          	sb	a4,0(a5)
8000315c:	fd842783          	lw	a5,-40(s0)
80003160:	0007c783          	lbu	a5,0(a5)
80003164:	02078463          	beqz	a5,8000318c <strncpy+0x78>
80003168:	fd442783          	lw	a5,-44(s0)
8000316c:	fff78713          	addi	a4,a5,-1
80003170:	fce42a23          	sw	a4,-44(s0)
80003174:	fcf044e3          	bgtz	a5,8000313c <strncpy+0x28>
80003178:	0140006f          	j	8000318c <strncpy+0x78>
8000317c:	fdc42783          	lw	a5,-36(s0)
80003180:	00178713          	addi	a4,a5,1
80003184:	fce42e23          	sw	a4,-36(s0)
80003188:	00078023          	sb	zero,0(a5)
8000318c:	fd442783          	lw	a5,-44(s0)
80003190:	fff78713          	addi	a4,a5,-1
80003194:	fce42a23          	sw	a4,-44(s0)
80003198:	fef042e3          	bgtz	a5,8000317c <strncpy+0x68>
8000319c:	fec42783          	lw	a5,-20(s0)
800031a0:	00078513          	mv	a0,a5
800031a4:	02c12083          	lw	ra,44(sp)
800031a8:	02812403          	lw	s0,40(sp)
800031ac:	03010113          	addi	sp,sp,48
800031b0:	00008067          	ret

800031b4 <chrnlst>:
800031b4:	fd010113          	addi	sp,sp,-48
800031b8:	02112623          	sw	ra,44(sp)
800031bc:	02812423          	sw	s0,40(sp)
800031c0:	03010413          	addi	s0,sp,48
800031c4:	00050793          	mv	a5,a0
800031c8:	fcb42c23          	sw	a1,-40(s0)
800031cc:	fcf40fa3          	sb	a5,-33(s0)
800031d0:	fe042623          	sw	zero,-20(s0)
800031d4:	0300006f          	j	80003204 <chrnlst+0x50>
800031d8:	fec42783          	lw	a5,-20(s0)
800031dc:	fd842703          	lw	a4,-40(s0)
800031e0:	00f707b3          	add	a5,a4,a5
800031e4:	0007c783          	lbu	a5,0(a5)
800031e8:	fdf44703          	lbu	a4,-33(s0)
800031ec:	00f71663          	bne	a4,a5,800031f8 <chrnlst+0x44>
800031f0:	00100793          	li	a5,1
800031f4:	0280006f          	j	8000321c <chrnlst+0x68>
800031f8:	fec42783          	lw	a5,-20(s0)
800031fc:	00178793          	addi	a5,a5,1
80003200:	fef42623          	sw	a5,-20(s0)
80003204:	fec42783          	lw	a5,-20(s0)
80003208:	fd842703          	lw	a4,-40(s0)
8000320c:	00f707b3          	add	a5,a4,a5
80003210:	0007c783          	lbu	a5,0(a5)
80003214:	fc0792e3          	bnez	a5,800031d8 <chrnlst+0x24>
80003218:	00000793          	li	a5,0
8000321c:	00078513          	mv	a0,a5
80003220:	02c12083          	lw	ra,44(sp)
80003224:	02812403          	lw	s0,40(sp)
80003228:	03010113          	addi	sp,sp,48
8000322c:	00008067          	ret

80003230 <strncat>:
80003230:	fd010113          	addi	sp,sp,-48
80003234:	02112623          	sw	ra,44(sp)
80003238:	02812423          	sw	s0,40(sp)
8000323c:	03010413          	addi	s0,sp,48
80003240:	fca42e23          	sw	a0,-36(s0)
80003244:	fcb42c23          	sw	a1,-40(s0)
80003248:	fcc42a23          	sw	a2,-44(s0)
8000324c:	fdc42783          	lw	a5,-36(s0)
80003250:	fef42623          	sw	a5,-20(s0)
80003254:	00000013          	nop
80003258:	fdc42783          	lw	a5,-36(s0)
8000325c:	00178713          	addi	a4,a5,1
80003260:	fce42e23          	sw	a4,-36(s0)
80003264:	0007c783          	lbu	a5,0(a5)
80003268:	fe0798e3          	bnez	a5,80003258 <strncat+0x28>
8000326c:	fdc42783          	lw	a5,-36(s0)
80003270:	fff78793          	addi	a5,a5,-1
80003274:	fcf42e23          	sw	a5,-36(s0)
80003278:	0300006f          	j	800032a8 <strncat+0x78>
8000327c:	fd442783          	lw	a5,-44(s0)
80003280:	fff78793          	addi	a5,a5,-1
80003284:	fcf42a23          	sw	a5,-44(s0)
80003288:	fd442783          	lw	a5,-44(s0)
8000328c:	0007de63          	bgez	a5,800032a8 <strncat+0x78>
80003290:	fdc42783          	lw	a5,-36(s0)
80003294:	fff78793          	addi	a5,a5,-1
80003298:	fcf42e23          	sw	a5,-36(s0)
8000329c:	fdc42783          	lw	a5,-36(s0)
800032a0:	00078023          	sb	zero,0(a5)
800032a4:	02c0006f          	j	800032d0 <strncat+0xa0>
800032a8:	fd842703          	lw	a4,-40(s0)
800032ac:	00170793          	addi	a5,a4,1
800032b0:	fcf42c23          	sw	a5,-40(s0)
800032b4:	fdc42783          	lw	a5,-36(s0)
800032b8:	00178693          	addi	a3,a5,1
800032bc:	fcd42e23          	sw	a3,-36(s0)
800032c0:	00074703          	lbu	a4,0(a4)
800032c4:	00e78023          	sb	a4,0(a5)
800032c8:	0007c783          	lbu	a5,0(a5)
800032cc:	fa0798e3          	bnez	a5,8000327c <strncat+0x4c>
800032d0:	fec42783          	lw	a5,-20(s0)
800032d4:	00078513          	mv	a0,a5
800032d8:	02c12083          	lw	ra,44(sp)
800032dc:	02812403          	lw	s0,40(sp)
800032e0:	03010113          	addi	sp,sp,48
800032e4:	00008067          	ret

800032e8 <strstr>:
800032e8:	fd010113          	addi	sp,sp,-48
800032ec:	02112623          	sw	ra,44(sp)
800032f0:	02812423          	sw	s0,40(sp)
800032f4:	03010413          	addi	s0,sp,48
800032f8:	fca42e23          	sw	a0,-36(s0)
800032fc:	fcb42c23          	sw	a1,-40(s0)
80003300:	0980006f          	j	80003398 <strstr+0xb0>
80003304:	fdc42783          	lw	a5,-36(s0)
80003308:	0007c703          	lbu	a4,0(a5)
8000330c:	fd842783          	lw	a5,-40(s0)
80003310:	0007c783          	lbu	a5,0(a5)
80003314:	06f71c63          	bne	a4,a5,8000338c <strstr+0xa4>
80003318:	fdc42783          	lw	a5,-36(s0)
8000331c:	fef42623          	sw	a5,-20(s0)
80003320:	fd842783          	lw	a5,-40(s0)
80003324:	fef42423          	sw	a5,-24(s0)
80003328:	0300006f          	j	80003358 <strstr+0x70>
8000332c:	fec42783          	lw	a5,-20(s0)
80003330:	0007c703          	lbu	a4,0(a5)
80003334:	fe842783          	lw	a5,-24(s0)
80003338:	0007c783          	lbu	a5,0(a5)
8000333c:	02f71c63          	bne	a4,a5,80003374 <strstr+0x8c>
80003340:	fec42783          	lw	a5,-20(s0)
80003344:	00178793          	addi	a5,a5,1
80003348:	fef42623          	sw	a5,-20(s0)
8000334c:	fe842783          	lw	a5,-24(s0)
80003350:	00178793          	addi	a5,a5,1
80003354:	fef42423          	sw	a5,-24(s0)
80003358:	fec42783          	lw	a5,-20(s0)
8000335c:	0007c783          	lbu	a5,0(a5)
80003360:	00078c63          	beqz	a5,80003378 <strstr+0x90>
80003364:	fe842783          	lw	a5,-24(s0)
80003368:	0007c783          	lbu	a5,0(a5)
8000336c:	fc0790e3          	bnez	a5,8000332c <strstr+0x44>
80003370:	0080006f          	j	80003378 <strstr+0x90>
80003374:	00000013          	nop
80003378:	fe842783          	lw	a5,-24(s0)
8000337c:	0007c783          	lbu	a5,0(a5)
80003380:	00079663          	bnez	a5,8000338c <strstr+0xa4>
80003384:	fdc42783          	lw	a5,-36(s0)
80003388:	0200006f          	j	800033a8 <strstr+0xc0>
8000338c:	fdc42783          	lw	a5,-36(s0)
80003390:	00178793          	addi	a5,a5,1
80003394:	fcf42e23          	sw	a5,-36(s0)
80003398:	fdc42783          	lw	a5,-36(s0)
8000339c:	0007c783          	lbu	a5,0(a5)
800033a0:	f60792e3          	bnez	a5,80003304 <strstr+0x1c>
800033a4:	00000793          	li	a5,0
800033a8:	00078513          	mv	a0,a5
800033ac:	02c12083          	lw	ra,44(sp)
800033b0:	02812403          	lw	s0,40(sp)
800033b4:	03010113          	addi	sp,sp,48
800033b8:	00008067          	ret

800033bc <strcpy>:
800033bc:	fe010113          	addi	sp,sp,-32
800033c0:	00112e23          	sw	ra,28(sp)
800033c4:	00812c23          	sw	s0,24(sp)
800033c8:	02010413          	addi	s0,sp,32
800033cc:	fea42623          	sw	a0,-20(s0)
800033d0:	feb42423          	sw	a1,-24(s0)
800033d4:	00000013          	nop
800033d8:	fe842703          	lw	a4,-24(s0)
800033dc:	00170793          	addi	a5,a4,1
800033e0:	fef42423          	sw	a5,-24(s0)
800033e4:	fec42783          	lw	a5,-20(s0)
800033e8:	00178693          	addi	a3,a5,1
800033ec:	fed42623          	sw	a3,-20(s0)
800033f0:	00074703          	lbu	a4,0(a4)
800033f4:	00e78023          	sb	a4,0(a5)
800033f8:	0007c783          	lbu	a5,0(a5)
800033fc:	fc079ee3          	bnez	a5,800033d8 <strcpy+0x1c>
80003400:	00000793          	li	a5,0
80003404:	00078513          	mv	a0,a5
80003408:	01c12083          	lw	ra,28(sp)
8000340c:	01812403          	lw	s0,24(sp)
80003410:	02010113          	addi	sp,sp,32
80003414:	00008067          	ret

80003418 <strspn>:
80003418:	fd010113          	addi	sp,sp,-48
8000341c:	02112623          	sw	ra,44(sp)
80003420:	02812423          	sw	s0,40(sp)
80003424:	03010413          	addi	s0,sp,48
80003428:	fca42e23          	sw	a0,-36(s0)
8000342c:	fcb42c23          	sw	a1,-40(s0)
80003430:	fdc42783          	lw	a5,-36(s0)
80003434:	fef42423          	sw	a5,-24(s0)
80003438:	05c0006f          	j	80003494 <strspn+0x7c>
8000343c:	fd842783          	lw	a5,-40(s0)
80003440:	fef42623          	sw	a5,-20(s0)
80003444:	0240006f          	j	80003468 <strspn+0x50>
80003448:	fdc42783          	lw	a5,-36(s0)
8000344c:	0007c703          	lbu	a4,0(a5)
80003450:	fec42783          	lw	a5,-20(s0)
80003454:	0007c783          	lbu	a5,0(a5)
80003458:	02f70063          	beq	a4,a5,80003478 <strspn+0x60>
8000345c:	fec42783          	lw	a5,-20(s0)
80003460:	00178793          	addi	a5,a5,1
80003464:	fef42623          	sw	a5,-20(s0)
80003468:	fec42783          	lw	a5,-20(s0)
8000346c:	0007c783          	lbu	a5,0(a5)
80003470:	fc079ce3          	bnez	a5,80003448 <strspn+0x30>
80003474:	0080006f          	j	8000347c <strspn+0x64>
80003478:	00000013          	nop
8000347c:	fec42783          	lw	a5,-20(s0)
80003480:	0007c783          	lbu	a5,0(a5)
80003484:	02078063          	beqz	a5,800034a4 <strspn+0x8c>
80003488:	fdc42783          	lw	a5,-36(s0)
8000348c:	00178793          	addi	a5,a5,1
80003490:	fcf42e23          	sw	a5,-36(s0)
80003494:	fdc42783          	lw	a5,-36(s0)
80003498:	0007c783          	lbu	a5,0(a5)
8000349c:	fa0790e3          	bnez	a5,8000343c <strspn+0x24>
800034a0:	0080006f          	j	800034a8 <strspn+0x90>
800034a4:	00000013          	nop
800034a8:	fdc42703          	lw	a4,-36(s0)
800034ac:	fe842783          	lw	a5,-24(s0)
800034b0:	40f707b3          	sub	a5,a4,a5
800034b4:	00078513          	mv	a0,a5
800034b8:	02c12083          	lw	ra,44(sp)
800034bc:	02812403          	lw	s0,40(sp)
800034c0:	03010113          	addi	sp,sp,48
800034c4:	00008067          	ret

800034c8 <strcat>:
800034c8:	fd010113          	addi	sp,sp,-48
800034cc:	02112623          	sw	ra,44(sp)
800034d0:	02812423          	sw	s0,40(sp)
800034d4:	03010413          	addi	s0,sp,48
800034d8:	fca42e23          	sw	a0,-36(s0)
800034dc:	fcb42c23          	sw	a1,-40(s0)
800034e0:	fdc42503          	lw	a0,-36(s0)
800034e4:	9a5ff0ef          	jal	80002e88 <strlen>
800034e8:	fea42623          	sw	a0,-20(s0)
800034ec:	fec42783          	lw	a5,-20(s0)
800034f0:	fdc42703          	lw	a4,-36(s0)
800034f4:	00f707b3          	add	a5,a4,a5
800034f8:	fd842583          	lw	a1,-40(s0)
800034fc:	00078513          	mv	a0,a5
80003500:	ebdff0ef          	jal	800033bc <strcpy>
80003504:	fdc42783          	lw	a5,-36(s0)
80003508:	00078513          	mv	a0,a5
8000350c:	02c12083          	lw	ra,44(sp)
80003510:	02812403          	lw	s0,40(sp)
80003514:	03010113          	addi	sp,sp,48
80003518:	00008067          	ret

8000351c <strcspn>:
8000351c:	fd010113          	addi	sp,sp,-48
80003520:	02112623          	sw	ra,44(sp)
80003524:	02812423          	sw	s0,40(sp)
80003528:	02912223          	sw	s1,36(sp)
8000352c:	03212023          	sw	s2,32(sp)
80003530:	01312e23          	sw	s3,28(sp)
80003534:	01412c23          	sw	s4,24(sp)
80003538:	03010413          	addi	s0,sp,48
8000353c:	fca42e23          	sw	a0,-36(s0)
80003540:	00058713          	mv	a4,a1
80003544:	fdc42483          	lw	s1,-36(s0)
80003548:	00048793          	mv	a5,s1
8000354c:	00178493          	addi	s1,a5,1
80003550:	0007c983          	lbu	s3,0(a5)
80003554:	00070a13          	mv	s4,a4
80003558:	000a0793          	mv	a5,s4
8000355c:	00178a13          	addi	s4,a5,1
80003560:	0007c903          	lbu	s2,0(a5)
80003564:	01391a63          	bne	s2,s3,80003578 <strcspn+0x5c>
80003568:	fff48713          	addi	a4,s1,-1
8000356c:	fdc42783          	lw	a5,-36(s0)
80003570:	40f707b3          	sub	a5,a4,a5
80003574:	00c0006f          	j	80003580 <strcspn+0x64>
80003578:	fe0910e3          	bnez	s2,80003558 <strcspn+0x3c>
8000357c:	fcdff06f          	j	80003548 <strcspn+0x2c>
80003580:	00078513          	mv	a0,a5
80003584:	02c12083          	lw	ra,44(sp)
80003588:	02812403          	lw	s0,40(sp)
8000358c:	02412483          	lw	s1,36(sp)
80003590:	02012903          	lw	s2,32(sp)
80003594:	01c12983          	lw	s3,28(sp)
80003598:	01812a03          	lw	s4,24(sp)
8000359c:	03010113          	addi	sp,sp,48
800035a0:	00008067          	ret

800035a4 <strnlen>:
800035a4:	fd010113          	addi	sp,sp,-48
800035a8:	02112623          	sw	ra,44(sp)
800035ac:	02812423          	sw	s0,40(sp)
800035b0:	03010413          	addi	s0,sp,48
800035b4:	fca42e23          	sw	a0,-36(s0)
800035b8:	fcb42c23          	sw	a1,-40(s0)
800035bc:	fe042623          	sw	zero,-20(s0)
800035c0:	0100006f          	j	800035d0 <strnlen+0x2c>
800035c4:	fec42783          	lw	a5,-20(s0)
800035c8:	00178793          	addi	a5,a5,1
800035cc:	fef42623          	sw	a5,-20(s0)
800035d0:	fdc42783          	lw	a5,-36(s0)
800035d4:	00178713          	addi	a4,a5,1
800035d8:	fce42e23          	sw	a4,-36(s0)
800035dc:	0007c783          	lbu	a5,0(a5)
800035e0:	00078863          	beqz	a5,800035f0 <strnlen+0x4c>
800035e4:	fec42703          	lw	a4,-20(s0)
800035e8:	fd842783          	lw	a5,-40(s0)
800035ec:	fcf74ce3          	blt	a4,a5,800035c4 <strnlen+0x20>
800035f0:	fec42783          	lw	a5,-20(s0)
800035f4:	00078513          	mv	a0,a5
800035f8:	02c12083          	lw	ra,44(sp)
800035fc:	02812403          	lw	s0,40(sp)
80003600:	03010113          	addi	sp,sp,48
80003604:	00008067          	ret

80003608 <strtok>:
80003608:	fd010113          	addi	sp,sp,-48
8000360c:	02112623          	sw	ra,44(sp)
80003610:	02812423          	sw	s0,40(sp)
80003614:	03010413          	addi	s0,sp,48
80003618:	fca42e23          	sw	a0,-36(s0)
8000361c:	fcb42c23          	sw	a1,-40(s0)
80003620:	fdc42783          	lw	a5,-36(s0)
80003624:	02079063          	bnez	a5,80003644 <strtok+0x3c>
80003628:	8000b7b7          	lui	a5,0x8000b
8000362c:	2147a783          	lw	a5,532(a5) # 8000b214 <last.0>
80003630:	fcf42e23          	sw	a5,-36(s0)
80003634:	fdc42783          	lw	a5,-36(s0)
80003638:	00079663          	bnez	a5,80003644 <strtok+0x3c>
8000363c:	00000793          	li	a5,0
80003640:	0f00006f          	j	80003730 <strtok+0x128>
80003644:	00000013          	nop
80003648:	fdc42783          	lw	a5,-36(s0)
8000364c:	00178713          	addi	a4,a5,1
80003650:	fce42e23          	sw	a4,-36(s0)
80003654:	0007c783          	lbu	a5,0(a5)
80003658:	fef42423          	sw	a5,-24(s0)
8000365c:	fd842783          	lw	a5,-40(s0)
80003660:	fef42623          	sw	a5,-20(s0)
80003664:	0140006f          	j	80003678 <strtok+0x70>
80003668:	fe842703          	lw	a4,-24(s0)
8000366c:	fe442783          	lw	a5,-28(s0)
80003670:	00f71463          	bne	a4,a5,80003678 <strtok+0x70>
80003674:	fd5ff06f          	j	80003648 <strtok+0x40>
80003678:	fec42783          	lw	a5,-20(s0)
8000367c:	00178713          	addi	a4,a5,1
80003680:	fee42623          	sw	a4,-20(s0)
80003684:	0007c783          	lbu	a5,0(a5)
80003688:	fef42223          	sw	a5,-28(s0)
8000368c:	fe442783          	lw	a5,-28(s0)
80003690:	fc079ce3          	bnez	a5,80003668 <strtok+0x60>
80003694:	fe842783          	lw	a5,-24(s0)
80003698:	00079a63          	bnez	a5,800036ac <strtok+0xa4>
8000369c:	8000b7b7          	lui	a5,0x8000b
800036a0:	2007aa23          	sw	zero,532(a5) # 8000b214 <last.0>
800036a4:	00000793          	li	a5,0
800036a8:	0880006f          	j	80003730 <strtok+0x128>
800036ac:	fdc42783          	lw	a5,-36(s0)
800036b0:	fff78793          	addi	a5,a5,-1
800036b4:	fef42023          	sw	a5,-32(s0)
800036b8:	fdc42783          	lw	a5,-36(s0)
800036bc:	00178713          	addi	a4,a5,1
800036c0:	fce42e23          	sw	a4,-36(s0)
800036c4:	0007c783          	lbu	a5,0(a5)
800036c8:	fef42423          	sw	a5,-24(s0)
800036cc:	fd842783          	lw	a5,-40(s0)
800036d0:	fef42623          	sw	a5,-20(s0)
800036d4:	fec42783          	lw	a5,-20(s0)
800036d8:	00178713          	addi	a4,a5,1
800036dc:	fee42623          	sw	a4,-20(s0)
800036e0:	0007c783          	lbu	a5,0(a5)
800036e4:	fef42223          	sw	a5,-28(s0)
800036e8:	fe442703          	lw	a4,-28(s0)
800036ec:	fe842783          	lw	a5,-24(s0)
800036f0:	02f71a63          	bne	a4,a5,80003724 <strtok+0x11c>
800036f4:	fe842783          	lw	a5,-24(s0)
800036f8:	00079663          	bnez	a5,80003704 <strtok+0xfc>
800036fc:	fc042e23          	sw	zero,-36(s0)
80003700:	0100006f          	j	80003710 <strtok+0x108>
80003704:	fdc42783          	lw	a5,-36(s0)
80003708:	fff78793          	addi	a5,a5,-1
8000370c:	00078023          	sb	zero,0(a5)
80003710:	8000b7b7          	lui	a5,0x8000b
80003714:	fdc42703          	lw	a4,-36(s0)
80003718:	20e7aa23          	sw	a4,532(a5) # 8000b214 <last.0>
8000371c:	fe042783          	lw	a5,-32(s0)
80003720:	0100006f          	j	80003730 <strtok+0x128>
80003724:	fe442783          	lw	a5,-28(s0)
80003728:	fa0796e3          	bnez	a5,800036d4 <strtok+0xcc>
8000372c:	f8dff06f          	j	800036b8 <strtok+0xb0>
80003730:	00078513          	mv	a0,a5
80003734:	02c12083          	lw	ra,44(sp)
80003738:	02812403          	lw	s0,40(sp)
8000373c:	03010113          	addi	sp,sp,48
80003740:	00008067          	ret

80003744 <strrchr>:
80003744:	fd010113          	addi	sp,sp,-48
80003748:	02112623          	sw	ra,44(sp)
8000374c:	02812423          	sw	s0,40(sp)
80003750:	03010413          	addi	s0,sp,48
80003754:	fca42e23          	sw	a0,-36(s0)
80003758:	fcb42c23          	sw	a1,-40(s0)
8000375c:	fe042623          	sw	zero,-20(s0)
80003760:	02c0006f          	j	8000378c <strrchr+0x48>
80003764:	fdc42783          	lw	a5,-36(s0)
80003768:	0007c703          	lbu	a4,0(a5)
8000376c:	fd842783          	lw	a5,-40(s0)
80003770:	0ff7f793          	zext.b	a5,a5
80003774:	00f71663          	bne	a4,a5,80003780 <strrchr+0x3c>
80003778:	fdc42783          	lw	a5,-36(s0)
8000377c:	fef42623          	sw	a5,-20(s0)
80003780:	fdc42783          	lw	a5,-36(s0)
80003784:	00178793          	addi	a5,a5,1
80003788:	fcf42e23          	sw	a5,-36(s0)
8000378c:	fdc42783          	lw	a5,-36(s0)
80003790:	0007c783          	lbu	a5,0(a5)
80003794:	fc0798e3          	bnez	a5,80003764 <strrchr+0x20>
80003798:	fd842783          	lw	a5,-40(s0)
8000379c:	0ff7f713          	zext.b	a4,a5
800037a0:	fdc42783          	lw	a5,-36(s0)
800037a4:	0007c783          	lbu	a5,0(a5)
800037a8:	00f71663          	bne	a4,a5,800037b4 <strrchr+0x70>
800037ac:	fdc42783          	lw	a5,-36(s0)
800037b0:	0080006f          	j	800037b8 <strrchr+0x74>
800037b4:	fec42783          	lw	a5,-20(s0)
800037b8:	00078513          	mv	a0,a5
800037bc:	02c12083          	lw	ra,44(sp)
800037c0:	02812403          	lw	s0,40(sp)
800037c4:	03010113          	addi	sp,sp,48
800037c8:	00008067          	ret

800037cc <labs>:
800037cc:	fe010113          	addi	sp,sp,-32
800037d0:	00112e23          	sw	ra,28(sp)
800037d4:	00812c23          	sw	s0,24(sp)
800037d8:	02010413          	addi	s0,sp,32
800037dc:	fea42623          	sw	a0,-20(s0)
800037e0:	fec42783          	lw	a5,-20(s0)
800037e4:	0007d863          	bgez	a5,800037f4 <labs+0x28>
800037e8:	fec42783          	lw	a5,-20(s0)
800037ec:	40f007b3          	neg	a5,a5
800037f0:	fef42623          	sw	a5,-20(s0)
800037f4:	fec42783          	lw	a5,-20(s0)
800037f8:	00078513          	mv	a0,a5
800037fc:	01c12083          	lw	ra,28(sp)
80003800:	01812403          	lw	s0,24(sp)
80003804:	02010113          	addi	sp,sp,32
80003808:	00008067          	ret

8000380c <abs>:
8000380c:	fe010113          	addi	sp,sp,-32
80003810:	00112e23          	sw	ra,28(sp)
80003814:	00812c23          	sw	s0,24(sp)
80003818:	02010413          	addi	s0,sp,32
8000381c:	fea42623          	sw	a0,-20(s0)
80003820:	fec42783          	lw	a5,-20(s0)
80003824:	41f7d713          	srai	a4,a5,0x1f
80003828:	fec42783          	lw	a5,-20(s0)
8000382c:	00f747b3          	xor	a5,a4,a5
80003830:	40e787b3          	sub	a5,a5,a4
80003834:	00078513          	mv	a0,a5
80003838:	01c12083          	lw	ra,28(sp)
8000383c:	01812403          	lw	s0,24(sp)
80003840:	02010113          	addi	sp,sp,32
80003844:	00008067          	ret

80003848 <strndup>:
80003848:	fd010113          	addi	sp,sp,-48
8000384c:	02112623          	sw	ra,44(sp)
80003850:	02812423          	sw	s0,40(sp)
80003854:	03010413          	addi	s0,sp,48
80003858:	fca42e23          	sw	a0,-36(s0)
8000385c:	fcb42c23          	sw	a1,-40(s0)
80003860:	fd842583          	lw	a1,-40(s0)
80003864:	fdc42503          	lw	a0,-36(s0)
80003868:	d3dff0ef          	jal	800035a4 <strnlen>
8000386c:	fea42623          	sw	a0,-20(s0)
80003870:	fec42783          	lw	a5,-20(s0)
80003874:	00178793          	addi	a5,a5,1
80003878:	00078513          	mv	a0,a5
8000387c:	0c9000ef          	jal	80004144 <malloc>
80003880:	fea42423          	sw	a0,-24(s0)
80003884:	fe842783          	lw	a5,-24(s0)
80003888:	00079663          	bnez	a5,80003894 <strndup+0x4c>
8000388c:	00000793          	li	a5,0
80003890:	0280006f          	j	800038b8 <strndup+0x70>
80003894:	fec42603          	lw	a2,-20(s0)
80003898:	fdc42583          	lw	a1,-36(s0)
8000389c:	fe842503          	lw	a0,-24(s0)
800038a0:	875ff0ef          	jal	80003114 <strncpy>
800038a4:	fec42783          	lw	a5,-20(s0)
800038a8:	fe842703          	lw	a4,-24(s0)
800038ac:	00f707b3          	add	a5,a4,a5
800038b0:	00078023          	sb	zero,0(a5)
800038b4:	fe842783          	lw	a5,-24(s0)
800038b8:	00078513          	mv	a0,a5
800038bc:	02c12083          	lw	ra,44(sp)
800038c0:	02812403          	lw	s0,40(sp)
800038c4:	03010113          	addi	sp,sp,48
800038c8:	00008067          	ret

800038cc <strdup>:
800038cc:	fe010113          	addi	sp,sp,-32
800038d0:	00112e23          	sw	ra,28(sp)
800038d4:	00812c23          	sw	s0,24(sp)
800038d8:	02010413          	addi	s0,sp,32
800038dc:	fea42623          	sw	a0,-20(s0)
800038e0:	fec42503          	lw	a0,-20(s0)
800038e4:	da4ff0ef          	jal	80002e88 <strlen>
800038e8:	00050793          	mv	a5,a0
800038ec:	00078593          	mv	a1,a5
800038f0:	fec42503          	lw	a0,-20(s0)
800038f4:	f55ff0ef          	jal	80003848 <strndup>
800038f8:	00050793          	mv	a5,a0
800038fc:	00078513          	mv	a0,a5
80003900:	01c12083          	lw	ra,28(sp)
80003904:	01812403          	lw	s0,24(sp)
80003908:	02010113          	addi	sp,sp,32
8000390c:	00008067          	ret

80003910 <atol>:
80003910:	fd010113          	addi	sp,sp,-48
80003914:	02112623          	sw	ra,44(sp)
80003918:	02812423          	sw	s0,40(sp)
8000391c:	03010413          	addi	s0,sp,48
80003920:	fca42e23          	sw	a0,-36(s0)
80003924:	fe042623          	sw	zero,-20(s0)
80003928:	fe042423          	sw	zero,-24(s0)
8000392c:	fdc42783          	lw	a5,-36(s0)
80003930:	0007c783          	lbu	a5,0(a5)
80003934:	02d00713          	li	a4,45
80003938:	02e78863          	beq	a5,a4,80003968 <atol+0x58>
8000393c:	02d00713          	li	a4,45
80003940:	04f74c63          	blt	a4,a5,80003998 <atol+0x88>
80003944:	02b00713          	li	a4,43
80003948:	02e78663          	beq	a5,a4,80003974 <atol+0x64>
8000394c:	02b00713          	li	a4,43
80003950:	04f74463          	blt	a4,a5,80003998 <atol+0x88>
80003954:	00900713          	li	a4,9
80003958:	02e78663          	beq	a5,a4,80003984 <atol+0x74>
8000395c:	02000713          	li	a4,32
80003960:	02e79c63          	bne	a5,a4,80003998 <atol+0x88>
80003964:	0200006f          	j	80003984 <atol+0x74>
80003968:	fe842783          	lw	a5,-24(s0)
8000396c:	00178793          	addi	a5,a5,1
80003970:	fef42423          	sw	a5,-24(s0)
80003974:	fdc42783          	lw	a5,-36(s0)
80003978:	00178793          	addi	a5,a5,1
8000397c:	fcf42e23          	sw	a5,-36(s0)
80003980:	0180006f          	j	80003998 <atol+0x88>
80003984:	00000013          	nop
80003988:	fdc42783          	lw	a5,-36(s0)
8000398c:	00178793          	addi	a5,a5,1
80003990:	fcf42e23          	sw	a5,-36(s0)
80003994:	f99ff06f          	j	8000392c <atol+0x1c>
80003998:	00000013          	nop
8000399c:	0380006f          	j	800039d4 <atol+0xc4>
800039a0:	fec42703          	lw	a4,-20(s0)
800039a4:	00070793          	mv	a5,a4
800039a8:	00279793          	slli	a5,a5,0x2
800039ac:	00e787b3          	add	a5,a5,a4
800039b0:	00179793          	slli	a5,a5,0x1
800039b4:	00078693          	mv	a3,a5
800039b8:	fdc42783          	lw	a5,-36(s0)
800039bc:	00178713          	addi	a4,a5,1
800039c0:	fce42e23          	sw	a4,-36(s0)
800039c4:	0007c783          	lbu	a5,0(a5)
800039c8:	00f687b3          	add	a5,a3,a5
800039cc:	fd078793          	addi	a5,a5,-48
800039d0:	fef42623          	sw	a5,-20(s0)
800039d4:	fdc42783          	lw	a5,-36(s0)
800039d8:	0007c703          	lbu	a4,0(a5)
800039dc:	02f00793          	li	a5,47
800039e0:	00e7fa63          	bgeu	a5,a4,800039f4 <atol+0xe4>
800039e4:	fdc42783          	lw	a5,-36(s0)
800039e8:	0007c703          	lbu	a4,0(a5)
800039ec:	03900793          	li	a5,57
800039f0:	fae7f8e3          	bgeu	a5,a4,800039a0 <atol+0x90>
800039f4:	fe842783          	lw	a5,-24(s0)
800039f8:	00078863          	beqz	a5,80003a08 <atol+0xf8>
800039fc:	fec42783          	lw	a5,-20(s0)
80003a00:	40f007b3          	neg	a5,a5
80003a04:	0080006f          	j	80003a0c <atol+0xfc>
80003a08:	fec42783          	lw	a5,-20(s0)
80003a0c:	00078513          	mv	a0,a5
80003a10:	02c12083          	lw	ra,44(sp)
80003a14:	02812403          	lw	s0,40(sp)
80003a18:	03010113          	addi	sp,sp,48
80003a1c:	00008067          	ret

80003a20 <atoi>:
80003a20:	fd010113          	addi	sp,sp,-48
80003a24:	02112623          	sw	ra,44(sp)
80003a28:	02812423          	sw	s0,40(sp)
80003a2c:	03010413          	addi	s0,sp,48
80003a30:	fca42e23          	sw	a0,-36(s0)
80003a34:	fe042623          	sw	zero,-20(s0)
80003a38:	fe042423          	sw	zero,-24(s0)
80003a3c:	fe042223          	sw	zero,-28(s0)
80003a40:	0100006f          	j	80003a50 <atoi+0x30>
80003a44:	fe442783          	lw	a5,-28(s0)
80003a48:	00178793          	addi	a5,a5,1
80003a4c:	fef42223          	sw	a5,-28(s0)
80003a50:	fe442783          	lw	a5,-28(s0)
80003a54:	fdc42703          	lw	a4,-36(s0)
80003a58:	00f707b3          	add	a5,a4,a5
80003a5c:	0007c703          	lbu	a4,0(a5)
80003a60:	800097b7          	lui	a5,0x80009
80003a64:	de478593          	addi	a1,a5,-540 # 80008de4 <_srodata+0xde4>
80003a68:	00070513          	mv	a0,a4
80003a6c:	f48ff0ef          	jal	800031b4 <chrnlst>
80003a70:	00050793          	mv	a5,a0
80003a74:	fc0798e3          	bnez	a5,80003a44 <atoi+0x24>
80003a78:	fe442783          	lw	a5,-28(s0)
80003a7c:	fdc42703          	lw	a4,-36(s0)
80003a80:	00f707b3          	add	a5,a4,a5
80003a84:	0007c703          	lbu	a4,0(a5)
80003a88:	02d00793          	li	a5,45
80003a8c:	00f71e63          	bne	a4,a5,80003aa8 <atoi+0x88>
80003a90:	00100793          	li	a5,1
80003a94:	fef42423          	sw	a5,-24(s0)
80003a98:	fe442783          	lw	a5,-28(s0)
80003a9c:	00178793          	addi	a5,a5,1
80003aa0:	fef42223          	sw	a5,-28(s0)
80003aa4:	0700006f          	j	80003b14 <atoi+0xf4>
80003aa8:	fe442783          	lw	a5,-28(s0)
80003aac:	fdc42703          	lw	a4,-36(s0)
80003ab0:	00f707b3          	add	a5,a4,a5
80003ab4:	0007c703          	lbu	a4,0(a5)
80003ab8:	02b00793          	li	a5,43
80003abc:	04f71c63          	bne	a4,a5,80003b14 <atoi+0xf4>
80003ac0:	fe442783          	lw	a5,-28(s0)
80003ac4:	00178793          	addi	a5,a5,1
80003ac8:	fef42223          	sw	a5,-28(s0)
80003acc:	0480006f          	j	80003b14 <atoi+0xf4>
80003ad0:	fec42703          	lw	a4,-20(s0)
80003ad4:	00070793          	mv	a5,a4
80003ad8:	00279793          	slli	a5,a5,0x2
80003adc:	00e787b3          	add	a5,a5,a4
80003ae0:	00179793          	slli	a5,a5,0x1
80003ae4:	fef42623          	sw	a5,-20(s0)
80003ae8:	fe442783          	lw	a5,-28(s0)
80003aec:	fdc42703          	lw	a4,-36(s0)
80003af0:	00f707b3          	add	a5,a4,a5
80003af4:	0007c783          	lbu	a5,0(a5)
80003af8:	fd078793          	addi	a5,a5,-48
80003afc:	fec42703          	lw	a4,-20(s0)
80003b00:	00f707b3          	add	a5,a4,a5
80003b04:	fef42623          	sw	a5,-20(s0)
80003b08:	fe442783          	lw	a5,-28(s0)
80003b0c:	00178793          	addi	a5,a5,1
80003b10:	fef42223          	sw	a5,-28(s0)
80003b14:	fe442783          	lw	a5,-28(s0)
80003b18:	fdc42703          	lw	a4,-36(s0)
80003b1c:	00f707b3          	add	a5,a4,a5
80003b20:	0007c703          	lbu	a4,0(a5)
80003b24:	02f00793          	li	a5,47
80003b28:	00e7fe63          	bgeu	a5,a4,80003b44 <atoi+0x124>
80003b2c:	fe442783          	lw	a5,-28(s0)
80003b30:	fdc42703          	lw	a4,-36(s0)
80003b34:	00f707b3          	add	a5,a4,a5
80003b38:	0007c703          	lbu	a4,0(a5)
80003b3c:	03900793          	li	a5,57
80003b40:	f8e7f8e3          	bgeu	a5,a4,80003ad0 <atoi+0xb0>
80003b44:	fe842783          	lw	a5,-24(s0)
80003b48:	00078663          	beqz	a5,80003b54 <atoi+0x134>
80003b4c:	fff00793          	li	a5,-1
80003b50:	0080006f          	j	80003b58 <atoi+0x138>
80003b54:	00100793          	li	a5,1
80003b58:	fec42583          	lw	a1,-20(s0)
80003b5c:	00078513          	mv	a0,a5
80003b60:	31c040ef          	jal	80007e7c <__mulsi3>
80003b64:	00050793          	mv	a5,a0
80003b68:	00078513          	mv	a0,a5
80003b6c:	02c12083          	lw	ra,44(sp)
80003b70:	02812403          	lw	s0,40(sp)
80003b74:	03010113          	addi	sp,sp,48
80003b78:	00008067          	ret

80003b7c <int_abs>:
80003b7c:	fe010113          	addi	sp,sp,-32
80003b80:	00112e23          	sw	ra,28(sp)
80003b84:	00812c23          	sw	s0,24(sp)
80003b88:	02010413          	addi	s0,sp,32
80003b8c:	fea42623          	sw	a0,-20(s0)
80003b90:	fec42783          	lw	a5,-20(s0)
80003b94:	00f05663          	blez	a5,80003ba0 <int_abs+0x24>
80003b98:	fec42783          	lw	a5,-20(s0)
80003b9c:	00c0006f          	j	80003ba8 <int_abs+0x2c>
80003ba0:	fec42783          	lw	a5,-20(s0)
80003ba4:	40f007b3          	neg	a5,a5
80003ba8:	00078513          	mv	a0,a5
80003bac:	01c12083          	lw	ra,28(sp)
80003bb0:	01812403          	lw	s0,24(sp)
80003bb4:	02010113          	addi	sp,sp,32
80003bb8:	00008067          	ret

80003bbc <itoa>:
80003bbc:	fd010113          	addi	sp,sp,-48
80003bc0:	02112623          	sw	ra,44(sp)
80003bc4:	02812423          	sw	s0,40(sp)
80003bc8:	03010413          	addi	s0,sp,48
80003bcc:	fca42e23          	sw	a0,-36(s0)
80003bd0:	fcb42c23          	sw	a1,-40(s0)
80003bd4:	fcc42a23          	sw	a2,-44(s0)
80003bd8:	fcd42823          	sw	a3,-48(s0)
80003bdc:	fe042623          	sw	zero,-20(s0)
80003be0:	fd442783          	lw	a5,-44(s0)
80003be4:	00079663          	bnez	a5,80003bf0 <itoa+0x34>
80003be8:	00000793          	li	a5,0
80003bec:	08c0006f          	j	80003c78 <itoa+0xbc>
80003bf0:	fd042703          	lw	a4,-48(s0)
80003bf4:	00100793          	li	a5,1
80003bf8:	00e7f863          	bgeu	a5,a4,80003c08 <itoa+0x4c>
80003bfc:	fd042703          	lw	a4,-48(s0)
80003c00:	02400793          	li	a5,36
80003c04:	00e7f663          	bgeu	a5,a4,80003c10 <itoa+0x54>
80003c08:	00000793          	li	a5,0
80003c0c:	06c0006f          	j	80003c78 <itoa+0xbc>
80003c10:	fdc42783          	lw	a5,-36(s0)
80003c14:	0207d863          	bgez	a5,80003c44 <itoa+0x88>
80003c18:	fec42783          	lw	a5,-20(s0)
80003c1c:	00178713          	addi	a4,a5,1
80003c20:	fee42623          	sw	a4,-20(s0)
80003c24:	00078713          	mv	a4,a5
80003c28:	fd842783          	lw	a5,-40(s0)
80003c2c:	00e787b3          	add	a5,a5,a4
80003c30:	02d00713          	li	a4,45
80003c34:	00e78023          	sb	a4,0(a5)
80003c38:	fd442783          	lw	a5,-44(s0)
80003c3c:	fff78793          	addi	a5,a5,-1
80003c40:	fcf42a23          	sw	a5,-44(s0)
80003c44:	fdc42503          	lw	a0,-36(s0)
80003c48:	f35ff0ef          	jal	80003b7c <int_abs>
80003c4c:	00050793          	mv	a5,a0
80003c50:	fcf42e23          	sw	a5,-36(s0)
80003c54:	fdc42503          	lw	a0,-36(s0)
80003c58:	fec42783          	lw	a5,-20(s0)
80003c5c:	fd842703          	lw	a4,-40(s0)
80003c60:	00f707b3          	add	a5,a4,a5
80003c64:	fd042683          	lw	a3,-48(s0)
80003c68:	fd442603          	lw	a2,-44(s0)
80003c6c:	00078593          	mv	a1,a5
80003c70:	01c000ef          	jal	80003c8c <uitoa>
80003c74:	00050793          	mv	a5,a0
80003c78:	00078513          	mv	a0,a5
80003c7c:	02c12083          	lw	ra,44(sp)
80003c80:	02812403          	lw	s0,40(sp)
80003c84:	03010113          	addi	sp,sp,48
80003c88:	00008067          	ret

80003c8c <uitoa>:
80003c8c:	fb010113          	addi	sp,sp,-80
80003c90:	04112623          	sw	ra,76(sp)
80003c94:	04812423          	sw	s0,72(sp)
80003c98:	05010413          	addi	s0,sp,80
80003c9c:	faa42e23          	sw	a0,-68(s0)
80003ca0:	fab42c23          	sw	a1,-72(s0)
80003ca4:	fac42a23          	sw	a2,-76(s0)
80003ca8:	fad42823          	sw	a3,-80(s0)
80003cac:	800097b7          	lui	a5,0x80009
80003cb0:	dec78793          	addi	a5,a5,-532 # 80008dec <_srodata+0xdec>
80003cb4:	0007a303          	lw	t1,0(a5)
80003cb8:	0047a883          	lw	a7,4(a5)
80003cbc:	0087a803          	lw	a6,8(a5)
80003cc0:	00c7a503          	lw	a0,12(a5)
80003cc4:	0107a583          	lw	a1,16(a5)
80003cc8:	0147a603          	lw	a2,20(a5)
80003ccc:	0187a683          	lw	a3,24(a5)
80003cd0:	01c7a703          	lw	a4,28(a5)
80003cd4:	0207a783          	lw	a5,32(a5)
80003cd8:	fc642423          	sw	t1,-56(s0)
80003cdc:	fd142623          	sw	a7,-52(s0)
80003ce0:	fd042823          	sw	a6,-48(s0)
80003ce4:	fca42a23          	sw	a0,-44(s0)
80003ce8:	fcb42c23          	sw	a1,-40(s0)
80003cec:	fcc42e23          	sw	a2,-36(s0)
80003cf0:	fed42023          	sw	a3,-32(s0)
80003cf4:	fee42223          	sw	a4,-28(s0)
80003cf8:	fef42423          	sw	a5,-24(s0)
80003cfc:	fe042623          	sw	zero,-20(s0)
80003d00:	fb442783          	lw	a5,-76(s0)
80003d04:	00079663          	bnez	a5,80003d10 <uitoa+0x84>
80003d08:	00000793          	li	a5,0
80003d0c:	0c00006f          	j	80003dcc <uitoa+0x140>
80003d10:	fb042703          	lw	a4,-80(s0)
80003d14:	00100793          	li	a5,1
80003d18:	00e7f863          	bgeu	a5,a4,80003d28 <uitoa+0x9c>
80003d1c:	fb042703          	lw	a4,-80(s0)
80003d20:	02400793          	li	a5,36
80003d24:	00e7f663          	bgeu	a5,a4,80003d30 <uitoa+0xa4>
80003d28:	00000793          	li	a5,0
80003d2c:	0a00006f          	j	80003dcc <uitoa+0x140>
80003d30:	fbc42783          	lw	a5,-68(s0)
80003d34:	fb042583          	lw	a1,-80(s0)
80003d38:	00078513          	mv	a0,a5
80003d3c:	1b4040ef          	jal	80007ef0 <__umodsi3>
80003d40:	00050793          	mv	a5,a0
80003d44:	00078693          	mv	a3,a5
80003d48:	fec42783          	lw	a5,-20(s0)
80003d4c:	00178713          	addi	a4,a5,1
80003d50:	fee42623          	sw	a4,-20(s0)
80003d54:	00078713          	mv	a4,a5
80003d58:	fb842783          	lw	a5,-72(s0)
80003d5c:	00e787b3          	add	a5,a5,a4
80003d60:	ff068713          	addi	a4,a3,-16
80003d64:	00870733          	add	a4,a4,s0
80003d68:	fd874703          	lbu	a4,-40(a4)
80003d6c:	00e78023          	sb	a4,0(a5)
80003d70:	fb442783          	lw	a5,-76(s0)
80003d74:	fff78793          	addi	a5,a5,-1
80003d78:	faf42a23          	sw	a5,-76(s0)
80003d7c:	fb442783          	lw	a5,-76(s0)
80003d80:	02078063          	beqz	a5,80003da0 <uitoa+0x114>
80003d84:	fb042583          	lw	a1,-80(s0)
80003d88:	fbc42503          	lw	a0,-68(s0)
80003d8c:	11c040ef          	jal	80007ea8 <__hidden___udivsi3>
80003d90:	00050793          	mv	a5,a0
80003d94:	faf42e23          	sw	a5,-68(s0)
80003d98:	fbc42783          	lw	a5,-68(s0)
80003d9c:	f8079ae3          	bnez	a5,80003d30 <uitoa+0xa4>
80003da0:	fb442783          	lw	a5,-76(s0)
80003da4:	00079663          	bnez	a5,80003db0 <uitoa+0x124>
80003da8:	00000793          	li	a5,0
80003dac:	0200006f          	j	80003dcc <uitoa+0x140>
80003db0:	fec42783          	lw	a5,-20(s0)
80003db4:	fb842703          	lw	a4,-72(s0)
80003db8:	00f707b3          	add	a5,a4,a5
80003dbc:	00078023          	sb	zero,0(a5)
80003dc0:	fb842503          	lw	a0,-72(s0)
80003dc4:	918ff0ef          	jal	80002edc <strreverse>
80003dc8:	fb842783          	lw	a5,-72(s0)
80003dcc:	00078513          	mv	a0,a5
80003dd0:	04c12083          	lw	ra,76(sp)
80003dd4:	04812403          	lw	s0,72(sp)
80003dd8:	05010113          	addi	sp,sp,80
80003ddc:	00008067          	ret

80003de0 <ftoa>:
80003de0:	fb010113          	addi	sp,sp,-80
80003de4:	04112623          	sw	ra,76(sp)
80003de8:	04812423          	sw	s0,72(sp)
80003dec:	05010413          	addi	s0,sp,80
80003df0:	faa42e23          	sw	a0,-68(s0)
80003df4:	fab42c23          	sw	a1,-72(s0)
80003df8:	fac42a23          	sw	a2,-76(s0)
80003dfc:	fad42823          	sw	a3,-80(s0)
80003e00:	fb442783          	lw	a5,-76(s0)
80003e04:	00078863          	beqz	a5,80003e14 <ftoa+0x34>
80003e08:	fb042703          	lw	a4,-80(s0)
80003e0c:	00900793          	li	a5,9
80003e10:	00e7e663          	bltu	a5,a4,80003e1c <ftoa+0x3c>
80003e14:	00000793          	li	a5,0
80003e18:	2ac0006f          	j	800040c4 <ftoa+0x2e4>
80003e1c:	fb842783          	lw	a5,-72(s0)
80003e20:	0007d463          	bgez	a5,80003e28 <ftoa+0x48>
80003e24:	fa042c23          	sw	zero,-72(s0)
80003e28:	fb842703          	lw	a4,-72(s0)
80003e2c:	00600793          	li	a5,6
80003e30:	00e7d663          	bge	a5,a4,80003e3c <ftoa+0x5c>
80003e34:	00600793          	li	a5,6
80003e38:	faf42c23          	sw	a5,-72(s0)
80003e3c:	fb442783          	lw	a5,-76(s0)
80003e40:	fef42623          	sw	a5,-20(s0)
80003e44:	00000593          	li	a1,0
80003e48:	fbc42503          	lw	a0,-68(s0)
80003e4c:	711020ef          	jal	80006d5c <__lesf2>
80003e50:	00050793          	mv	a5,a0
80003e54:	0207d463          	bgez	a5,80003e7c <ftoa+0x9c>
80003e58:	fec42783          	lw	a5,-20(s0)
80003e5c:	00178713          	addi	a4,a5,1
80003e60:	fee42623          	sw	a4,-20(s0)
80003e64:	02d00713          	li	a4,45
80003e68:	00e78023          	sb	a4,0(a5)
80003e6c:	fbc42703          	lw	a4,-68(s0)
80003e70:	800007b7          	lui	a5,0x80000
80003e74:	00f747b3          	xor	a5,a4,a5
80003e78:	faf42e23          	sw	a5,-68(s0)
80003e7c:	fbc42503          	lw	a0,-68(s0)
80003e80:	24d030ef          	jal	800078cc <__fixunssfsi>
80003e84:	00050793          	mv	a5,a0
80003e88:	fef42223          	sw	a5,-28(s0)
80003e8c:	fe442503          	lw	a0,-28(s0)
80003e90:	3d5030ef          	jal	80007a64 <__floatunsisf>
80003e94:	00050793          	mv	a5,a0
80003e98:	00078593          	mv	a1,a5
80003e9c:	fbc42503          	lw	a0,-68(s0)
80003ea0:	3a8030ef          	jal	80007248 <__subsf3>
80003ea4:	00050793          	mv	a5,a0
80003ea8:	fcf42a23          	sw	a5,-44(s0)
80003eac:	fe042023          	sw	zero,-32(s0)
80003eb0:	fe442783          	lw	a5,-28(s0)
80003eb4:	06079a63          	bnez	a5,80003f28 <ftoa+0x148>
80003eb8:	fe042783          	lw	a5,-32(s0)
80003ebc:	00178713          	addi	a4,a5,1 # 80000001 <_start+0x1>
80003ec0:	fee42023          	sw	a4,-32(s0)
80003ec4:	ff078793          	addi	a5,a5,-16
80003ec8:	008787b3          	add	a5,a5,s0
80003ecc:	03000713          	li	a4,48
80003ed0:	fce78c23          	sb	a4,-40(a5)
80003ed4:	05c0006f          	j	80003f30 <ftoa+0x150>
80003ed8:	fe442783          	lw	a5,-28(s0)
80003edc:	00a00593          	li	a1,10
80003ee0:	00078513          	mv	a0,a5
80003ee4:	00c040ef          	jal	80007ef0 <__umodsi3>
80003ee8:	00050793          	mv	a5,a0
80003eec:	0ff7f713          	zext.b	a4,a5
80003ef0:	fe042783          	lw	a5,-32(s0)
80003ef4:	00178693          	addi	a3,a5,1
80003ef8:	fed42023          	sw	a3,-32(s0)
80003efc:	03070713          	addi	a4,a4,48
80003f00:	0ff77713          	zext.b	a4,a4
80003f04:	ff078793          	addi	a5,a5,-16
80003f08:	008787b3          	add	a5,a5,s0
80003f0c:	fce78c23          	sb	a4,-40(a5)
80003f10:	fe442783          	lw	a5,-28(s0)
80003f14:	00a00593          	li	a1,10
80003f18:	00078513          	mv	a0,a5
80003f1c:	78d030ef          	jal	80007ea8 <__hidden___udivsi3>
80003f20:	00050793          	mv	a5,a0
80003f24:	fef42223          	sw	a5,-28(s0)
80003f28:	fe442783          	lw	a5,-28(s0)
80003f2c:	fa0796e3          	bnez	a5,80003ed8 <ftoa+0xf8>
80003f30:	fe042783          	lw	a5,-32(s0)
80003f34:	fff78793          	addi	a5,a5,-1
80003f38:	fef42423          	sw	a5,-24(s0)
80003f3c:	0480006f          	j	80003f84 <ftoa+0x1a4>
80003f40:	fec42703          	lw	a4,-20(s0)
80003f44:	fb442783          	lw	a5,-76(s0)
80003f48:	40f70733          	sub	a4,a4,a5
80003f4c:	fb042783          	lw	a5,-80(s0)
80003f50:	fff78793          	addi	a5,a5,-1
80003f54:	02f75e63          	bge	a4,a5,80003f90 <ftoa+0x1b0>
80003f58:	fec42783          	lw	a5,-20(s0)
80003f5c:	00178713          	addi	a4,a5,1
80003f60:	fee42623          	sw	a4,-20(s0)
80003f64:	fe842703          	lw	a4,-24(s0)
80003f68:	ff070713          	addi	a4,a4,-16
80003f6c:	00870733          	add	a4,a4,s0
80003f70:	fd874703          	lbu	a4,-40(a4)
80003f74:	00e78023          	sb	a4,0(a5)
80003f78:	fe842783          	lw	a5,-24(s0)
80003f7c:	fff78793          	addi	a5,a5,-1
80003f80:	fef42423          	sw	a5,-24(s0)
80003f84:	fe842783          	lw	a5,-24(s0)
80003f88:	fa07dce3          	bgez	a5,80003f40 <ftoa+0x160>
80003f8c:	0080006f          	j	80003f94 <ftoa+0x1b4>
80003f90:	00000013          	nop
80003f94:	fb842783          	lw	a5,-72(s0)
80003f98:	0ef05c63          	blez	a5,80004090 <ftoa+0x2b0>
80003f9c:	fec42703          	lw	a4,-20(s0)
80003fa0:	fb442783          	lw	a5,-76(s0)
80003fa4:	40f70733          	sub	a4,a4,a5
80003fa8:	fb042783          	lw	a5,-80(s0)
80003fac:	fff78793          	addi	a5,a5,-1
80003fb0:	0ef75063          	bge	a4,a5,80004090 <ftoa+0x2b0>
80003fb4:	fec42783          	lw	a5,-20(s0)
80003fb8:	00178713          	addi	a4,a5,1
80003fbc:	fee42623          	sw	a4,-20(s0)
80003fc0:	02e00713          	li	a4,46
80003fc4:	00e78023          	sb	a4,0(a5)
80003fc8:	800097b7          	lui	a5,0x80009
80003fcc:	e107a583          	lw	a1,-496(a5) # 80008e10 <_srodata+0xe10>
80003fd0:	fd442503          	lw	a0,-44(s0)
80003fd4:	65d020ef          	jal	80006e30 <__mulsf3>
80003fd8:	00050793          	mv	a5,a0
80003fdc:	00078713          	mv	a4,a5
80003fe0:	800097b7          	lui	a5,0x80009
80003fe4:	e147a583          	lw	a1,-492(a5) # 80008e14 <_srodata+0xe14>
80003fe8:	00070513          	mv	a0,a4
80003fec:	358020ef          	jal	80006344 <__addsf3>
80003ff0:	00050793          	mv	a5,a0
80003ff4:	00078513          	mv	a0,a5
80003ff8:	0d5030ef          	jal	800078cc <__fixunssfsi>
80003ffc:	00050793          	mv	a5,a0
80004000:	fcf42e23          	sw	a5,-36(s0)
80004004:	fc042c23          	sw	zero,-40(s0)
80004008:	07c0006f          	j	80004084 <ftoa+0x2a4>
8000400c:	fd842703          	lw	a4,-40(s0)
80004010:	00500793          	li	a5,5
80004014:	06e7c263          	blt	a5,a4,80004078 <ftoa+0x298>
80004018:	fec42703          	lw	a4,-20(s0)
8000401c:	fb442783          	lw	a5,-76(s0)
80004020:	40f70733          	sub	a4,a4,a5
80004024:	fb042783          	lw	a5,-80(s0)
80004028:	fff78793          	addi	a5,a5,-1
8000402c:	04f75663          	bge	a4,a5,80004078 <ftoa+0x298>
80004030:	fdc42783          	lw	a5,-36(s0)
80004034:	00a00593          	li	a1,10
80004038:	00078513          	mv	a0,a5
8000403c:	66d030ef          	jal	80007ea8 <__hidden___udivsi3>
80004040:	00050793          	mv	a5,a0
80004044:	fcf42e23          	sw	a5,-36(s0)
80004048:	fdc42783          	lw	a5,-36(s0)
8000404c:	00a00593          	li	a1,10
80004050:	00078513          	mv	a0,a5
80004054:	69d030ef          	jal	80007ef0 <__umodsi3>
80004058:	00050793          	mv	a5,a0
8000405c:	0ff7f713          	zext.b	a4,a5
80004060:	fec42783          	lw	a5,-20(s0)
80004064:	00178693          	addi	a3,a5,1
80004068:	fed42623          	sw	a3,-20(s0)
8000406c:	03070713          	addi	a4,a4,48
80004070:	0ff77713          	zext.b	a4,a4
80004074:	00e78023          	sb	a4,0(a5)
80004078:	fd842783          	lw	a5,-40(s0)
8000407c:	00178793          	addi	a5,a5,1
80004080:	fcf42c23          	sw	a5,-40(s0)
80004084:	fd842703          	lw	a4,-40(s0)
80004088:	fb842783          	lw	a5,-72(s0)
8000408c:	f8f740e3          	blt	a4,a5,8000400c <ftoa+0x22c>
80004090:	fec42703          	lw	a4,-20(s0)
80004094:	fb442783          	lw	a5,-76(s0)
80004098:	40f70733          	sub	a4,a4,a5
8000409c:	fb042783          	lw	a5,-80(s0)
800040a0:	00f74c63          	blt	a4,a5,800040b8 <ftoa+0x2d8>
800040a4:	fb042783          	lw	a5,-80(s0)
800040a8:	fff78793          	addi	a5,a5,-1
800040ac:	fb442703          	lw	a4,-76(s0)
800040b0:	00f707b3          	add	a5,a4,a5
800040b4:	fef42623          	sw	a5,-20(s0)
800040b8:	fec42783          	lw	a5,-20(s0)
800040bc:	00078023          	sb	zero,0(a5)
800040c0:	fb442783          	lw	a5,-76(s0)
800040c4:	00078513          	mv	a0,a5
800040c8:	04c12083          	lw	ra,76(sp)
800040cc:	04812403          	lw	s0,72(sp)
800040d0:	05010113          	addi	sp,sp,80
800040d4:	00008067          	ret

800040d8 <bzero>:
800040d8:	fd010113          	addi	sp,sp,-48
800040dc:	02112623          	sw	ra,44(sp)
800040e0:	02812423          	sw	s0,40(sp)
800040e4:	03010413          	addi	s0,sp,48
800040e8:	fca42e23          	sw	a0,-36(s0)
800040ec:	fcb42c23          	sw	a1,-40(s0)
800040f0:	fdc42783          	lw	a5,-36(s0)
800040f4:	fef42423          	sw	a5,-24(s0)
800040f8:	fd842783          	lw	a5,-40(s0)
800040fc:	fef42623          	sw	a5,-20(s0)
80004100:	fec42783          	lw	a5,-20(s0)
80004104:	02f05663          	blez	a5,80004130 <bzero+0x58>
80004108:	fe842783          	lw	a5,-24(s0)
8000410c:	00178713          	addi	a4,a5,1
80004110:	fee42423          	sw	a4,-24(s0)
80004114:	00078023          	sb	zero,0(a5)
80004118:	fec42783          	lw	a5,-20(s0)
8000411c:	fff78793          	addi	a5,a5,-1
80004120:	fef42623          	sw	a5,-20(s0)
80004124:	fec42783          	lw	a5,-20(s0)
80004128:	fe0790e3          	bnez	a5,80004108 <bzero+0x30>
8000412c:	0080006f          	j	80004134 <bzero+0x5c>
80004130:	00000013          	nop
80004134:	02c12083          	lw	ra,44(sp)
80004138:	02812403          	lw	s0,40(sp)
8000413c:	03010113          	addi	sp,sp,48
80004140:	00008067          	ret

80004144 <malloc>:
80004144:	fd010113          	addi	sp,sp,-48
80004148:	02112623          	sw	ra,44(sp)
8000414c:	02812423          	sw	s0,40(sp)
80004150:	03010413          	addi	s0,sp,48
80004154:	fca42e23          	sw	a0,-36(s0)
80004158:	fdc42783          	lw	a5,-36(s0)
8000415c:	00079663          	bnez	a5,80004168 <malloc+0x24>
80004160:	00000793          	li	a5,0
80004164:	0500006f          	j	800041b4 <malloc+0x70>
80004168:	fdc42783          	lw	a5,-36(s0)
8000416c:	00878793          	addi	a5,a5,8
80004170:	fcf42e23          	sw	a5,-36(s0)
80004174:	fdc42503          	lw	a0,-36(s0)
80004178:	460000ef          	jal	800045d8 <getmem>
8000417c:	fea42623          	sw	a0,-20(s0)
80004180:	fec42703          	lw	a4,-20(s0)
80004184:	fff00793          	li	a5,-1
80004188:	00f71663          	bne	a4,a5,80004194 <malloc+0x50>
8000418c:	00000793          	li	a5,0
80004190:	0240006f          	j	800041b4 <malloc+0x70>
80004194:	fec42783          	lw	a5,-20(s0)
80004198:	fec42703          	lw	a4,-20(s0)
8000419c:	00e7a023          	sw	a4,0(a5)
800041a0:	fec42783          	lw	a5,-20(s0)
800041a4:	fdc42703          	lw	a4,-36(s0)
800041a8:	00e7a223          	sw	a4,4(a5)
800041ac:	fec42783          	lw	a5,-20(s0)
800041b0:	00878793          	addi	a5,a5,8
800041b4:	00078513          	mv	a0,a5
800041b8:	02c12083          	lw	ra,44(sp)
800041bc:	02812403          	lw	s0,40(sp)
800041c0:	03010113          	addi	sp,sp,48
800041c4:	00008067          	ret

800041c8 <free>:
800041c8:	fd010113          	addi	sp,sp,-48
800041cc:	02112623          	sw	ra,44(sp)
800041d0:	02812423          	sw	s0,40(sp)
800041d4:	03010413          	addi	s0,sp,48
800041d8:	fca42e23          	sw	a0,-36(s0)
800041dc:	fdc42783          	lw	a5,-36(s0)
800041e0:	04078063          	beqz	a5,80004220 <free+0x58>
800041e4:	fdc42783          	lw	a5,-36(s0)
800041e8:	fef42623          	sw	a5,-20(s0)
800041ec:	fec42783          	lw	a5,-20(s0)
800041f0:	ff878793          	addi	a5,a5,-8
800041f4:	fef42623          	sw	a5,-20(s0)
800041f8:	fec42783          	lw	a5,-20(s0)
800041fc:	0007a783          	lw	a5,0(a5)
80004200:	fec42703          	lw	a4,-20(s0)
80004204:	02f71263          	bne	a4,a5,80004228 <free+0x60>
80004208:	fec42783          	lw	a5,-20(s0)
8000420c:	0047a783          	lw	a5,4(a5)
80004210:	00078593          	mv	a1,a5
80004214:	fec42503          	lw	a0,-20(s0)
80004218:	1bc000ef          	jal	800043d4 <freemem>
8000421c:	0100006f          	j	8000422c <free+0x64>
80004220:	00000013          	nop
80004224:	0080006f          	j	8000422c <free+0x64>
80004228:	00000013          	nop
8000422c:	02c12083          	lw	ra,44(sp)
80004230:	02812403          	lw	s0,40(sp)
80004234:	03010113          	addi	sp,sp,48
80004238:	00008067          	ret

8000423c <realloc>:
8000423c:	fd010113          	addi	sp,sp,-48
80004240:	02112623          	sw	ra,44(sp)
80004244:	02812423          	sw	s0,40(sp)
80004248:	03010413          	addi	s0,sp,48
8000424c:	fca42e23          	sw	a0,-36(s0)
80004250:	fcb42c23          	sw	a1,-40(s0)
80004254:	fe042623          	sw	zero,-20(s0)
80004258:	fd842783          	lw	a5,-40(s0)
8000425c:	04078663          	beqz	a5,800042a8 <realloc+0x6c>
80004260:	fdc42783          	lw	a5,-36(s0)
80004264:	00079a63          	bnez	a5,80004278 <realloc+0x3c>
80004268:	fd842503          	lw	a0,-40(s0)
8000426c:	ed9ff0ef          	jal	80004144 <malloc>
80004270:	00050793          	mv	a5,a0
80004274:	0380006f          	j	800042ac <realloc+0x70>
80004278:	fd842503          	lw	a0,-40(s0)
8000427c:	ec9ff0ef          	jal	80004144 <malloc>
80004280:	fea42623          	sw	a0,-20(s0)
80004284:	fec42783          	lw	a5,-20(s0)
80004288:	02078063          	beqz	a5,800042a8 <realloc+0x6c>
8000428c:	fd842783          	lw	a5,-40(s0)
80004290:	00078613          	mv	a2,a5
80004294:	fdc42583          	lw	a1,-36(s0)
80004298:	fec42503          	lw	a0,-20(s0)
8000429c:	a3dfe0ef          	jal	80002cd8 <memcpy>
800042a0:	fdc42503          	lw	a0,-36(s0)
800042a4:	f25ff0ef          	jal	800041c8 <free>
800042a8:	fec42783          	lw	a5,-20(s0)
800042ac:	00078513          	mv	a0,a5
800042b0:	02c12083          	lw	ra,44(sp)
800042b4:	02812403          	lw	s0,40(sp)
800042b8:	03010113          	addi	sp,sp,48
800042bc:	00008067          	ret

800042c0 <calloc>:
800042c0:	fd010113          	addi	sp,sp,-48
800042c4:	02112623          	sw	ra,44(sp)
800042c8:	02812423          	sw	s0,40(sp)
800042cc:	03010413          	addi	s0,sp,48
800042d0:	fca42e23          	sw	a0,-36(s0)
800042d4:	fcb42c23          	sw	a1,-40(s0)
800042d8:	fd842583          	lw	a1,-40(s0)
800042dc:	fdc42503          	lw	a0,-36(s0)
800042e0:	39d030ef          	jal	80007e7c <__mulsi3>
800042e4:	00050793          	mv	a5,a0
800042e8:	fef42623          	sw	a5,-20(s0)
800042ec:	fec42503          	lw	a0,-20(s0)
800042f0:	e55ff0ef          	jal	80004144 <malloc>
800042f4:	fea42423          	sw	a0,-24(s0)
800042f8:	fe842783          	lw	a5,-24(s0)
800042fc:	00079663          	bnez	a5,80004308 <calloc+0x48>
80004300:	00000793          	li	a5,0
80004304:	0180006f          	j	8000431c <calloc+0x5c>
80004308:	fec42603          	lw	a2,-20(s0)
8000430c:	00000593          	li	a1,0
80004310:	fe842503          	lw	a0,-24(s0)
80004314:	955fe0ef          	jal	80002c68 <memset>
80004318:	fe842783          	lw	a5,-24(s0)
8000431c:	00078513          	mv	a0,a5
80004320:	02c12083          	lw	ra,44(sp)
80004324:	02812403          	lw	s0,40(sp)
80004328:	03010113          	addi	sp,sp,48
8000432c:	00008067          	ret

80004330 <meminit>:
80004330:	fe010113          	addi	sp,sp,-32
80004334:	00112e23          	sw	ra,28(sp)
80004338:	00812c23          	sw	s0,24(sp)
8000433c:	02010413          	addi	s0,sp,32
80004340:	8000f7b7          	lui	a5,0x8000f
80004344:	8000b737          	lui	a4,0x8000b
80004348:	24070713          	addi	a4,a4,576 # 8000b240 <_end>
8000434c:	00e7a623          	sw	a4,12(a5) # 8000f00c <minheap>
80004350:	8000e7b7          	lui	a5,0x8000e
80004354:	00078713          	mv	a4,a5
80004358:	8000f7b7          	lui	a5,0x8000f
8000435c:	00e7a823          	sw	a4,16(a5) # 8000f010 <maxheap>
80004360:	8000f7b7          	lui	a5,0x8000f
80004364:	00c7a703          	lw	a4,12(a5) # 8000f00c <minheap>
80004368:	8000f7b7          	lui	a5,0x8000f
8000436c:	00478793          	addi	a5,a5,4 # 8000f004 <memlist>
80004370:	00e7a023          	sw	a4,0(a5)
80004374:	8000f7b7          	lui	a5,0x8000f
80004378:	00478793          	addi	a5,a5,4 # 8000f004 <memlist>
8000437c:	0007a783          	lw	a5,0(a5)
80004380:	fef42623          	sw	a5,-20(s0)
80004384:	fec42783          	lw	a5,-20(s0)
80004388:	0007a023          	sw	zero,0(a5)
8000438c:	8000f7b7          	lui	a5,0x8000f
80004390:	0107a783          	lw	a5,16(a5) # 8000f010 <maxheap>
80004394:	00078713          	mv	a4,a5
80004398:	8000f7b7          	lui	a5,0x8000f
8000439c:	00c7a783          	lw	a5,12(a5) # 8000f00c <minheap>
800043a0:	40f70733          	sub	a4,a4,a5
800043a4:	fec42783          	lw	a5,-20(s0)
800043a8:	00e7a223          	sw	a4,4(a5)
800043ac:	fec42783          	lw	a5,-20(s0)
800043b0:	0047a703          	lw	a4,4(a5)
800043b4:	8000f7b7          	lui	a5,0x8000f
800043b8:	00478793          	addi	a5,a5,4 # 8000f004 <memlist>
800043bc:	00e7a223          	sw	a4,4(a5)
800043c0:	00000013          	nop
800043c4:	01c12083          	lw	ra,28(sp)
800043c8:	01812403          	lw	s0,24(sp)
800043cc:	02010113          	addi	sp,sp,32
800043d0:	00008067          	ret

800043d4 <freemem>:
800043d4:	fc010113          	addi	sp,sp,-64
800043d8:	02112e23          	sw	ra,60(sp)
800043dc:	02812c23          	sw	s0,56(sp)
800043e0:	04010413          	addi	s0,sp,64
800043e4:	fca42623          	sw	a0,-52(s0)
800043e8:	fcb42423          	sw	a1,-56(s0)
800043ec:	ce9fb0ef          	jal	800000d4 <disable>
800043f0:	fca42e23          	sw	a0,-36(s0)
800043f4:	fc842783          	lw	a5,-56(s0)
800043f8:	02078263          	beqz	a5,8000441c <freemem+0x48>
800043fc:	fcc42783          	lw	a5,-52(s0)
80004400:	8000f737          	lui	a4,0x8000f
80004404:	00c72703          	lw	a4,12(a4) # 8000f00c <minheap>
80004408:	00e7ea63          	bltu	a5,a4,8000441c <freemem+0x48>
8000440c:	fcc42783          	lw	a5,-52(s0)
80004410:	8000f737          	lui	a4,0x8000f
80004414:	01072703          	lw	a4,16(a4) # 8000f010 <maxheap>
80004418:	00f77a63          	bgeu	a4,a5,8000442c <freemem+0x58>
8000441c:	fdc42503          	lw	a0,-36(s0)
80004420:	cbdfb0ef          	jal	800000dc <restore>
80004424:	fff00793          	li	a5,-1
80004428:	19c0006f          	j	800045c4 <freemem+0x1f0>
8000442c:	fc842783          	lw	a5,-56(s0)
80004430:	00778793          	addi	a5,a5,7
80004434:	ff87f793          	andi	a5,a5,-8
80004438:	fcf42423          	sw	a5,-56(s0)
8000443c:	fcc42783          	lw	a5,-52(s0)
80004440:	fef42223          	sw	a5,-28(s0)
80004444:	8000f7b7          	lui	a5,0x8000f
80004448:	00478793          	addi	a5,a5,4 # 8000f004 <memlist>
8000444c:	fef42423          	sw	a5,-24(s0)
80004450:	8000f7b7          	lui	a5,0x8000f
80004454:	00478793          	addi	a5,a5,4 # 8000f004 <memlist>
80004458:	0007a783          	lw	a5,0(a5)
8000445c:	fef42623          	sw	a5,-20(s0)
80004460:	0180006f          	j	80004478 <freemem+0xa4>
80004464:	fec42783          	lw	a5,-20(s0)
80004468:	fef42423          	sw	a5,-24(s0)
8000446c:	fec42783          	lw	a5,-20(s0)
80004470:	0007a783          	lw	a5,0(a5)
80004474:	fef42623          	sw	a5,-20(s0)
80004478:	fec42783          	lw	a5,-20(s0)
8000447c:	00078863          	beqz	a5,8000448c <freemem+0xb8>
80004480:	fec42703          	lw	a4,-20(s0)
80004484:	fe442783          	lw	a5,-28(s0)
80004488:	fcf76ee3          	bltu	a4,a5,80004464 <freemem+0x90>
8000448c:	fe842703          	lw	a4,-24(s0)
80004490:	8000f7b7          	lui	a5,0x8000f
80004494:	00478793          	addi	a5,a5,4 # 8000f004 <memlist>
80004498:	00f71663          	bne	a4,a5,800044a4 <freemem+0xd0>
8000449c:	fe042023          	sw	zero,-32(s0)
800044a0:	0180006f          	j	800044b8 <freemem+0xe4>
800044a4:	fe842783          	lw	a5,-24(s0)
800044a8:	0047a703          	lw	a4,4(a5)
800044ac:	fe842783          	lw	a5,-24(s0)
800044b0:	00f707b3          	add	a5,a4,a5
800044b4:	fef42023          	sw	a5,-32(s0)
800044b8:	fe842703          	lw	a4,-24(s0)
800044bc:	8000f7b7          	lui	a5,0x8000f
800044c0:	00478793          	addi	a5,a5,4 # 8000f004 <memlist>
800044c4:	00f70863          	beq	a4,a5,800044d4 <freemem+0x100>
800044c8:	fe442783          	lw	a5,-28(s0)
800044cc:	fe042703          	lw	a4,-32(s0)
800044d0:	02e7e063          	bltu	a5,a4,800044f0 <freemem+0x11c>
800044d4:	fec42783          	lw	a5,-20(s0)
800044d8:	02078463          	beqz	a5,80004500 <freemem+0x12c>
800044dc:	fe442703          	lw	a4,-28(s0)
800044e0:	fc842783          	lw	a5,-56(s0)
800044e4:	00f70733          	add	a4,a4,a5
800044e8:	fec42783          	lw	a5,-20(s0)
800044ec:	00e7fa63          	bgeu	a5,a4,80004500 <freemem+0x12c>
800044f0:	fdc42503          	lw	a0,-36(s0)
800044f4:	be9fb0ef          	jal	800000dc <restore>
800044f8:	fff00793          	li	a5,-1
800044fc:	0c80006f          	j	800045c4 <freemem+0x1f0>
80004500:	8000f7b7          	lui	a5,0x8000f
80004504:	00478793          	addi	a5,a5,4 # 8000f004 <memlist>
80004508:	0047a703          	lw	a4,4(a5)
8000450c:	fc842783          	lw	a5,-56(s0)
80004510:	00f70733          	add	a4,a4,a5
80004514:	8000f7b7          	lui	a5,0x8000f
80004518:	00478793          	addi	a5,a5,4 # 8000f004 <memlist>
8000451c:	00e7a223          	sw	a4,4(a5)
80004520:	fe442783          	lw	a5,-28(s0)
80004524:	fe042703          	lw	a4,-32(s0)
80004528:	02f71463          	bne	a4,a5,80004550 <freemem+0x17c>
8000452c:	fe842783          	lw	a5,-24(s0)
80004530:	0047a703          	lw	a4,4(a5)
80004534:	fc842783          	lw	a5,-56(s0)
80004538:	00f70733          	add	a4,a4,a5
8000453c:	fe842783          	lw	a5,-24(s0)
80004540:	00e7a223          	sw	a4,4(a5)
80004544:	fe842783          	lw	a5,-24(s0)
80004548:	fef42223          	sw	a5,-28(s0)
8000454c:	0280006f          	j	80004574 <freemem+0x1a0>
80004550:	fe442783          	lw	a5,-28(s0)
80004554:	fec42703          	lw	a4,-20(s0)
80004558:	00e7a023          	sw	a4,0(a5)
8000455c:	fe442783          	lw	a5,-28(s0)
80004560:	fc842703          	lw	a4,-56(s0)
80004564:	00e7a223          	sw	a4,4(a5)
80004568:	fe842783          	lw	a5,-24(s0)
8000456c:	fe442703          	lw	a4,-28(s0)
80004570:	00e7a023          	sw	a4,0(a5)
80004574:	fe442783          	lw	a5,-28(s0)
80004578:	0047a703          	lw	a4,4(a5)
8000457c:	fe442783          	lw	a5,-28(s0)
80004580:	00f70733          	add	a4,a4,a5
80004584:	fec42783          	lw	a5,-20(s0)
80004588:	02f71863          	bne	a4,a5,800045b8 <freemem+0x1e4>
8000458c:	fe442783          	lw	a5,-28(s0)
80004590:	0047a703          	lw	a4,4(a5)
80004594:	fec42783          	lw	a5,-20(s0)
80004598:	0047a783          	lw	a5,4(a5)
8000459c:	00f70733          	add	a4,a4,a5
800045a0:	fe442783          	lw	a5,-28(s0)
800045a4:	00e7a223          	sw	a4,4(a5)
800045a8:	fec42783          	lw	a5,-20(s0)
800045ac:	0007a703          	lw	a4,0(a5)
800045b0:	fe442783          	lw	a5,-28(s0)
800045b4:	00e7a023          	sw	a4,0(a5)
800045b8:	fdc42503          	lw	a0,-36(s0)
800045bc:	b21fb0ef          	jal	800000dc <restore>
800045c0:	00100793          	li	a5,1
800045c4:	00078513          	mv	a0,a5
800045c8:	03c12083          	lw	ra,60(sp)
800045cc:	03812403          	lw	s0,56(sp)
800045d0:	04010113          	addi	sp,sp,64
800045d4:	00008067          	ret

800045d8 <getmem>:
800045d8:	fd010113          	addi	sp,sp,-48
800045dc:	02112623          	sw	ra,44(sp)
800045e0:	02812423          	sw	s0,40(sp)
800045e4:	03010413          	addi	s0,sp,48
800045e8:	fca42e23          	sw	a0,-36(s0)
800045ec:	ae9fb0ef          	jal	800000d4 <disable>
800045f0:	fea42223          	sw	a0,-28(s0)
800045f4:	fdc42783          	lw	a5,-36(s0)
800045f8:	00079a63          	bnez	a5,8000460c <getmem+0x34>
800045fc:	fe442503          	lw	a0,-28(s0)
80004600:	addfb0ef          	jal	800000dc <restore>
80004604:	fff00793          	li	a5,-1
80004608:	1300006f          	j	80004738 <getmem+0x160>
8000460c:	fdc42783          	lw	a5,-36(s0)
80004610:	00778793          	addi	a5,a5,7
80004614:	ff87f793          	andi	a5,a5,-8
80004618:	fcf42e23          	sw	a5,-36(s0)
8000461c:	8000f7b7          	lui	a5,0x8000f
80004620:	00478793          	addi	a5,a5,4 # 8000f004 <memlist>
80004624:	fef42623          	sw	a5,-20(s0)
80004628:	8000f7b7          	lui	a5,0x8000f
8000462c:	00478793          	addi	a5,a5,4 # 8000f004 <memlist>
80004630:	0007a783          	lw	a5,0(a5)
80004634:	fef42423          	sw	a5,-24(s0)
80004638:	0ec0006f          	j	80004724 <getmem+0x14c>
8000463c:	fe842783          	lw	a5,-24(s0)
80004640:	0047a783          	lw	a5,4(a5)
80004644:	fdc42703          	lw	a4,-36(s0)
80004648:	04f71263          	bne	a4,a5,8000468c <getmem+0xb4>
8000464c:	fe842783          	lw	a5,-24(s0)
80004650:	0007a703          	lw	a4,0(a5)
80004654:	fec42783          	lw	a5,-20(s0)
80004658:	00e7a023          	sw	a4,0(a5)
8000465c:	8000f7b7          	lui	a5,0x8000f
80004660:	00478793          	addi	a5,a5,4 # 8000f004 <memlist>
80004664:	0047a703          	lw	a4,4(a5)
80004668:	fdc42783          	lw	a5,-36(s0)
8000466c:	40f70733          	sub	a4,a4,a5
80004670:	8000f7b7          	lui	a5,0x8000f
80004674:	00478793          	addi	a5,a5,4 # 8000f004 <memlist>
80004678:	00e7a223          	sw	a4,4(a5)
8000467c:	fe442503          	lw	a0,-28(s0)
80004680:	a5dfb0ef          	jal	800000dc <restore>
80004684:	fe842783          	lw	a5,-24(s0)
80004688:	0b00006f          	j	80004738 <getmem+0x160>
8000468c:	fe842783          	lw	a5,-24(s0)
80004690:	0047a783          	lw	a5,4(a5)
80004694:	fdc42703          	lw	a4,-36(s0)
80004698:	06f77c63          	bgeu	a4,a5,80004710 <getmem+0x138>
8000469c:	fe842703          	lw	a4,-24(s0)
800046a0:	fdc42783          	lw	a5,-36(s0)
800046a4:	00f707b3          	add	a5,a4,a5
800046a8:	fef42023          	sw	a5,-32(s0)
800046ac:	fec42783          	lw	a5,-20(s0)
800046b0:	fe042703          	lw	a4,-32(s0)
800046b4:	00e7a023          	sw	a4,0(a5)
800046b8:	fe842783          	lw	a5,-24(s0)
800046bc:	0007a703          	lw	a4,0(a5)
800046c0:	fe042783          	lw	a5,-32(s0)
800046c4:	00e7a023          	sw	a4,0(a5)
800046c8:	fe842783          	lw	a5,-24(s0)
800046cc:	0047a703          	lw	a4,4(a5)
800046d0:	fdc42783          	lw	a5,-36(s0)
800046d4:	40f70733          	sub	a4,a4,a5
800046d8:	fe042783          	lw	a5,-32(s0)
800046dc:	00e7a223          	sw	a4,4(a5)
800046e0:	8000f7b7          	lui	a5,0x8000f
800046e4:	00478793          	addi	a5,a5,4 # 8000f004 <memlist>
800046e8:	0047a703          	lw	a4,4(a5)
800046ec:	fdc42783          	lw	a5,-36(s0)
800046f0:	40f70733          	sub	a4,a4,a5
800046f4:	8000f7b7          	lui	a5,0x8000f
800046f8:	00478793          	addi	a5,a5,4 # 8000f004 <memlist>
800046fc:	00e7a223          	sw	a4,4(a5)
80004700:	fe442503          	lw	a0,-28(s0)
80004704:	9d9fb0ef          	jal	800000dc <restore>
80004708:	fe842783          	lw	a5,-24(s0)
8000470c:	02c0006f          	j	80004738 <getmem+0x160>
80004710:	fe842783          	lw	a5,-24(s0)
80004714:	fef42623          	sw	a5,-20(s0)
80004718:	fe842783          	lw	a5,-24(s0)
8000471c:	0007a783          	lw	a5,0(a5)
80004720:	fef42423          	sw	a5,-24(s0)
80004724:	fe842783          	lw	a5,-24(s0)
80004728:	f0079ae3          	bnez	a5,8000463c <getmem+0x64>
8000472c:	fe442503          	lw	a0,-28(s0)
80004730:	9adfb0ef          	jal	800000dc <restore>
80004734:	fff00793          	li	a5,-1
80004738:	00078513          	mv	a0,a5
8000473c:	02c12083          	lw	ra,44(sp)
80004740:	02812403          	lw	s0,40(sp)
80004744:	03010113          	addi	sp,sp,48
80004748:	00008067          	ret

8000474c <getstk>:
8000474c:	fc010113          	addi	sp,sp,-64
80004750:	02112e23          	sw	ra,60(sp)
80004754:	02812c23          	sw	s0,56(sp)
80004758:	04010413          	addi	s0,sp,64
8000475c:	fca42623          	sw	a0,-52(s0)
80004760:	975fb0ef          	jal	800000d4 <disable>
80004764:	fca42e23          	sw	a0,-36(s0)
80004768:	fcc42783          	lw	a5,-52(s0)
8000476c:	00079a63          	bnez	a5,80004780 <getstk+0x34>
80004770:	fdc42503          	lw	a0,-36(s0)
80004774:	969fb0ef          	jal	800000dc <restore>
80004778:	fff00793          	li	a5,-1
8000477c:	1180006f          	j	80004894 <getstk+0x148>
80004780:	fcc42783          	lw	a5,-52(s0)
80004784:	00778793          	addi	a5,a5,7
80004788:	ff87f793          	andi	a5,a5,-8
8000478c:	fcf42623          	sw	a5,-52(s0)
80004790:	8000f7b7          	lui	a5,0x8000f
80004794:	00478793          	addi	a5,a5,4 # 8000f004 <memlist>
80004798:	fef42623          	sw	a5,-20(s0)
8000479c:	8000f7b7          	lui	a5,0x8000f
800047a0:	00478793          	addi	a5,a5,4 # 8000f004 <memlist>
800047a4:	0007a783          	lw	a5,0(a5)
800047a8:	fef42423          	sw	a5,-24(s0)
800047ac:	fe042223          	sw	zero,-28(s0)
800047b0:	fe042023          	sw	zero,-32(s0)
800047b4:	0380006f          	j	800047ec <getstk+0xa0>
800047b8:	fe842783          	lw	a5,-24(s0)
800047bc:	0047a783          	lw	a5,4(a5)
800047c0:	fcc42703          	lw	a4,-52(s0)
800047c4:	00e7ea63          	bltu	a5,a4,800047d8 <getstk+0x8c>
800047c8:	fe842783          	lw	a5,-24(s0)
800047cc:	fef42223          	sw	a5,-28(s0)
800047d0:	fec42783          	lw	a5,-20(s0)
800047d4:	fef42023          	sw	a5,-32(s0)
800047d8:	fe842783          	lw	a5,-24(s0)
800047dc:	fef42623          	sw	a5,-20(s0)
800047e0:	fe842783          	lw	a5,-24(s0)
800047e4:	0007a783          	lw	a5,0(a5)
800047e8:	fef42423          	sw	a5,-24(s0)
800047ec:	fe842783          	lw	a5,-24(s0)
800047f0:	fc0794e3          	bnez	a5,800047b8 <getstk+0x6c>
800047f4:	fe442783          	lw	a5,-28(s0)
800047f8:	00079a63          	bnez	a5,8000480c <getstk+0xc0>
800047fc:	fdc42503          	lw	a0,-36(s0)
80004800:	8ddfb0ef          	jal	800000dc <restore>
80004804:	fff00793          	li	a5,-1
80004808:	08c0006f          	j	80004894 <getstk+0x148>
8000480c:	fe442783          	lw	a5,-28(s0)
80004810:	0047a783          	lw	a5,4(a5)
80004814:	fcc42703          	lw	a4,-52(s0)
80004818:	00f71c63          	bne	a4,a5,80004830 <getstk+0xe4>
8000481c:	fe442783          	lw	a5,-28(s0)
80004820:	0007a703          	lw	a4,0(a5)
80004824:	fe042783          	lw	a5,-32(s0)
80004828:	00e7a023          	sw	a4,0(a5)
8000482c:	0300006f          	j	8000485c <getstk+0x110>
80004830:	fe442783          	lw	a5,-28(s0)
80004834:	0047a703          	lw	a4,4(a5)
80004838:	fcc42783          	lw	a5,-52(s0)
8000483c:	40f70733          	sub	a4,a4,a5
80004840:	fe442783          	lw	a5,-28(s0)
80004844:	00e7a223          	sw	a4,4(a5)
80004848:	fe442783          	lw	a5,-28(s0)
8000484c:	0047a703          	lw	a4,4(a5)
80004850:	fe442783          	lw	a5,-28(s0)
80004854:	00f707b3          	add	a5,a4,a5
80004858:	fef42223          	sw	a5,-28(s0)
8000485c:	8000f7b7          	lui	a5,0x8000f
80004860:	00478793          	addi	a5,a5,4 # 8000f004 <memlist>
80004864:	0047a703          	lw	a4,4(a5)
80004868:	fcc42783          	lw	a5,-52(s0)
8000486c:	40f70733          	sub	a4,a4,a5
80004870:	8000f7b7          	lui	a5,0x8000f
80004874:	00478793          	addi	a5,a5,4 # 8000f004 <memlist>
80004878:	00e7a223          	sw	a4,4(a5)
8000487c:	fdc42503          	lw	a0,-36(s0)
80004880:	85dfb0ef          	jal	800000dc <restore>
80004884:	fe442703          	lw	a4,-28(s0)
80004888:	fcc42783          	lw	a5,-52(s0)
8000488c:	00f707b3          	add	a5,a4,a5
80004890:	ffc78793          	addi	a5,a5,-4
80004894:	00078513          	mv	a0,a5
80004898:	03c12083          	lw	ra,60(sp)
8000489c:	03812403          	lw	s0,56(sp)
800048a0:	04010113          	addi	sp,sp,64
800048a4:	00008067          	ret

800048a8 <heap_free>:
800048a8:	fe010113          	addi	sp,sp,-32
800048ac:	00112e23          	sw	ra,28(sp)
800048b0:	00812c23          	sw	s0,24(sp)
800048b4:	02010413          	addi	s0,sp,32
800048b8:	fe042423          	sw	zero,-24(s0)
800048bc:	8000f7b7          	lui	a5,0x8000f
800048c0:	00478793          	addi	a5,a5,4 # 8000f004 <memlist>
800048c4:	0007a783          	lw	a5,0(a5)
800048c8:	fef42623          	sw	a5,-20(s0)
800048cc:	0240006f          	j	800048f0 <heap_free+0x48>
800048d0:	fec42783          	lw	a5,-20(s0)
800048d4:	0047a783          	lw	a5,4(a5)
800048d8:	fe842703          	lw	a4,-24(s0)
800048dc:	00f707b3          	add	a5,a4,a5
800048e0:	fef42423          	sw	a5,-24(s0)
800048e4:	fec42783          	lw	a5,-20(s0)
800048e8:	0007a783          	lw	a5,0(a5)
800048ec:	fef42623          	sw	a5,-20(s0)
800048f0:	fec42783          	lw	a5,-20(s0)
800048f4:	fc079ee3          	bnez	a5,800048d0 <heap_free+0x28>
800048f8:	fe842783          	lw	a5,-24(s0)
800048fc:	00078513          	mv	a0,a5
80004900:	01c12083          	lw	ra,28(sp)
80004904:	01812403          	lw	s0,24(sp)
80004908:	02010113          	addi	sp,sp,32
8000490c:	00008067          	ret

80004910 <kputc>:
80004910:	fe010113          	addi	sp,sp,-32
80004914:	00112e23          	sw	ra,28(sp)
80004918:	00812c23          	sw	s0,24(sp)
8000491c:	02010413          	addi	s0,sp,32
80004920:	fea42623          	sw	a0,-20(s0)
80004924:	fec42703          	lw	a4,-20(s0)
80004928:	00a00793          	li	a5,10
8000492c:	00f71663          	bne	a4,a5,80004938 <kputc+0x28>
80004930:	00d00513          	li	a0,13
80004934:	fddff0ef          	jal	80004910 <kputc>
80004938:	fec42783          	lw	a5,-20(s0)
8000493c:	02c00893          	li	a7,44
80004940:	00078513          	mv	a0,a5
80004944:	00000073          	ecall
80004948:	00000793          	li	a5,0
8000494c:	00078513          	mv	a0,a5
80004950:	01c12083          	lw	ra,28(sp)
80004954:	01812403          	lw	s0,24(sp)
80004958:	02010113          	addi	sp,sp,32
8000495c:	00008067          	ret

80004960 <putchar>:
80004960:	fe010113          	addi	sp,sp,-32
80004964:	00112e23          	sw	ra,28(sp)
80004968:	00812c23          	sw	s0,24(sp)
8000496c:	02010413          	addi	s0,sp,32
80004970:	fea42623          	sw	a0,-20(s0)
80004974:	fec42703          	lw	a4,-20(s0)
80004978:	00a00793          	li	a5,10
8000497c:	00f71663          	bne	a4,a5,80004988 <putchar+0x28>
80004980:	00d00513          	li	a0,13
80004984:	fddff0ef          	jal	80004960 <putchar>
80004988:	003007b7          	lui	a5,0x300
8000498c:	fec42703          	lw	a4,-20(s0)
80004990:	00e7a023          	sw	a4,0(a5) # 300000 <_start-0x7fd00000>
80004994:	00000793          	li	a5,0
80004998:	00078513          	mv	a0,a5
8000499c:	01c12083          	lw	ra,28(sp)
800049a0:	01812403          	lw	s0,24(sp)
800049a4:	02010113          	addi	sp,sp,32
800049a8:	00008067          	ret

800049ac <printf>:
800049ac:	fb010113          	addi	sp,sp,-80
800049b0:	02112623          	sw	ra,44(sp)
800049b4:	02812423          	sw	s0,40(sp)
800049b8:	03010413          	addi	s0,sp,48
800049bc:	fca42e23          	sw	a0,-36(s0)
800049c0:	00b42223          	sw	a1,4(s0)
800049c4:	00c42423          	sw	a2,8(s0)
800049c8:	00d42623          	sw	a3,12(s0)
800049cc:	00e42823          	sw	a4,16(s0)
800049d0:	00f42a23          	sw	a5,20(s0)
800049d4:	01042c23          	sw	a6,24(s0)
800049d8:	01142e23          	sw	a7,28(s0)
800049dc:	02040793          	addi	a5,s0,32
800049e0:	fcf42c23          	sw	a5,-40(s0)
800049e4:	fd842783          	lw	a5,-40(s0)
800049e8:	fe478793          	addi	a5,a5,-28
800049ec:	fef42623          	sw	a5,-20(s0)
800049f0:	fec42703          	lw	a4,-20(s0)
800049f4:	800057b7          	lui	a5,0x80005
800049f8:	96078613          	addi	a2,a5,-1696 # 80004960 <putchar>
800049fc:	00070593          	mv	a1,a4
80004a00:	fdc42503          	lw	a0,-36(s0)
80004a04:	af0fd0ef          	jal	80001cf4 <_doprnt>
80004a08:	00000793          	li	a5,0
80004a0c:	00078513          	mv	a0,a5
80004a10:	02c12083          	lw	ra,44(sp)
80004a14:	02812403          	lw	s0,40(sp)
80004a18:	05010113          	addi	sp,sp,80
80004a1c:	00008067          	ret

80004a20 <sprintf>:
80004a20:	fb010113          	addi	sp,sp,-80
80004a24:	02112623          	sw	ra,44(sp)
80004a28:	02812423          	sw	s0,40(sp)
80004a2c:	03010413          	addi	s0,sp,48
80004a30:	fca42e23          	sw	a0,-36(s0)
80004a34:	fcb42c23          	sw	a1,-40(s0)
80004a38:	00c42423          	sw	a2,8(s0)
80004a3c:	00d42623          	sw	a3,12(s0)
80004a40:	00e42823          	sw	a4,16(s0)
80004a44:	00f42a23          	sw	a5,20(s0)
80004a48:	01042c23          	sw	a6,24(s0)
80004a4c:	01142e23          	sw	a7,28(s0)
80004a50:	fdc42783          	lw	a5,-36(s0)
80004a54:	fef42423          	sw	a5,-24(s0)
80004a58:	02040793          	addi	a5,s0,32
80004a5c:	fcf42a23          	sw	a5,-44(s0)
80004a60:	fd442783          	lw	a5,-44(s0)
80004a64:	fe878793          	addi	a5,a5,-24
80004a68:	fef42623          	sw	a5,-20(s0)
80004a6c:	fec42703          	lw	a4,-20(s0)
80004a70:	fe840793          	addi	a5,s0,-24
80004a74:	00078693          	mv	a3,a5
80004a78:	800057b7          	lui	a5,0x80005
80004a7c:	ab478613          	addi	a2,a5,-1356 # 80004ab4 <sprntf>
80004a80:	00070593          	mv	a1,a4
80004a84:	fd842503          	lw	a0,-40(s0)
80004a88:	c3dfc0ef          	jal	800016c4 <_fdoprnt>
80004a8c:	fe842783          	lw	a5,-24(s0)
80004a90:	00178713          	addi	a4,a5,1
80004a94:	fee42423          	sw	a4,-24(s0)
80004a98:	00078023          	sb	zero,0(a5)
80004a9c:	fdc42783          	lw	a5,-36(s0)
80004aa0:	00078513          	mv	a0,a5
80004aa4:	02c12083          	lw	ra,44(sp)
80004aa8:	02812403          	lw	s0,40(sp)
80004aac:	05010113          	addi	sp,sp,80
80004ab0:	00008067          	ret

80004ab4 <sprntf>:
80004ab4:	fd010113          	addi	sp,sp,-48
80004ab8:	02112623          	sw	ra,44(sp)
80004abc:	02812423          	sw	s0,40(sp)
80004ac0:	03010413          	addi	s0,sp,48
80004ac4:	fca42e23          	sw	a0,-36(s0)
80004ac8:	fcb42c23          	sw	a1,-40(s0)
80004acc:	fdc42783          	lw	a5,-36(s0)
80004ad0:	fef42623          	sw	a5,-20(s0)
80004ad4:	fd842783          	lw	a5,-40(s0)
80004ad8:	fef405a3          	sb	a5,-21(s0)
80004adc:	fec42783          	lw	a5,-20(s0)
80004ae0:	0007a783          	lw	a5,0(a5)
80004ae4:	00178693          	addi	a3,a5,1
80004ae8:	fec42703          	lw	a4,-20(s0)
80004aec:	00d72023          	sw	a3,0(a4)
80004af0:	feb44703          	lbu	a4,-21(s0)
80004af4:	00e78023          	sb	a4,0(a5)
80004af8:	0007c783          	lbu	a5,0(a5)
80004afc:	00078513          	mv	a0,a5
80004b00:	02c12083          	lw	ra,44(sp)
80004b04:	02812403          	lw	s0,40(sp)
80004b08:	03010113          	addi	sp,sp,48
80004b0c:	00008067          	ret

80004b10 <hexDump2>:
80004b10:	fc010113          	addi	sp,sp,-64
80004b14:	02112e23          	sw	ra,60(sp)
80004b18:	02812c23          	sw	s0,56(sp)
80004b1c:	04010413          	addi	s0,sp,64
80004b20:	fca42623          	sw	a0,-52(s0)
80004b24:	fcb42423          	sw	a1,-56(s0)
80004b28:	fcc42223          	sw	a2,-60(s0)
80004b2c:	fc842783          	lw	a5,-56(s0)
80004b30:	fef42423          	sw	a5,-24(s0)
80004b34:	fe042623          	sw	zero,-20(s0)
80004b38:	12c0006f          	j	80004c64 <hexDump2+0x154>
80004b3c:	fec42783          	lw	a5,-20(s0)
80004b40:	00f7f793          	andi	a5,a5,15
80004b44:	02079e63          	bnez	a5,80004b80 <hexDump2+0x70>
80004b48:	fec42783          	lw	a5,-20(s0)
80004b4c:	00078c63          	beqz	a5,80004b64 <hexDump2+0x54>
80004b50:	fd440793          	addi	a5,s0,-44
80004b54:	00078593          	mv	a1,a5
80004b58:	800097b7          	lui	a5,0x80009
80004b5c:	e1878513          	addi	a0,a5,-488 # 80008e18 <_srodata+0xe18>
80004b60:	e4dff0ef          	jal	800049ac <printf>
80004b64:	fec42703          	lw	a4,-20(s0)
80004b68:	fcc42783          	lw	a5,-52(s0)
80004b6c:	00f707b3          	add	a5,a4,a5
80004b70:	00078593          	mv	a1,a5
80004b74:	800097b7          	lui	a5,0x80009
80004b78:	e2078513          	addi	a0,a5,-480 # 80008e20 <_srodata+0xe20>
80004b7c:	e31ff0ef          	jal	800049ac <printf>
80004b80:	fec42783          	lw	a5,-20(s0)
80004b84:	fe842703          	lw	a4,-24(s0)
80004b88:	00f707b3          	add	a5,a4,a5
80004b8c:	0007c783          	lbu	a5,0(a5)
80004b90:	00078593          	mv	a1,a5
80004b94:	800097b7          	lui	a5,0x80009
80004b98:	e2878513          	addi	a0,a5,-472 # 80008e28 <_srodata+0xe28>
80004b9c:	e11ff0ef          	jal	800049ac <printf>
80004ba0:	fec42783          	lw	a5,-20(s0)
80004ba4:	fe842703          	lw	a4,-24(s0)
80004ba8:	00f707b3          	add	a5,a4,a5
80004bac:	0007c703          	lbu	a4,0(a5)
80004bb0:	01f00793          	li	a5,31
80004bb4:	00e7fe63          	bgeu	a5,a4,80004bd0 <hexDump2+0xc0>
80004bb8:	fec42783          	lw	a5,-20(s0)
80004bbc:	fe842703          	lw	a4,-24(s0)
80004bc0:	00f707b3          	add	a5,a4,a5
80004bc4:	0007c703          	lbu	a4,0(a5)
80004bc8:	07e00793          	li	a5,126
80004bcc:	02e7f863          	bgeu	a5,a4,80004bfc <hexDump2+0xec>
80004bd0:	fec42703          	lw	a4,-20(s0)
80004bd4:	41f75793          	srai	a5,a4,0x1f
80004bd8:	01c7d793          	srli	a5,a5,0x1c
80004bdc:	00f70733          	add	a4,a4,a5
80004be0:	00f77713          	andi	a4,a4,15
80004be4:	40f707b3          	sub	a5,a4,a5
80004be8:	ff078793          	addi	a5,a5,-16
80004bec:	008787b3          	add	a5,a5,s0
80004bf0:	02e00713          	li	a4,46
80004bf4:	fee78223          	sb	a4,-28(a5)
80004bf8:	0380006f          	j	80004c30 <hexDump2+0x120>
80004bfc:	fec42783          	lw	a5,-20(s0)
80004c00:	fe842703          	lw	a4,-24(s0)
80004c04:	00f706b3          	add	a3,a4,a5
80004c08:	fec42703          	lw	a4,-20(s0)
80004c0c:	41f75793          	srai	a5,a4,0x1f
80004c10:	01c7d793          	srli	a5,a5,0x1c
80004c14:	00f70733          	add	a4,a4,a5
80004c18:	00f77713          	andi	a4,a4,15
80004c1c:	40f707b3          	sub	a5,a4,a5
80004c20:	0006c703          	lbu	a4,0(a3)
80004c24:	ff078793          	addi	a5,a5,-16
80004c28:	008787b3          	add	a5,a5,s0
80004c2c:	fee78223          	sb	a4,-28(a5)
80004c30:	fec42703          	lw	a4,-20(s0)
80004c34:	41f75793          	srai	a5,a4,0x1f
80004c38:	01c7d793          	srli	a5,a5,0x1c
80004c3c:	00f70733          	add	a4,a4,a5
80004c40:	00f77713          	andi	a4,a4,15
80004c44:	40f707b3          	sub	a5,a4,a5
80004c48:	00178793          	addi	a5,a5,1
80004c4c:	ff078793          	addi	a5,a5,-16
80004c50:	008787b3          	add	a5,a5,s0
80004c54:	fe078223          	sb	zero,-28(a5)
80004c58:	fec42783          	lw	a5,-20(s0)
80004c5c:	00178793          	addi	a5,a5,1
80004c60:	fef42623          	sw	a5,-20(s0)
80004c64:	fec42703          	lw	a4,-20(s0)
80004c68:	fc442783          	lw	a5,-60(s0)
80004c6c:	ecf748e3          	blt	a4,a5,80004b3c <hexDump2+0x2c>
80004c70:	01c0006f          	j	80004c8c <hexDump2+0x17c>
80004c74:	800097b7          	lui	a5,0x80009
80004c78:	e3078513          	addi	a0,a5,-464 # 80008e30 <_srodata+0xe30>
80004c7c:	d31ff0ef          	jal	800049ac <printf>
80004c80:	fec42783          	lw	a5,-20(s0)
80004c84:	00178793          	addi	a5,a5,1
80004c88:	fef42623          	sw	a5,-20(s0)
80004c8c:	fec42783          	lw	a5,-20(s0)
80004c90:	00f7f793          	andi	a5,a5,15
80004c94:	fe0790e3          	bnez	a5,80004c74 <hexDump2+0x164>
80004c98:	fd440793          	addi	a5,s0,-44
80004c9c:	00078593          	mv	a1,a5
80004ca0:	800097b7          	lui	a5,0x80009
80004ca4:	e1878513          	addi	a0,a5,-488 # 80008e18 <_srodata+0xe18>
80004ca8:	d05ff0ef          	jal	800049ac <printf>
80004cac:	00000013          	nop
80004cb0:	03c12083          	lw	ra,60(sp)
80004cb4:	03812403          	lw	s0,56(sp)
80004cb8:	04010113          	addi	sp,sp,64
80004cbc:	00008067          	ret

80004cc0 <qsort>:
80004cc0:	fe010113          	addi	sp,sp,-32
80004cc4:	00112e23          	sw	ra,28(sp)
80004cc8:	00812c23          	sw	s0,24(sp)
80004ccc:	02010413          	addi	s0,sp,32
80004cd0:	fea42623          	sw	a0,-20(s0)
80004cd4:	feb42423          	sw	a1,-24(s0)
80004cd8:	fec42223          	sw	a2,-28(s0)
80004cdc:	fed42023          	sw	a3,-32(s0)
80004ce0:	8000b7b7          	lui	a5,0x8000b
80004ce4:	fe042703          	lw	a4,-32(s0)
80004ce8:	20e7ac23          	sw	a4,536(a5) # 8000b218 <qscmp>
80004cec:	8000b7b7          	lui	a5,0x8000b
80004cf0:	fe442703          	lw	a4,-28(s0)
80004cf4:	20e7ae23          	sw	a4,540(a5) # 8000b21c <qses>
80004cf8:	fe442783          	lw	a5,-28(s0)
80004cfc:	fe842583          	lw	a1,-24(s0)
80004d00:	00078513          	mv	a0,a5
80004d04:	178030ef          	jal	80007e7c <__mulsi3>
80004d08:	00050793          	mv	a5,a0
80004d0c:	00078713          	mv	a4,a5
80004d10:	fec42783          	lw	a5,-20(s0)
80004d14:	00e787b3          	add	a5,a5,a4
80004d18:	00078593          	mv	a1,a5
80004d1c:	fec42503          	lw	a0,-20(s0)
80004d20:	018000ef          	jal	80004d38 <qs1>
80004d24:	00000013          	nop
80004d28:	01c12083          	lw	ra,28(sp)
80004d2c:	01812403          	lw	s0,24(sp)
80004d30:	02010113          	addi	sp,sp,32
80004d34:	00008067          	ret

80004d38 <qs1>:
80004d38:	fc010113          	addi	sp,sp,-64
80004d3c:	02112e23          	sw	ra,60(sp)
80004d40:	02812c23          	sw	s0,56(sp)
80004d44:	02912a23          	sw	s1,52(sp)
80004d48:	03212823          	sw	s2,48(sp)
80004d4c:	03312623          	sw	s3,44(sp)
80004d50:	04010413          	addi	s0,sp,64
80004d54:	fca42623          	sw	a0,-52(s0)
80004d58:	fcb42423          	sw	a1,-56(s0)
80004d5c:	8000b7b7          	lui	a5,0x8000b
80004d60:	21c7a983          	lw	s3,540(a5) # 8000b21c <qses>
80004d64:	fc842703          	lw	a4,-56(s0)
80004d68:	fcc42783          	lw	a5,-52(s0)
80004d6c:	40f707b3          	sub	a5,a4,a5
80004d70:	fcf42a23          	sw	a5,-44(s0)
80004d74:	00098713          	mv	a4,s3
80004d78:	fd442783          	lw	a5,-44(s0)
80004d7c:	22f77663          	bgeu	a4,a5,80004fa8 <qs1+0x270>
80004d80:	00199793          	slli	a5,s3,0x1
80004d84:	00078593          	mv	a1,a5
80004d88:	fd442503          	lw	a0,-44(s0)
80004d8c:	11c030ef          	jal	80007ea8 <__hidden___udivsi3>
80004d90:	00050793          	mv	a5,a0
80004d94:	00098713          	mv	a4,s3
80004d98:	00070593          	mv	a1,a4
80004d9c:	00078513          	mv	a0,a5
80004da0:	0dc030ef          	jal	80007e7c <__mulsi3>
80004da4:	00050793          	mv	a5,a0
80004da8:	fcf42a23          	sw	a5,-44(s0)
80004dac:	fcc42703          	lw	a4,-52(s0)
80004db0:	fd442783          	lw	a5,-44(s0)
80004db4:	00f707b3          	add	a5,a4,a5
80004db8:	fcf42e23          	sw	a5,-36(s0)
80004dbc:	fdc42783          	lw	a5,-36(s0)
80004dc0:	fcf42c23          	sw	a5,-40(s0)
80004dc4:	fcc42483          	lw	s1,-52(s0)
80004dc8:	00098793          	mv	a5,s3
80004dcc:	40f007b3          	neg	a5,a5
80004dd0:	fc842703          	lw	a4,-56(s0)
80004dd4:	00f70933          	add	s2,a4,a5
80004dd8:	fdc42783          	lw	a5,-36(s0)
80004ddc:	04f4fe63          	bgeu	s1,a5,80004e38 <qs1+0x100>
80004de0:	8000b7b7          	lui	a5,0x8000b
80004de4:	2187a783          	lw	a5,536(a5) # 8000b218 <qscmp>
80004de8:	fdc42583          	lw	a1,-36(s0)
80004dec:	00048513          	mv	a0,s1
80004df0:	000780e7          	jalr	a5
80004df4:	fca42823          	sw	a0,-48(s0)
80004df8:	fd042783          	lw	a5,-48(s0)
80004dfc:	02079463          	bnez	a5,80004e24 <qs1+0xec>
80004e00:	00098793          	mv	a5,s3
80004e04:	40f007b3          	neg	a5,a5
80004e08:	fdc42703          	lw	a4,-36(s0)
80004e0c:	00f707b3          	add	a5,a4,a5
80004e10:	fcf42e23          	sw	a5,-36(s0)
80004e14:	fdc42583          	lw	a1,-36(s0)
80004e18:	00048513          	mv	a0,s1
80004e1c:	1ac000ef          	jal	80004fc8 <qsexc>
80004e20:	1840006f          	j	80004fa4 <qs1+0x26c>
80004e24:	fd042783          	lw	a5,-48(s0)
80004e28:	0007d863          	bgez	a5,80004e38 <qs1+0x100>
80004e2c:	00098793          	mv	a5,s3
80004e30:	00f484b3          	add	s1,s1,a5
80004e34:	1700006f          	j	80004fa4 <qs1+0x26c>
80004e38:	00000013          	nop
80004e3c:	fd842783          	lw	a5,-40(s0)
80004e40:	0d27f063          	bgeu	a5,s2,80004f00 <qs1+0x1c8>
80004e44:	8000b7b7          	lui	a5,0x8000b
80004e48:	2187a783          	lw	a5,536(a5) # 8000b218 <qscmp>
80004e4c:	00090593          	mv	a1,s2
80004e50:	fd842503          	lw	a0,-40(s0)
80004e54:	000780e7          	jalr	a5
80004e58:	fca42823          	sw	a0,-48(s0)
80004e5c:	fd042783          	lw	a5,-48(s0)
80004e60:	02079263          	bnez	a5,80004e84 <qs1+0x14c>
80004e64:	00098713          	mv	a4,s3
80004e68:	fd842783          	lw	a5,-40(s0)
80004e6c:	00e787b3          	add	a5,a5,a4
80004e70:	fcf42c23          	sw	a5,-40(s0)
80004e74:	00090593          	mv	a1,s2
80004e78:	fd842503          	lw	a0,-40(s0)
80004e7c:	14c000ef          	jal	80004fc8 <qsexc>
80004e80:	fbdff06f          	j	80004e3c <qs1+0x104>
80004e84:	fd042783          	lw	a5,-48(s0)
80004e88:	06f05463          	blez	a5,80004ef0 <qs1+0x1b8>
80004e8c:	fdc42783          	lw	a5,-36(s0)
80004e90:	02f49e63          	bne	s1,a5,80004ecc <qs1+0x194>
80004e94:	00098713          	mv	a4,s3
80004e98:	fd842783          	lw	a5,-40(s0)
80004e9c:	00e787b3          	add	a5,a5,a4
80004ea0:	fcf42c23          	sw	a5,-40(s0)
80004ea4:	00090613          	mv	a2,s2
80004ea8:	fd842583          	lw	a1,-40(s0)
80004eac:	00048513          	mv	a0,s1
80004eb0:	1a8000ef          	jal	80005058 <qstexc>
80004eb4:	00098713          	mv	a4,s3
80004eb8:	fdc42783          	lw	a5,-36(s0)
80004ebc:	00e787b3          	add	a5,a5,a4
80004ec0:	fcf42e23          	sw	a5,-36(s0)
80004ec4:	fdc42483          	lw	s1,-36(s0)
80004ec8:	f75ff06f          	j	80004e3c <qs1+0x104>
80004ecc:	00090593          	mv	a1,s2
80004ed0:	00048513          	mv	a0,s1
80004ed4:	0f4000ef          	jal	80004fc8 <qsexc>
80004ed8:	00098793          	mv	a5,s3
80004edc:	40f007b3          	neg	a5,a5
80004ee0:	00f90933          	add	s2,s2,a5
80004ee4:	00098793          	mv	a5,s3
80004ee8:	00f484b3          	add	s1,s1,a5
80004eec:	0b80006f          	j	80004fa4 <qs1+0x26c>
80004ef0:	00098793          	mv	a5,s3
80004ef4:	40f007b3          	neg	a5,a5
80004ef8:	00f90933          	add	s2,s2,a5
80004efc:	f41ff06f          	j	80004e3c <qs1+0x104>
80004f00:	fdc42783          	lw	a5,-36(s0)
80004f04:	06f49263          	bne	s1,a5,80004f68 <qs1+0x230>
80004f08:	fdc42703          	lw	a4,-36(s0)
80004f0c:	fcc42783          	lw	a5,-52(s0)
80004f10:	40f70733          	sub	a4,a4,a5
80004f14:	fc842683          	lw	a3,-56(s0)
80004f18:	fd842783          	lw	a5,-40(s0)
80004f1c:	40f687b3          	sub	a5,a3,a5
80004f20:	02f74463          	blt	a4,a5,80004f48 <qs1+0x210>
80004f24:	00098713          	mv	a4,s3
80004f28:	fd842783          	lw	a5,-40(s0)
80004f2c:	00e787b3          	add	a5,a5,a4
80004f30:	fc842583          	lw	a1,-56(s0)
80004f34:	00078513          	mv	a0,a5
80004f38:	e01ff0ef          	jal	80004d38 <qs1>
80004f3c:	fdc42783          	lw	a5,-36(s0)
80004f40:	fcf42423          	sw	a5,-56(s0)
80004f44:	e21ff06f          	j	80004d64 <qs1+0x2c>
80004f48:	fdc42583          	lw	a1,-36(s0)
80004f4c:	fcc42503          	lw	a0,-52(s0)
80004f50:	de9ff0ef          	jal	80004d38 <qs1>
80004f54:	00098713          	mv	a4,s3
80004f58:	fd842783          	lw	a5,-40(s0)
80004f5c:	00e787b3          	add	a5,a5,a4
80004f60:	fcf42623          	sw	a5,-52(s0)
80004f64:	e01ff06f          	j	80004d64 <qs1+0x2c>
80004f68:	00098793          	mv	a5,s3
80004f6c:	40f007b3          	neg	a5,a5
80004f70:	fdc42703          	lw	a4,-36(s0)
80004f74:	00f707b3          	add	a5,a4,a5
80004f78:	fcf42e23          	sw	a5,-36(s0)
80004f7c:	00048613          	mv	a2,s1
80004f80:	fdc42583          	lw	a1,-36(s0)
80004f84:	00090513          	mv	a0,s2
80004f88:	0d0000ef          	jal	80005058 <qstexc>
80004f8c:	00098793          	mv	a5,s3
80004f90:	40f007b3          	neg	a5,a5
80004f94:	fd842703          	lw	a4,-40(s0)
80004f98:	00f707b3          	add	a5,a4,a5
80004f9c:	fcf42c23          	sw	a5,-40(s0)
80004fa0:	fd842903          	lw	s2,-40(s0)
80004fa4:	e35ff06f          	j	80004dd8 <qs1+0xa0>
80004fa8:	00000013          	nop
80004fac:	03c12083          	lw	ra,60(sp)
80004fb0:	03812403          	lw	s0,56(sp)
80004fb4:	03412483          	lw	s1,52(sp)
80004fb8:	03012903          	lw	s2,48(sp)
80004fbc:	02c12983          	lw	s3,44(sp)
80004fc0:	04010113          	addi	sp,sp,64
80004fc4:	00008067          	ret

80004fc8 <qsexc>:
80004fc8:	fc010113          	addi	sp,sp,-64
80004fcc:	02112e23          	sw	ra,60(sp)
80004fd0:	02812c23          	sw	s0,56(sp)
80004fd4:	02912a23          	sw	s1,52(sp)
80004fd8:	03212823          	sw	s2,48(sp)
80004fdc:	03312623          	sw	s3,44(sp)
80004fe0:	04010413          	addi	s0,sp,64
80004fe4:	fca42623          	sw	a0,-52(s0)
80004fe8:	fcb42423          	sw	a1,-56(s0)
80004fec:	8000b7b7          	lui	a5,0x8000b
80004ff0:	21c7a783          	lw	a5,540(a5) # 8000b21c <qses>
80004ff4:	fcf42e23          	sw	a5,-36(s0)
80004ff8:	fcc42903          	lw	s2,-52(s0)
80004ffc:	fc842483          	lw	s1,-56(s0)
80005000:	00094983          	lbu	s3,0(s2)
80005004:	00090793          	mv	a5,s2
80005008:	00178913          	addi	s2,a5,1
8000500c:	0004c703          	lbu	a4,0(s1)
80005010:	00e78023          	sb	a4,0(a5)
80005014:	00048793          	mv	a5,s1
80005018:	00178493          	addi	s1,a5,1
8000501c:	01378023          	sb	s3,0(a5)
80005020:	fdc42783          	lw	a5,-36(s0)
80005024:	fff78793          	addi	a5,a5,-1
80005028:	fcf42e23          	sw	a5,-36(s0)
8000502c:	fdc42783          	lw	a5,-36(s0)
80005030:	fc0798e3          	bnez	a5,80005000 <qsexc+0x38>
80005034:	00000013          	nop
80005038:	00000013          	nop
8000503c:	03c12083          	lw	ra,60(sp)
80005040:	03812403          	lw	s0,56(sp)
80005044:	03412483          	lw	s1,52(sp)
80005048:	03012903          	lw	s2,48(sp)
8000504c:	02c12983          	lw	s3,44(sp)
80005050:	04010113          	addi	sp,sp,64
80005054:	00008067          	ret

80005058 <qstexc>:
80005058:	fc010113          	addi	sp,sp,-64
8000505c:	02112e23          	sw	ra,60(sp)
80005060:	02812c23          	sw	s0,56(sp)
80005064:	02912a23          	sw	s1,52(sp)
80005068:	03212823          	sw	s2,48(sp)
8000506c:	03312623          	sw	s3,44(sp)
80005070:	04010413          	addi	s0,sp,64
80005074:	fca42623          	sw	a0,-52(s0)
80005078:	fcb42423          	sw	a1,-56(s0)
8000507c:	fcc42223          	sw	a2,-60(s0)
80005080:	8000b7b7          	lui	a5,0x8000b
80005084:	21c7a783          	lw	a5,540(a5) # 8000b21c <qses>
80005088:	fcf42e23          	sw	a5,-36(s0)
8000508c:	fcc42983          	lw	s3,-52(s0)
80005090:	fc842483          	lw	s1,-56(s0)
80005094:	fc442903          	lw	s2,-60(s0)
80005098:	0009c783          	lbu	a5,0(s3)
8000509c:	fcf42c23          	sw	a5,-40(s0)
800050a0:	00098793          	mv	a5,s3
800050a4:	00178993          	addi	s3,a5,1
800050a8:	00094703          	lbu	a4,0(s2)
800050ac:	00e78023          	sb	a4,0(a5)
800050b0:	00090793          	mv	a5,s2
800050b4:	00178913          	addi	s2,a5,1
800050b8:	0004c703          	lbu	a4,0(s1)
800050bc:	00e78023          	sb	a4,0(a5)
800050c0:	00048793          	mv	a5,s1
800050c4:	00178493          	addi	s1,a5,1
800050c8:	fd842703          	lw	a4,-40(s0)
800050cc:	0ff77713          	zext.b	a4,a4
800050d0:	00e78023          	sb	a4,0(a5)
800050d4:	fdc42783          	lw	a5,-36(s0)
800050d8:	fff78793          	addi	a5,a5,-1
800050dc:	fcf42e23          	sw	a5,-36(s0)
800050e0:	fdc42783          	lw	a5,-36(s0)
800050e4:	fa079ae3          	bnez	a5,80005098 <qstexc+0x40>
800050e8:	00000013          	nop
800050ec:	00000013          	nop
800050f0:	03c12083          	lw	ra,60(sp)
800050f4:	03812403          	lw	s0,56(sp)
800050f8:	03412483          	lw	s1,52(sp)
800050fc:	03012903          	lw	s2,48(sp)
80005100:	02c12983          	lw	s3,44(sp)
80005104:	04010113          	addi	sp,sp,64
80005108:	00008067          	ret

8000510c <rand>:
8000510c:	ff010113          	addi	sp,sp,-16
80005110:	00112623          	sw	ra,12(sp)
80005114:	00812423          	sw	s0,8(sp)
80005118:	01010413          	addi	s0,sp,16
8000511c:	8000b7b7          	lui	a5,0x8000b
80005120:	1c478513          	addi	a0,a5,452 # 8000b1c4 <rand_seed>
80005124:	01c000ef          	jal	80005140 <rand_r>
80005128:	00050793          	mv	a5,a0
8000512c:	00078513          	mv	a0,a5
80005130:	00c12083          	lw	ra,12(sp)
80005134:	00812403          	lw	s0,8(sp)
80005138:	01010113          	addi	sp,sp,16
8000513c:	00008067          	ret

80005140 <rand_r>:
80005140:	fe010113          	addi	sp,sp,-32
80005144:	00112e23          	sw	ra,28(sp)
80005148:	00812c23          	sw	s0,24(sp)
8000514c:	02010413          	addi	s0,sp,32
80005150:	fea42623          	sw	a0,-20(s0)
80005154:	fec42783          	lw	a5,-20(s0)
80005158:	0007a683          	lw	a3,0(a5)
8000515c:	00068713          	mv	a4,a3
80005160:	00271793          	slli	a5,a4,0x2
80005164:	00078713          	mv	a4,a5
80005168:	00d70733          	add	a4,a4,a3
8000516c:	00471793          	slli	a5,a4,0x4
80005170:	40e787b3          	sub	a5,a5,a4
80005174:	00579793          	slli	a5,a5,0x5
80005178:	00d787b3          	add	a5,a5,a3
8000517c:	00379713          	slli	a4,a5,0x3
80005180:	40f70733          	sub	a4,a4,a5
80005184:	800007b7          	lui	a5,0x80000
80005188:	ffe78593          	addi	a1,a5,-2 # 7ffffffe <_start-0x2>
8000518c:	00070513          	mv	a0,a4
80005190:	561020ef          	jal	80007ef0 <__umodsi3>
80005194:	00050793          	mv	a5,a0
80005198:	00078713          	mv	a4,a5
8000519c:	fec42783          	lw	a5,-20(s0)
800051a0:	00e7a023          	sw	a4,0(a5)
800051a4:	fec42783          	lw	a5,-20(s0)
800051a8:	0007a783          	lw	a5,0(a5)
800051ac:	00078513          	mv	a0,a5
800051b0:	01c12083          	lw	ra,28(sp)
800051b4:	01812403          	lw	s0,24(sp)
800051b8:	02010113          	addi	sp,sp,32
800051bc:	00008067          	ret

800051c0 <srand>:
800051c0:	fe010113          	addi	sp,sp,-32
800051c4:	00112e23          	sw	ra,28(sp)
800051c8:	00812c23          	sw	s0,24(sp)
800051cc:	02010413          	addi	s0,sp,32
800051d0:	fea42623          	sw	a0,-20(s0)
800051d4:	8000b7b7          	lui	a5,0x8000b
800051d8:	fec42703          	lw	a4,-20(s0)
800051dc:	1ce7a223          	sw	a4,452(a5) # 8000b1c4 <rand_seed>
800051e0:	00000013          	nop
800051e4:	01c12083          	lw	ra,28(sp)
800051e8:	01812403          	lw	s0,24(sp)
800051ec:	02010113          	addi	sp,sp,32
800051f0:	00008067          	ret

800051f4 <__divdf3>:
800051f4:	fd010113          	addi	sp,sp,-48
800051f8:	0145d793          	srli	a5,a1,0x14
800051fc:	02812423          	sw	s0,40(sp)
80005200:	02912223          	sw	s1,36(sp)
80005204:	01412c23          	sw	s4,24(sp)
80005208:	01512a23          	sw	s5,20(sp)
8000520c:	01912223          	sw	s9,4(sp)
80005210:	00c59493          	slli	s1,a1,0xc
80005214:	02112623          	sw	ra,44(sp)
80005218:	03212023          	sw	s2,32(sp)
8000521c:	01312e23          	sw	s3,28(sp)
80005220:	01612823          	sw	s6,16(sp)
80005224:	01712623          	sw	s7,12(sp)
80005228:	01812423          	sw	s8,8(sp)
8000522c:	01a12023          	sw	s10,0(sp)
80005230:	7ff7f793          	andi	a5,a5,2047
80005234:	00050413          	mv	s0,a0
80005238:	00060c93          	mv	s9,a2
8000523c:	00068a13          	mv	s4,a3
80005240:	00c4d493          	srli	s1,s1,0xc
80005244:	01f5da93          	srli	s5,a1,0x1f
80005248:	1a078863          	beqz	a5,800053f8 <__divdf3+0x204>
8000524c:	7ff00713          	li	a4,2047
80005250:	08e78a63          	beq	a5,a4,800052e4 <__divdf3+0xf0>
80005254:	00349493          	slli	s1,s1,0x3
80005258:	01d55b93          	srli	s7,a0,0x1d
8000525c:	009bebb3          	or	s7,s7,s1
80005260:	00800737          	lui	a4,0x800
80005264:	c0178b13          	addi	s6,a5,-1023
80005268:	00351c13          	slli	s8,a0,0x3
8000526c:	00ebebb3          	or	s7,s7,a4
80005270:	00000493          	li	s1,0
80005274:	00000d13          	li	s10,0
80005278:	014a5793          	srli	a5,s4,0x14
8000527c:	00ca1413          	slli	s0,s4,0xc
80005280:	7ff7f793          	andi	a5,a5,2047
80005284:	00c45413          	srli	s0,s0,0xc
80005288:	01fa5a13          	srli	s4,s4,0x1f
8000528c:	08078463          	beqz	a5,80005314 <__divdf3+0x120>
80005290:	7ff00713          	li	a4,2047
80005294:	14e78463          	beq	a5,a4,800053dc <__divdf3+0x1e8>
80005298:	00341413          	slli	s0,s0,0x3
8000529c:	01dcd713          	srli	a4,s9,0x1d
800052a0:	c0178793          	addi	a5,a5,-1023
800052a4:	00876733          	or	a4,a4,s0
800052a8:	00800437          	lui	s0,0x800
800052ac:	40fb0b33          	sub	s6,s6,a5
800052b0:	00876433          	or	s0,a4,s0
800052b4:	003c9793          	slli	a5,s9,0x3
800052b8:	00000613          	li	a2,0
800052bc:	00f00713          	li	a4,15
800052c0:	014ac5b3          	xor	a1,s5,s4
800052c4:	24976663          	bltu	a4,s1,80005510 <__divdf3+0x31c>
800052c8:	00004697          	auipc	a3,0x4
800052cc:	b6c68693          	addi	a3,a3,-1172 # 80008e34 <_srodata+0xe34>
800052d0:	00249493          	slli	s1,s1,0x2
800052d4:	00d484b3          	add	s1,s1,a3
800052d8:	0004a703          	lw	a4,0(s1)
800052dc:	00d70733          	add	a4,a4,a3
800052e0:	00070067          	jr	a4 # 800000 <_start-0x7f800000>
800052e4:	00a4ebb3          	or	s7,s1,a0
800052e8:	1c0b9e63          	bnez	s7,800054c4 <__divdf3+0x2d0>
800052ec:	00078b13          	mv	s6,a5
800052f0:	014a5793          	srli	a5,s4,0x14
800052f4:	00ca1413          	slli	s0,s4,0xc
800052f8:	7ff7f793          	andi	a5,a5,2047
800052fc:	00000c13          	li	s8,0
80005300:	00800493          	li	s1,8
80005304:	00200d13          	li	s10,2
80005308:	00c45413          	srli	s0,s0,0xc
8000530c:	01fa5a13          	srli	s4,s4,0x1f
80005310:	f80790e3          	bnez	a5,80005290 <__divdf3+0x9c>
80005314:	019467b3          	or	a5,s0,s9
80005318:	1c078c63          	beqz	a5,800054f0 <__divdf3+0x2fc>
8000531c:	48040263          	beqz	s0,800057a0 <__divdf3+0x5ac>
80005320:	00040513          	mv	a0,s0
80005324:	431020ef          	jal	80007f54 <__clzsi2>
80005328:	00050713          	mv	a4,a0
8000532c:	ff550793          	addi	a5,a0,-11
80005330:	01d00693          	li	a3,29
80005334:	40f686b3          	sub	a3,a3,a5
80005338:	ff870793          	addi	a5,a4,-8
8000533c:	00f41433          	sll	s0,s0,a5
80005340:	00dcd6b3          	srl	a3,s9,a3
80005344:	0086e433          	or	s0,a3,s0
80005348:	00fc97b3          	sll	a5,s9,a5
8000534c:	01670733          	add	a4,a4,s6
80005350:	3f370b13          	addi	s6,a4,1011
80005354:	00000613          	li	a2,0
80005358:	f65ff06f          	j	800052bc <__divdf3+0xc8>
8000535c:	7ff00793          	li	a5,2047
80005360:	00000693          	li	a3,0
80005364:	00000713          	li	a4,0
80005368:	02c12083          	lw	ra,44(sp)
8000536c:	02812403          	lw	s0,40(sp)
80005370:	01479793          	slli	a5,a5,0x14
80005374:	01f59593          	slli	a1,a1,0x1f
80005378:	00d7e7b3          	or	a5,a5,a3
8000537c:	00b7e7b3          	or	a5,a5,a1
80005380:	02412483          	lw	s1,36(sp)
80005384:	02012903          	lw	s2,32(sp)
80005388:	01c12983          	lw	s3,28(sp)
8000538c:	01812a03          	lw	s4,24(sp)
80005390:	01412a83          	lw	s5,20(sp)
80005394:	01012b03          	lw	s6,16(sp)
80005398:	00c12b83          	lw	s7,12(sp)
8000539c:	00812c03          	lw	s8,8(sp)
800053a0:	00412c83          	lw	s9,4(sp)
800053a4:	00012d03          	lw	s10,0(sp)
800053a8:	00070513          	mv	a0,a4
800053ac:	00078593          	mv	a1,a5
800053b0:	03010113          	addi	sp,sp,48
800053b4:	00008067          	ret
800053b8:	00000793          	li	a5,0
800053bc:	00000693          	li	a3,0
800053c0:	00000713          	li	a4,0
800053c4:	fa5ff06f          	j	80005368 <__divdf3+0x174>
800053c8:	00000593          	li	a1,0
800053cc:	7ff00793          	li	a5,2047
800053d0:	000806b7          	lui	a3,0x80
800053d4:	00000713          	li	a4,0
800053d8:	f91ff06f          	j	80005368 <__divdf3+0x174>
800053dc:	019467b3          	or	a5,s0,s9
800053e0:	801b0b13          	addi	s6,s6,-2047
800053e4:	10079e63          	bnez	a5,80005500 <__divdf3+0x30c>
800053e8:	0024e493          	ori	s1,s1,2
800053ec:	00000413          	li	s0,0
800053f0:	00200613          	li	a2,2
800053f4:	ec9ff06f          	j	800052bc <__divdf3+0xc8>
800053f8:	00a4ebb3          	or	s7,s1,a0
800053fc:	0e0b8063          	beqz	s7,800054dc <__divdf3+0x2e8>
80005400:	36048e63          	beqz	s1,8000577c <__divdf3+0x588>
80005404:	00048513          	mv	a0,s1
80005408:	34d020ef          	jal	80007f54 <__clzsi2>
8000540c:	00050713          	mv	a4,a0
80005410:	ff550793          	addi	a5,a0,-11
80005414:	01d00b93          	li	s7,29
80005418:	ff870c13          	addi	s8,a4,-8
8000541c:	40fb8bb3          	sub	s7,s7,a5
80005420:	018494b3          	sll	s1,s1,s8
80005424:	01745bb3          	srl	s7,s0,s7
80005428:	009bebb3          	or	s7,s7,s1
8000542c:	01841c33          	sll	s8,s0,s8
80005430:	c0d00793          	li	a5,-1011
80005434:	40e78b33          	sub	s6,a5,a4
80005438:	00000493          	li	s1,0
8000543c:	00000d13          	li	s10,0
80005440:	e39ff06f          	j	80005278 <__divdf3+0x84>
80005444:	000a8593          	mv	a1,s5
80005448:	000b8413          	mv	s0,s7
8000544c:	000c0793          	mv	a5,s8
80005450:	00200713          	li	a4,2
80005454:	f0ed04e3          	beq	s10,a4,8000535c <__divdf3+0x168>
80005458:	00300713          	li	a4,3
8000545c:	f6ed06e3          	beq	s10,a4,800053c8 <__divdf3+0x1d4>
80005460:	00100713          	li	a4,1
80005464:	f4ed0ae3          	beq	s10,a4,800053b8 <__divdf3+0x1c4>
80005468:	3ffb0f93          	addi	t6,s6,1023
8000546c:	000f8713          	mv	a4,t6
80005470:	4df05863          	blez	t6,80005940 <__divdf3+0x74c>
80005474:	0077f693          	andi	a3,a5,7
80005478:	3e069663          	bnez	a3,80005864 <__divdf3+0x670>
8000547c:	0037d513          	srli	a0,a5,0x3
80005480:	00741793          	slli	a5,s0,0x7
80005484:	0007da63          	bgez	a5,80005498 <__divdf3+0x2a4>
80005488:	ff0007b7          	lui	a5,0xff000
8000548c:	fff78793          	addi	a5,a5,-1 # feffffff <maxheap+0x7eff0fef>
80005490:	400b0713          	addi	a4,s6,1024
80005494:	00f47433          	and	s0,s0,a5
80005498:	7fe00793          	li	a5,2046
8000549c:	ece7c0e3          	blt	a5,a4,8000535c <__divdf3+0x168>
800054a0:	01d41693          	slli	a3,s0,0x1d
800054a4:	00941613          	slli	a2,s0,0x9
800054a8:	7ff77793          	andi	a5,a4,2047
800054ac:	00a6e733          	or	a4,a3,a0
800054b0:	00c65693          	srli	a3,a2,0xc
800054b4:	eb5ff06f          	j	80005368 <__divdf3+0x174>
800054b8:	000a0593          	mv	a1,s4
800054bc:	00060d13          	mv	s10,a2
800054c0:	f91ff06f          	j	80005450 <__divdf3+0x25c>
800054c4:	00048b93          	mv	s7,s1
800054c8:	00050c13          	mv	s8,a0
800054cc:	00078b13          	mv	s6,a5
800054d0:	00c00493          	li	s1,12
800054d4:	00300d13          	li	s10,3
800054d8:	da1ff06f          	j	80005278 <__divdf3+0x84>
800054dc:	00000c13          	li	s8,0
800054e0:	00400493          	li	s1,4
800054e4:	00000b13          	li	s6,0
800054e8:	00100d13          	li	s10,1
800054ec:	d8dff06f          	j	80005278 <__divdf3+0x84>
800054f0:	0014e493          	ori	s1,s1,1
800054f4:	00000413          	li	s0,0
800054f8:	00100613          	li	a2,1
800054fc:	dc1ff06f          	j	800052bc <__divdf3+0xc8>
80005500:	0034e493          	ori	s1,s1,3
80005504:	000c8793          	mv	a5,s9
80005508:	00300613          	li	a2,3
8000550c:	db1ff06f          	j	800052bc <__divdf3+0xc8>
80005510:	25746a63          	bltu	s0,s7,80005764 <__divdf3+0x570>
80005514:	248b8663          	beq	s7,s0,80005760 <__divdf3+0x56c>
80005518:	000c0693          	mv	a3,s8
8000551c:	fffb0b13          	addi	s6,s6,-1
80005520:	00000c13          	li	s8,0
80005524:	00841713          	slli	a4,s0,0x8
80005528:	01075313          	srli	t1,a4,0x10
8000552c:	026bd433          	divu	s0,s7,t1
80005530:	0187d613          	srli	a2,a5,0x18
80005534:	00e66633          	or	a2,a2,a4
80005538:	01061893          	slli	a7,a2,0x10
8000553c:	0108d893          	srli	a7,a7,0x10
80005540:	0106d713          	srli	a4,a3,0x10
80005544:	00879813          	slli	a6,a5,0x8
80005548:	026bfbb3          	remu	s7,s7,t1
8000554c:	02888533          	mul	a0,a7,s0
80005550:	010b9b93          	slli	s7,s7,0x10
80005554:	017767b3          	or	a5,a4,s7
80005558:	00a7fa63          	bgeu	a5,a0,8000556c <__divdf3+0x378>
8000555c:	00f607b3          	add	a5,a2,a5
80005560:	fff40713          	addi	a4,s0,-1 # 7fffff <_start-0x7f800001>
80005564:	2ec7f863          	bgeu	a5,a2,80005854 <__divdf3+0x660>
80005568:	00070413          	mv	s0,a4
8000556c:	40a787b3          	sub	a5,a5,a0
80005570:	0267d733          	divu	a4,a5,t1
80005574:	01069693          	slli	a3,a3,0x10
80005578:	0106d693          	srli	a3,a3,0x10
8000557c:	0267f7b3          	remu	a5,a5,t1
80005580:	02e88fb3          	mul	t6,a7,a4
80005584:	01079793          	slli	a5,a5,0x10
80005588:	00f6e6b3          	or	a3,a3,a5
8000558c:	01f6fa63          	bgeu	a3,t6,800055a0 <__divdf3+0x3ac>
80005590:	00d606b3          	add	a3,a2,a3
80005594:	fff70793          	addi	a5,a4,-1
80005598:	2ac6f663          	bgeu	a3,a2,80005844 <__divdf3+0x650>
8000559c:	00078713          	mv	a4,a5
800055a0:	01041413          	slli	s0,s0,0x10
800055a4:	00e46433          	or	s0,s0,a4
800055a8:	01041793          	slli	a5,s0,0x10
800055ac:	01081e13          	slli	t3,a6,0x10
800055b0:	0107d793          	srli	a5,a5,0x10
800055b4:	010e5e13          	srli	t3,t3,0x10
800055b8:	01085e93          	srli	t4,a6,0x10
800055bc:	01045513          	srli	a0,s0,0x10
800055c0:	02fe8733          	mul	a4,t4,a5
800055c4:	41f686b3          	sub	a3,a3,t6
800055c8:	03c78f33          	mul	t5,a5,t3
800055cc:	03c50fb3          	mul	t6,a0,t3
800055d0:	010f5793          	srli	a5,t5,0x10
800055d4:	01f70733          	add	a4,a4,t6
800055d8:	00e787b3          	add	a5,a5,a4
800055dc:	03d50533          	mul	a0,a0,t4
800055e0:	01f7f663          	bgeu	a5,t6,800055ec <__divdf3+0x3f8>
800055e4:	00010737          	lui	a4,0x10
800055e8:	00e50533          	add	a0,a0,a4
800055ec:	010f1f93          	slli	t6,t5,0x10
800055f0:	0107d713          	srli	a4,a5,0x10
800055f4:	01079f13          	slli	t5,a5,0x10
800055f8:	010fdf93          	srli	t6,t6,0x10
800055fc:	00a707b3          	add	a5,a4,a0
80005600:	01ff0f33          	add	t5,t5,t6
80005604:	10f6ec63          	bltu	a3,a5,8000571c <__divdf3+0x528>
80005608:	10f68863          	beq	a3,a5,80005718 <__divdf3+0x524>
8000560c:	41ec0f33          	sub	t5,s8,t5
80005610:	01ec3c33          	sltu	s8,s8,t5
80005614:	40f686b3          	sub	a3,a3,a5
80005618:	3ffb0f93          	addi	t6,s6,1023
8000561c:	418686b3          	sub	a3,a3,s8
80005620:	000f8713          	mv	a4,t6
80005624:	1cd60463          	beq	a2,a3,800057ec <__divdf3+0x5f8>
80005628:	0266d7b3          	divu	a5,a3,t1
8000562c:	010f5513          	srli	a0,t5,0x10
80005630:	0266f6b3          	remu	a3,a3,t1
80005634:	02f882b3          	mul	t0,a7,a5
80005638:	01069693          	slli	a3,a3,0x10
8000563c:	00d566b3          	or	a3,a0,a3
80005640:	0056fe63          	bgeu	a3,t0,8000565c <__divdf3+0x468>
80005644:	00d606b3          	add	a3,a2,a3
80005648:	fff78513          	addi	a0,a5,-1
8000564c:	22c6e463          	bltu	a3,a2,80005874 <__divdf3+0x680>
80005650:	2256f263          	bgeu	a3,t0,80005874 <__divdf3+0x680>
80005654:	ffe78793          	addi	a5,a5,-2
80005658:	00c686b3          	add	a3,a3,a2
8000565c:	405686b3          	sub	a3,a3,t0
80005660:	0266d533          	divu	a0,a3,t1
80005664:	010f1f13          	slli	t5,t5,0x10
80005668:	010f5f13          	srli	t5,t5,0x10
8000566c:	0266f6b3          	remu	a3,a3,t1
80005670:	02a888b3          	mul	a7,a7,a0
80005674:	01069693          	slli	a3,a3,0x10
80005678:	00df6f33          	or	t5,t5,a3
8000567c:	011f7e63          	bgeu	t5,a7,80005698 <__divdf3+0x4a4>
80005680:	01e60f33          	add	t5,a2,t5
80005684:	fff50693          	addi	a3,a0,-1
80005688:	1ecf6a63          	bltu	t5,a2,8000587c <__divdf3+0x688>
8000568c:	1f1f7863          	bgeu	t5,a7,8000587c <__divdf3+0x688>
80005690:	ffe50513          	addi	a0,a0,-2
80005694:	00cf0f33          	add	t5,t5,a2
80005698:	01079793          	slli	a5,a5,0x10
8000569c:	00a7e7b3          	or	a5,a5,a0
800056a0:	01079693          	slli	a3,a5,0x10
800056a4:	0106d693          	srli	a3,a3,0x10
800056a8:	0107d293          	srli	t0,a5,0x10
800056ac:	02de8533          	mul	a0,t4,a3
800056b0:	411f0f33          	sub	t5,t5,a7
800056b4:	03c28333          	mul	t1,t0,t3
800056b8:	02de0e33          	mul	t3,t3,a3
800056bc:	00650533          	add	a0,a0,t1
800056c0:	010e5693          	srli	a3,t3,0x10
800056c4:	00a686b3          	add	a3,a3,a0
800056c8:	025e8eb3          	mul	t4,t4,t0
800056cc:	0066f663          	bgeu	a3,t1,800056d8 <__divdf3+0x4e4>
800056d0:	00010537          	lui	a0,0x10
800056d4:	00ae8eb3          	add	t4,t4,a0
800056d8:	0106d513          	srli	a0,a3,0x10
800056dc:	010e1e13          	slli	t3,t3,0x10
800056e0:	010e5e13          	srli	t3,t3,0x10
800056e4:	01069693          	slli	a3,a3,0x10
800056e8:	01d50533          	add	a0,a0,t4
800056ec:	01c686b3          	add	a3,a3,t3
800056f0:	0caf6e63          	bltu	t5,a0,800057cc <__divdf3+0x5d8>
800056f4:	0caf0a63          	beq	t5,a0,800057c8 <__divdf3+0x5d4>
800056f8:	c0200693          	li	a3,-1022
800056fc:	0017e793          	ori	a5,a5,1
80005700:	1adb4063          	blt	s6,a3,800058a0 <__divdf3+0x6ac>
80005704:	00478513          	addi	a0,a5,4
80005708:	00f537b3          	sltu	a5,a0,a5
8000570c:	00355513          	srli	a0,a0,0x3
80005710:	00f40433          	add	s0,s0,a5
80005714:	d6dff06f          	j	80005480 <__divdf3+0x28c>
80005718:	efec7ae3          	bgeu	s8,t5,8000560c <__divdf3+0x418>
8000571c:	010c0733          	add	a4,s8,a6
80005720:	01873533          	sltu	a0,a4,s8
80005724:	00c50fb3          	add	t6,a0,a2
80005728:	01f686b3          	add	a3,a3,t6
8000572c:	00070c13          	mv	s8,a4
80005730:	fff40f93          	addi	t6,s0,-1
80005734:	10d67263          	bgeu	a2,a3,80005838 <__divdf3+0x644>
80005738:	00f6e663          	bltu	a3,a5,80005744 <__divdf3+0x550>
8000573c:	10d79063          	bne	a5,a3,8000583c <__divdf3+0x648>
80005740:	0fe77e63          	bgeu	a4,t5,8000583c <__divdf3+0x648>
80005744:	00e80733          	add	a4,a6,a4
80005748:	01073533          	sltu	a0,a4,a6
8000574c:	00c50533          	add	a0,a0,a2
80005750:	ffe40413          	addi	s0,s0,-2
80005754:	00a686b3          	add	a3,a3,a0
80005758:	00070c13          	mv	s8,a4
8000575c:	eb1ff06f          	j	8000560c <__divdf3+0x418>
80005760:	dafc6ce3          	bltu	s8,a5,80005518 <__divdf3+0x324>
80005764:	01fb9693          	slli	a3,s7,0x1f
80005768:	001c5713          	srli	a4,s8,0x1
8000576c:	001bdb93          	srli	s7,s7,0x1
80005770:	00e6e6b3          	or	a3,a3,a4
80005774:	01fc1c13          	slli	s8,s8,0x1f
80005778:	dadff06f          	j	80005524 <__divdf3+0x330>
8000577c:	7d8020ef          	jal	80007f54 <__clzsi2>
80005780:	01550793          	addi	a5,a0,21 # 10015 <_start-0x7ffeffeb>
80005784:	01c00693          	li	a3,28
80005788:	02050713          	addi	a4,a0,32
8000578c:	c8f6d4e3          	bge	a3,a5,80005414 <__divdf3+0x220>
80005790:	ff850513          	addi	a0,a0,-8
80005794:	00a41bb3          	sll	s7,s0,a0
80005798:	00000c13          	li	s8,0
8000579c:	c95ff06f          	j	80005430 <__divdf3+0x23c>
800057a0:	000c8513          	mv	a0,s9
800057a4:	7b0020ef          	jal	80007f54 <__clzsi2>
800057a8:	01550793          	addi	a5,a0,21
800057ac:	01c00693          	li	a3,28
800057b0:	02050713          	addi	a4,a0,32
800057b4:	b6f6dee3          	bge	a3,a5,80005330 <__divdf3+0x13c>
800057b8:	ff850513          	addi	a0,a0,-8
800057bc:	00ac9433          	sll	s0,s9,a0
800057c0:	00000793          	li	a5,0
800057c4:	b89ff06f          	j	8000534c <__divdf3+0x158>
800057c8:	ca0682e3          	beqz	a3,8000546c <__divdf3+0x278>
800057cc:	01e60f33          	add	t5,a2,t5
800057d0:	000f0893          	mv	a7,t5
800057d4:	fff78313          	addi	t1,a5,-1
800057d8:	0acf6663          	bltu	t5,a2,80005884 <__divdf3+0x690>
800057dc:	1aaf6263          	bltu	t5,a0,80005980 <__divdf3+0x78c>
800057e0:	1caf0063          	beq	t5,a0,800059a0 <__divdf3+0x7ac>
800057e4:	00030793          	mv	a5,t1
800057e8:	f11ff06f          	j	800056f8 <__divdf3+0x504>
800057ec:	00000513          	li	a0,0
800057f0:	00100793          	li	a5,1
800057f4:	f1f04ee3          	bgtz	t6,80005710 <__divdf3+0x51c>
800057f8:	0c0f9463          	bnez	t6,800058c0 <__divdf3+0x6cc>
800057fc:	80000737          	lui	a4,0x80000
80005800:	01f41793          	slli	a5,s0,0x1f
80005804:	fff70713          	addi	a4,a4,-1 # 7fffffff <_start-0x1>
80005808:	00e7e7b3          	or	a5,a5,a4
8000580c:	00145413          	srli	s0,s0,0x1
80005810:	00478713          	addi	a4,a5,4
80005814:	00f737b3          	sltu	a5,a4,a5
80005818:	00f40433          	add	s0,s0,a5
8000581c:	00070793          	mv	a5,a4
80005820:	00841713          	slli	a4,s0,0x8
80005824:	1a075063          	bgez	a4,800059c4 <__divdf3+0x7d0>
80005828:	00100793          	li	a5,1
8000582c:	00000693          	li	a3,0
80005830:	00000713          	li	a4,0
80005834:	b35ff06f          	j	80005368 <__divdf3+0x174>
80005838:	04d60e63          	beq	a2,a3,80005894 <__divdf3+0x6a0>
8000583c:	000f8413          	mv	s0,t6
80005840:	dcdff06f          	j	8000560c <__divdf3+0x418>
80005844:	d5f6fce3          	bgeu	a3,t6,8000559c <__divdf3+0x3a8>
80005848:	ffe70713          	addi	a4,a4,-2
8000584c:	00c686b3          	add	a3,a3,a2
80005850:	d51ff06f          	j	800055a0 <__divdf3+0x3ac>
80005854:	d0a7fae3          	bgeu	a5,a0,80005568 <__divdf3+0x374>
80005858:	ffe40413          	addi	s0,s0,-2
8000585c:	00c787b3          	add	a5,a5,a2
80005860:	d0dff06f          	j	8000556c <__divdf3+0x378>
80005864:	00f7f693          	andi	a3,a5,15
80005868:	00400613          	li	a2,4
8000586c:	c0c688e3          	beq	a3,a2,8000547c <__divdf3+0x288>
80005870:	e95ff06f          	j	80005704 <__divdf3+0x510>
80005874:	00050793          	mv	a5,a0
80005878:	de5ff06f          	j	8000565c <__divdf3+0x468>
8000587c:	00068513          	mv	a0,a3
80005880:	e19ff06f          	j	80005698 <__divdf3+0x4a4>
80005884:	00030793          	mv	a5,t1
80005888:	e6a898e3          	bne	a7,a0,800056f8 <__divdf3+0x504>
8000588c:	e70696e3          	bne	a3,a6,800056f8 <__divdf3+0x504>
80005890:	bddff06f          	j	8000546c <__divdf3+0x278>
80005894:	fa0514e3          	bnez	a0,8000583c <__divdf3+0x648>
80005898:	eaf6e6e3          	bltu	a3,a5,80005744 <__divdf3+0x550>
8000589c:	ea1ff06f          	j	8000573c <__divdf3+0x548>
800058a0:	c0100713          	li	a4,-1023
800058a4:	02eb1063          	bne	s6,a4,800058c4 <__divdf3+0x6d0>
800058a8:	0017d713          	srli	a4,a5,0x1
800058ac:	00176713          	ori	a4,a4,1
800058b0:	01f41793          	slli	a5,s0,0x1f
800058b4:	00e7e7b3          	or	a5,a5,a4
800058b8:	00145413          	srli	s0,s0,0x1
800058bc:	f55ff06f          	j	80005810 <__divdf3+0x61c>
800058c0:	fff00793          	li	a5,-1
800058c4:	00100713          	li	a4,1
800058c8:	41f70733          	sub	a4,a4,t6
800058cc:	03800693          	li	a3,56
800058d0:	aee6c4e3          	blt	a3,a4,800053b8 <__divdf3+0x1c4>
800058d4:	01f00693          	li	a3,31
800058d8:	0ce6dc63          	bge	a3,a4,800059b0 <__divdf3+0x7bc>
800058dc:	fe100693          	li	a3,-31
800058e0:	41f686b3          	sub	a3,a3,t6
800058e4:	02000613          	li	a2,32
800058e8:	00d456b3          	srl	a3,s0,a3
800058ec:	00c70863          	beq	a4,a2,800058fc <__divdf3+0x708>
800058f0:	43eb0b13          	addi	s6,s6,1086
800058f4:	01641433          	sll	s0,s0,s6
800058f8:	0087e7b3          	or	a5,a5,s0
800058fc:	00f037b3          	snez	a5,a5
80005900:	00d7e7b3          	or	a5,a5,a3
80005904:	0077f713          	andi	a4,a5,7
80005908:	00000693          	li	a3,0
8000590c:	02070263          	beqz	a4,80005930 <__divdf3+0x73c>
80005910:	00f7f613          	andi	a2,a5,15
80005914:	00400513          	li	a0,4
80005918:	00000713          	li	a4,0
8000591c:	00a60a63          	beq	a2,a0,80005930 <__divdf3+0x73c>
80005920:	00a78633          	add	a2,a5,a0
80005924:	00f637b3          	sltu	a5,a2,a5
80005928:	01d79713          	slli	a4,a5,0x1d
8000592c:	00060793          	mv	a5,a2
80005930:	0037d793          	srli	a5,a5,0x3
80005934:	00e7e733          	or	a4,a5,a4
80005938:	00000793          	li	a5,0
8000593c:	a2dff06f          	j	80005368 <__divdf3+0x174>
80005940:	f80f92e3          	bnez	t6,800058c4 <__divdf3+0x6d0>
80005944:	0077f693          	andi	a3,a5,7
80005948:	0017d613          	srli	a2,a5,0x1
8000594c:	01f00b13          	li	s6,31
80005950:	00100713          	li	a4,1
80005954:	08069063          	bnez	a3,800059d4 <__divdf3+0x7e0>
80005958:	01641b33          	sll	s6,s0,s6
8000595c:	00d66633          	or	a2,a2,a3
80005960:	00cb67b3          	or	a5,s6,a2
80005964:	0077f693          	andi	a3,a5,7
80005968:	00e45433          	srl	s0,s0,a4
8000596c:	ea068ae3          	beqz	a3,80005820 <__divdf3+0x62c>
80005970:	00f7f713          	andi	a4,a5,15
80005974:	00400693          	li	a3,4
80005978:	ead704e3          	beq	a4,a3,80005820 <__divdf3+0x62c>
8000597c:	e95ff06f          	j	80005810 <__divdf3+0x61c>
80005980:	00181313          	slli	t1,a6,0x1
80005984:	010338b3          	sltu	a7,t1,a6
80005988:	00c888b3          	add	a7,a7,a2
8000598c:	011f08b3          	add	a7,t5,a7
80005990:	ffe78793          	addi	a5,a5,-2
80005994:	00030813          	mv	a6,t1
80005998:	eea88ae3          	beq	a7,a0,8000588c <__divdf3+0x698>
8000599c:	d5dff06f          	j	800056f8 <__divdf3+0x504>
800059a0:	fed860e3          	bltu	a6,a3,80005980 <__divdf3+0x78c>
800059a4:	00030793          	mv	a5,t1
800059a8:	d50698e3          	bne	a3,a6,800056f8 <__divdf3+0x504>
800059ac:	ac1ff06f          	j	8000546c <__divdf3+0x278>
800059b0:	41eb0b13          	addi	s6,s6,1054
800059b4:	016796b3          	sll	a3,a5,s6
800059b8:	00d036b3          	snez	a3,a3
800059bc:	00e7d633          	srl	a2,a5,a4
800059c0:	f99ff06f          	j	80005958 <__divdf3+0x764>
800059c4:	00941693          	slli	a3,s0,0x9
800059c8:	00c6d693          	srli	a3,a3,0xc
800059cc:	01d41713          	slli	a4,s0,0x1d
800059d0:	f61ff06f          	j	80005930 <__divdf3+0x73c>
800059d4:	00e7f6b3          	and	a3,a5,a4
800059d8:	f81ff06f          	j	80005958 <__divdf3+0x764>

800059dc <__ledf2>:
800059dc:	0145d893          	srli	a7,a1,0x14
800059e0:	001007b7          	lui	a5,0x100
800059e4:	0146d713          	srli	a4,a3,0x14
800059e8:	00050813          	mv	a6,a0
800059ec:	fff78793          	addi	a5,a5,-1 # fffff <_start-0x7ff00001>
800059f0:	7ff00313          	li	t1,2047
800059f4:	7ff8f893          	andi	a7,a7,2047
800059f8:	00677533          	and	a0,a4,t1
800059fc:	00080e13          	mv	t3,a6
80005a00:	00b7f733          	and	a4,a5,a1
80005a04:	00060e93          	mv	t4,a2
80005a08:	00d7f7b3          	and	a5,a5,a3
80005a0c:	01f5d593          	srli	a1,a1,0x1f
80005a10:	01f6d693          	srli	a3,a3,0x1f
80005a14:	04688e63          	beq	a7,t1,80005a70 <__ledf2+0x94>
80005a18:	02650463          	beq	a0,t1,80005a40 <__ledf2+0x64>
80005a1c:	06089c63          	bnez	a7,80005a94 <__ledf2+0xb8>
80005a20:	01076833          	or	a6,a4,a6
80005a24:	0a051063          	bnez	a0,80005ac4 <__ledf2+0xe8>
80005a28:	00c7e633          	or	a2,a5,a2
80005a2c:	02060e63          	beqz	a2,80005a68 <__ledf2+0x8c>
80005a30:	0a081263          	bnez	a6,80005ad4 <__ledf2+0xf8>
80005a34:	00169513          	slli	a0,a3,0x1
80005a38:	fff50513          	addi	a0,a0,-1
80005a3c:	00008067          	ret
80005a40:	00c7e633          	or	a2,a5,a2
80005a44:	00200513          	li	a0,2
80005a48:	02061263          	bnez	a2,80005a6c <__ledf2+0x90>
80005a4c:	00089663          	bnez	a7,80005a58 <__ledf2+0x7c>
80005a50:	01076733          	or	a4,a4,a6
80005a54:	fe0700e3          	beqz	a4,80005a34 <__ledf2+0x58>
80005a58:	06d58063          	beq	a1,a3,80005ab8 <__ledf2+0xdc>
80005a5c:	40b005b3          	neg	a1,a1
80005a60:	0015e513          	ori	a0,a1,1
80005a64:	00008067          	ret
80005a68:	fe081ae3          	bnez	a6,80005a5c <__ledf2+0x80>
80005a6c:	00008067          	ret
80005a70:	01076733          	or	a4,a4,a6
80005a74:	04071c63          	bnez	a4,80005acc <__ledf2+0xf0>
80005a78:	ff1512e3          	bne	a0,a7,80005a5c <__ledf2+0x80>
80005a7c:	00c7e7b3          	or	a5,a5,a2
80005a80:	00200513          	li	a0,2
80005a84:	fe0794e3          	bnez	a5,80005a6c <__ledf2+0x90>
80005a88:	fcd59ae3          	bne	a1,a3,80005a5c <__ledf2+0x80>
80005a8c:	00000513          	li	a0,0
80005a90:	00008067          	ret
80005a94:	fc0504e3          	beqz	a0,80005a5c <__ledf2+0x80>
80005a98:	fcd592e3          	bne	a1,a3,80005a5c <__ledf2+0x80>
80005a9c:	fd1540e3          	blt	a0,a7,80005a5c <__ledf2+0x80>
80005aa0:	00a8cc63          	blt	a7,a0,80005ab8 <__ledf2+0xdc>
80005aa4:	fae7ece3          	bltu	a5,a4,80005a5c <__ledf2+0x80>
80005aa8:	00f71863          	bne	a4,a5,80005ab8 <__ledf2+0xdc>
80005aac:	fbcee8e3          	bltu	t4,t3,80005a5c <__ledf2+0x80>
80005ab0:	00000513          	li	a0,0
80005ab4:	fbde7ce3          	bgeu	t3,t4,80005a6c <__ledf2+0x90>
80005ab8:	00159513          	slli	a0,a1,0x1
80005abc:	fff50513          	addi	a0,a0,-1
80005ac0:	00008067          	ret
80005ac4:	f60808e3          	beqz	a6,80005a34 <__ledf2+0x58>
80005ac8:	f91ff06f          	j	80005a58 <__ledf2+0x7c>
80005acc:	00200513          	li	a0,2
80005ad0:	00008067          	ret
80005ad4:	fcd588e3          	beq	a1,a3,80005aa4 <__ledf2+0xc8>
80005ad8:	f85ff06f          	j	80005a5c <__ledf2+0x80>

80005adc <__muldf3>:
80005adc:	fd010113          	addi	sp,sp,-48
80005ae0:	0145d793          	srli	a5,a1,0x14
80005ae4:	02812423          	sw	s0,40(sp)
80005ae8:	02912223          	sw	s1,36(sp)
80005aec:	01412c23          	sw	s4,24(sp)
80005af0:	01512a23          	sw	s5,20(sp)
80005af4:	01812423          	sw	s8,8(sp)
80005af8:	00c59413          	slli	s0,a1,0xc
80005afc:	02112623          	sw	ra,44(sp)
80005b00:	03212023          	sw	s2,32(sp)
80005b04:	01312e23          	sw	s3,28(sp)
80005b08:	01612823          	sw	s6,16(sp)
80005b0c:	01712623          	sw	s7,12(sp)
80005b10:	01912223          	sw	s9,4(sp)
80005b14:	01a12023          	sw	s10,0(sp)
80005b18:	7ff7f793          	andi	a5,a5,2047
80005b1c:	00050a93          	mv	s5,a0
80005b20:	00060c13          	mv	s8,a2
80005b24:	00068493          	mv	s1,a3
80005b28:	00c45413          	srli	s0,s0,0xc
80005b2c:	01f5da13          	srli	s4,a1,0x1f
80005b30:	42078863          	beqz	a5,80005f60 <__muldf3+0x484>
80005b34:	7ff00713          	li	a4,2047
80005b38:	2ae78663          	beq	a5,a4,80005de4 <__muldf3+0x308>
80005b3c:	00341413          	slli	s0,s0,0x3
80005b40:	01d55713          	srli	a4,a0,0x1d
80005b44:	00876733          	or	a4,a4,s0
80005b48:	00800437          	lui	s0,0x800
80005b4c:	c0178b13          	addi	s6,a5,-1023
80005b50:	00351b93          	slli	s7,a0,0x3
80005b54:	00876433          	or	s0,a4,s0
80005b58:	00000c93          	li	s9,0
80005b5c:	00000d13          	li	s10,0
80005b60:	0144d793          	srli	a5,s1,0x14
80005b64:	00c49713          	slli	a4,s1,0xc
80005b68:	7ff7f793          	andi	a5,a5,2047
80005b6c:	00c75a93          	srli	s5,a4,0xc
80005b70:	01f4d493          	srli	s1,s1,0x1f
80005b74:	2a078063          	beqz	a5,80005e14 <__muldf3+0x338>
80005b78:	7ff00713          	li	a4,2047
80005b7c:	3ae78863          	beq	a5,a4,80005f2c <__muldf3+0x450>
80005b80:	c0178793          	addi	a5,a5,-1023
80005b84:	00a00713          	li	a4,10
80005b88:	00fb0b33          	add	s6,s6,a5
80005b8c:	2f974463          	blt	a4,s9,80005e74 <__muldf3+0x398>
80005b90:	003a9713          	slli	a4,s5,0x3
80005b94:	01dc5793          	srli	a5,s8,0x1d
80005b98:	00e7e7b3          	or	a5,a5,a4
80005b9c:	009a46b3          	xor	a3,s4,s1
80005ba0:	00800737          	lui	a4,0x800
80005ba4:	00200613          	li	a2,2
80005ba8:	00e7eab3          	or	s5,a5,a4
80005bac:	003c1813          	slli	a6,s8,0x3
80005bb0:	00068593          	mv	a1,a3
80005bb4:	00000793          	li	a5,0
80005bb8:	03965263          	bge	a2,s9,80005bdc <__muldf3+0x100>
80005bbc:	00100613          	li	a2,1
80005bc0:	01961633          	sll	a2,a2,s9
80005bc4:	53067713          	andi	a4,a2,1328
80005bc8:	2a071863          	bnez	a4,80005e78 <__muldf3+0x39c>
80005bcc:	24067593          	andi	a1,a2,576
80005bd0:	50059e63          	bnez	a1,800060ec <__muldf3+0x610>
80005bd4:	08867613          	andi	a2,a2,136
80005bd8:	4e061463          	bnez	a2,800060c0 <__muldf3+0x5e4>
80005bdc:	010b9793          	slli	a5,s7,0x10
80005be0:	01081613          	slli	a2,a6,0x10
80005be4:	0107d793          	srli	a5,a5,0x10
80005be8:	01065613          	srli	a2,a2,0x10
80005bec:	010bdb93          	srli	s7,s7,0x10
80005bf0:	01085813          	srli	a6,a6,0x10
80005bf4:	02c78733          	mul	a4,a5,a2
80005bf8:	02cb8533          	mul	a0,s7,a2
80005bfc:	01075313          	srli	t1,a4,0x10
80005c00:	02f805b3          	mul	a1,a6,a5
80005c04:	00a585b3          	add	a1,a1,a0
80005c08:	00b30333          	add	t1,t1,a1
80005c0c:	030b8eb3          	mul	t4,s7,a6
80005c10:	00a37663          	bgeu	t1,a0,80005c1c <__muldf3+0x140>
80005c14:	000105b7          	lui	a1,0x10
80005c18:	00be8eb3          	add	t4,t4,a1
80005c1c:	010a9e13          	slli	t3,s5,0x10
80005c20:	01071713          	slli	a4,a4,0x10
80005c24:	010e5e13          	srli	t3,t3,0x10
80005c28:	010ada93          	srli	s5,s5,0x10
80005c2c:	01075713          	srli	a4,a4,0x10
80005c30:	01031593          	slli	a1,t1,0x10
80005c34:	03cb88b3          	mul	a7,s7,t3
80005c38:	00e585b3          	add	a1,a1,a4
80005c3c:	01035313          	srli	t1,t1,0x10
80005c40:	03c78733          	mul	a4,a5,t3
80005c44:	02fa87b3          	mul	a5,s5,a5
80005c48:	01075513          	srli	a0,a4,0x10
80005c4c:	011787b3          	add	a5,a5,a7
80005c50:	00f50533          	add	a0,a0,a5
80005c54:	035b8bb3          	mul	s7,s7,s5
80005c58:	01157663          	bgeu	a0,a7,80005c64 <__muldf3+0x188>
80005c5c:	000107b7          	lui	a5,0x10
80005c60:	00fb8bb3          	add	s7,s7,a5
80005c64:	01041793          	slli	a5,s0,0x10
80005c68:	01071893          	slli	a7,a4,0x10
80005c6c:	0107d793          	srli	a5,a5,0x10
80005c70:	01045413          	srli	s0,s0,0x10
80005c74:	0108d893          	srli	a7,a7,0x10
80005c78:	01051713          	slli	a4,a0,0x10
80005c7c:	02f80fb3          	mul	t6,a6,a5
80005c80:	01170733          	add	a4,a4,a7
80005c84:	01055513          	srli	a0,a0,0x10
80005c88:	00e30333          	add	t1,t1,a4
80005c8c:	01750533          	add	a0,a0,s7
80005c90:	02c408b3          	mul	a7,s0,a2
80005c94:	02c78f33          	mul	t5,a5,a2
80005c98:	011f8fb3          	add	t6,t6,a7
80005c9c:	010f5613          	srli	a2,t5,0x10
80005ca0:	01f60633          	add	a2,a2,t6
80005ca4:	02880833          	mul	a6,a6,s0
80005ca8:	01167663          	bgeu	a2,a7,80005cb4 <__muldf3+0x1d8>
80005cac:	000108b7          	lui	a7,0x10
80005cb0:	01180833          	add	a6,a6,a7
80005cb4:	010f1f13          	slli	t5,t5,0x10
80005cb8:	01061893          	slli	a7,a2,0x10
80005cbc:	010f5f13          	srli	t5,t5,0x10
80005cc0:	01065613          	srli	a2,a2,0x10
80005cc4:	01e88f33          	add	t5,a7,t5
80005cc8:	01060633          	add	a2,a2,a6
80005ccc:	03c408b3          	mul	a7,s0,t3
80005cd0:	03c78833          	mul	a6,a5,t3
80005cd4:	02fa87b3          	mul	a5,s5,a5
80005cd8:	01085e13          	srli	t3,a6,0x10
80005cdc:	011787b3          	add	a5,a5,a7
80005ce0:	00fe0e33          	add	t3,t3,a5
80005ce4:	028a8ab3          	mul	s5,s5,s0
80005ce8:	011e7663          	bgeu	t3,a7,80005cf4 <__muldf3+0x218>
80005cec:	000107b7          	lui	a5,0x10
80005cf0:	00fa8ab3          	add	s5,s5,a5
80005cf4:	01081893          	slli	a7,a6,0x10
80005cf8:	0108d893          	srli	a7,a7,0x10
80005cfc:	010e1793          	slli	a5,t3,0x10
80005d00:	01d30833          	add	a6,t1,t4
80005d04:	011787b3          	add	a5,a5,a7
80005d08:	00a78533          	add	a0,a5,a0
80005d0c:	00e83733          	sltu	a4,a6,a4
80005d10:	01e808b3          	add	a7,a6,t5
80005d14:	00e50733          	add	a4,a0,a4
80005d18:	00c70633          	add	a2,a4,a2
80005d1c:	0108b833          	sltu	a6,a7,a6
80005d20:	01060833          	add	a6,a2,a6
80005d24:	00f537b3          	sltu	a5,a0,a5
80005d28:	00a73533          	sltu	a0,a4,a0
80005d2c:	00a7e7b3          	or	a5,a5,a0
80005d30:	00e63733          	sltu	a4,a2,a4
80005d34:	010e5e13          	srli	t3,t3,0x10
80005d38:	00c83633          	sltu	a2,a6,a2
80005d3c:	01c787b3          	add	a5,a5,t3
80005d40:	00c76733          	or	a4,a4,a2
80005d44:	00989b93          	slli	s7,a7,0x9
80005d48:	00f70733          	add	a4,a4,a5
80005d4c:	00bbebb3          	or	s7,s7,a1
80005d50:	01570733          	add	a4,a4,s5
80005d54:	00971713          	slli	a4,a4,0x9
80005d58:	01703bb3          	snez	s7,s7
80005d5c:	0178d893          	srli	a7,a7,0x17
80005d60:	01785413          	srli	s0,a6,0x17
80005d64:	011bebb3          	or	s7,s7,a7
80005d68:	00981813          	slli	a6,a6,0x9
80005d6c:	00771793          	slli	a5,a4,0x7
80005d70:	00876433          	or	s0,a4,s0
80005d74:	010bebb3          	or	s7,s7,a6
80005d78:	1607cc63          	bltz	a5,80005ef0 <__muldf3+0x414>
80005d7c:	3ffb0793          	addi	a5,s6,1023
80005d80:	2cf05e63          	blez	a5,8000605c <__muldf3+0x580>
80005d84:	007bf713          	andi	a4,s7,7
80005d88:	02070c63          	beqz	a4,80005dc0 <__muldf3+0x2e4>
80005d8c:	00fbf713          	andi	a4,s7,15
80005d90:	00400613          	li	a2,4
80005d94:	02c70663          	beq	a4,a2,80005dc0 <__muldf3+0x2e4>
80005d98:	004b8713          	addi	a4,s7,4
80005d9c:	01773bb3          	sltu	s7,a4,s7
80005da0:	01740433          	add	s0,s0,s7
80005da4:	00070b93          	mv	s7,a4
80005da8:	00741713          	slli	a4,s0,0x7
80005dac:	00075a63          	bgez	a4,80005dc0 <__muldf3+0x2e4>
80005db0:	ff000737          	lui	a4,0xff000
80005db4:	fff70713          	addi	a4,a4,-1 # feffffff <maxheap+0x7eff0fef>
80005db8:	400b0793          	addi	a5,s6,1024
80005dbc:	00e47433          	and	s0,s0,a4
80005dc0:	7fe00713          	li	a4,2046
80005dc4:	32f74c63          	blt	a4,a5,800060fc <__muldf3+0x620>
80005dc8:	01d41713          	slli	a4,s0,0x1d
80005dcc:	003bdb93          	srli	s7,s7,0x3
80005dd0:	00941413          	slli	s0,s0,0x9
80005dd4:	7ff7f793          	andi	a5,a5,2047
80005dd8:	01776733          	or	a4,a4,s7
80005ddc:	00c45413          	srli	s0,s0,0xc
80005de0:	0c00006f          	j	80005ea0 <__muldf3+0x3c4>
80005de4:	00a46bb3          	or	s7,s0,a0
80005de8:	240b9663          	bnez	s7,80006034 <__muldf3+0x558>
80005dec:	00078b13          	mv	s6,a5
80005df0:	0144d793          	srli	a5,s1,0x14
80005df4:	00c49713          	slli	a4,s1,0xc
80005df8:	7ff7f793          	andi	a5,a5,2047
80005dfc:	00000413          	li	s0,0
80005e00:	00800c93          	li	s9,8
80005e04:	00200d13          	li	s10,2
80005e08:	00c75a93          	srli	s5,a4,0xc
80005e0c:	01f4d493          	srli	s1,s1,0x1f
80005e10:	d60794e3          	bnez	a5,80005b78 <__muldf3+0x9c>
80005e14:	018ae833          	or	a6,s5,s8
80005e18:	1a080463          	beqz	a6,80005fc0 <__muldf3+0x4e4>
80005e1c:	300a8a63          	beqz	s5,80006130 <__muldf3+0x654>
80005e20:	000a8513          	mv	a0,s5
80005e24:	130020ef          	jal	80007f54 <__clzsi2>
80005e28:	00050793          	mv	a5,a0
80005e2c:	ff550713          	addi	a4,a0,-11
80005e30:	01d00693          	li	a3,29
80005e34:	40e686b3          	sub	a3,a3,a4
80005e38:	ff878813          	addi	a6,a5,-8 # fff8 <_start-0x7fff0008>
80005e3c:	010a9733          	sll	a4,s5,a6
80005e40:	00dc56b3          	srl	a3,s8,a3
80005e44:	00e6eab3          	or	s5,a3,a4
80005e48:	010c1833          	sll	a6,s8,a6
80005e4c:	40fb07b3          	sub	a5,s6,a5
80005e50:	00a00713          	li	a4,10
80005e54:	c0d78b13          	addi	s6,a5,-1011
80005e58:	01974e63          	blt	a4,s9,80005e74 <__muldf3+0x398>
80005e5c:	00200793          	li	a5,2
80005e60:	009a46b3          	xor	a3,s4,s1
80005e64:	d797dce3          	bge	a5,s9,80005bdc <__muldf3+0x100>
80005e68:	00068593          	mv	a1,a3
80005e6c:	00000793          	li	a5,0
80005e70:	d4dff06f          	j	80005bbc <__muldf3+0xe0>
80005e74:	000a0593          	mv	a1,s4
80005e78:	00200793          	li	a5,2
80005e7c:	24fd0e63          	beq	s10,a5,800060d8 <__muldf3+0x5fc>
80005e80:	00300793          	li	a5,3
80005e84:	1cfd0263          	beq	s10,a5,80006048 <__muldf3+0x56c>
80005e88:	00100793          	li	a5,1
80005e8c:	00058693          	mv	a3,a1
80005e90:	06fd1c63          	bne	s10,a5,80005f08 <__muldf3+0x42c>
80005e94:	00000793          	li	a5,0
80005e98:	00000413          	li	s0,0
80005e9c:	00000713          	li	a4,0
80005ea0:	01479793          	slli	a5,a5,0x14
80005ea4:	02c12083          	lw	ra,44(sp)
80005ea8:	0087e7b3          	or	a5,a5,s0
80005eac:	02812403          	lw	s0,40(sp)
80005eb0:	01f69693          	slli	a3,a3,0x1f
80005eb4:	00d7e7b3          	or	a5,a5,a3
80005eb8:	02412483          	lw	s1,36(sp)
80005ebc:	02012903          	lw	s2,32(sp)
80005ec0:	01c12983          	lw	s3,28(sp)
80005ec4:	01812a03          	lw	s4,24(sp)
80005ec8:	01412a83          	lw	s5,20(sp)
80005ecc:	01012b03          	lw	s6,16(sp)
80005ed0:	00c12b83          	lw	s7,12(sp)
80005ed4:	00812c03          	lw	s8,8(sp)
80005ed8:	00412c83          	lw	s9,4(sp)
80005edc:	00012d03          	lw	s10,0(sp)
80005ee0:	00070513          	mv	a0,a4
80005ee4:	00078593          	mv	a1,a5
80005ee8:	03010113          	addi	sp,sp,48
80005eec:	00008067          	ret
80005ef0:	001bd793          	srli	a5,s7,0x1
80005ef4:	001bfb93          	andi	s7,s7,1
80005ef8:	0177e7b3          	or	a5,a5,s7
80005efc:	01f41b93          	slli	s7,s0,0x1f
80005f00:	0177ebb3          	or	s7,a5,s7
80005f04:	00145413          	srli	s0,s0,0x1
80005f08:	400b0793          	addi	a5,s6,1024
80005f0c:	001b0b13          	addi	s6,s6,1
80005f10:	14f05663          	blez	a5,8000605c <__muldf3+0x580>
80005f14:	007bf713          	andi	a4,s7,7
80005f18:	e80708e3          	beqz	a4,80005da8 <__muldf3+0x2cc>
80005f1c:	00fbf713          	andi	a4,s7,15
80005f20:	00400613          	li	a2,4
80005f24:	e6c71ae3          	bne	a4,a2,80005d98 <__muldf3+0x2bc>
80005f28:	e81ff06f          	j	80005da8 <__muldf3+0x2cc>
80005f2c:	018ae833          	or	a6,s5,s8
80005f30:	7ffb0b13          	addi	s6,s6,2047
80005f34:	0c081a63          	bnez	a6,80006008 <__muldf3+0x52c>
80005f38:	002ce793          	ori	a5,s9,2
80005f3c:	00a00713          	li	a4,10
80005f40:	f2f74ae3          	blt	a4,a5,80005e74 <__muldf3+0x398>
80005f44:	009a45b3          	xor	a1,s4,s1
80005f48:	00058693          	mv	a3,a1
80005f4c:	280c8a63          	beqz	s9,800061e0 <__muldf3+0x704>
80005f50:	00078c93          	mv	s9,a5
80005f54:	00000a93          	li	s5,0
80005f58:	00200793          	li	a5,2
80005f5c:	c61ff06f          	j	80005bbc <__muldf3+0xe0>
80005f60:	00a46bb3          	or	s7,s0,a0
80005f64:	040b8463          	beqz	s7,80005fac <__muldf3+0x4d0>
80005f68:	1a040263          	beqz	s0,8000610c <__muldf3+0x630>
80005f6c:	00040513          	mv	a0,s0
80005f70:	7e5010ef          	jal	80007f54 <__clzsi2>
80005f74:	00050713          	mv	a4,a0
80005f78:	ff550693          	addi	a3,a0,-11
80005f7c:	01d00793          	li	a5,29
80005f80:	ff870b93          	addi	s7,a4,-8
80005f84:	40d787b3          	sub	a5,a5,a3
80005f88:	01741433          	sll	s0,s0,s7
80005f8c:	00fad7b3          	srl	a5,s5,a5
80005f90:	0087e433          	or	s0,a5,s0
80005f94:	017a9bb3          	sll	s7,s5,s7
80005f98:	c0d00793          	li	a5,-1011
80005f9c:	40e78b33          	sub	s6,a5,a4
80005fa0:	00000c93          	li	s9,0
80005fa4:	00000d13          	li	s10,0
80005fa8:	bb9ff06f          	j	80005b60 <__muldf3+0x84>
80005fac:	00000413          	li	s0,0
80005fb0:	00400c93          	li	s9,4
80005fb4:	00000b13          	li	s6,0
80005fb8:	00100d13          	li	s10,1
80005fbc:	ba5ff06f          	j	80005b60 <__muldf3+0x84>
80005fc0:	001cec93          	ori	s9,s9,1
80005fc4:	00a00793          	li	a5,10
80005fc8:	eb97c6e3          	blt	a5,s9,80005e74 <__muldf3+0x398>
80005fcc:	009a45b3          	xor	a1,s4,s1
80005fd0:	00200713          	li	a4,2
80005fd4:	00058693          	mv	a3,a1
80005fd8:	00000a93          	li	s5,0
80005fdc:	00100793          	li	a5,1
80005fe0:	bd974ee3          	blt	a4,s9,80005bbc <__muldf3+0xe0>
80005fe4:	00200713          	li	a4,2
80005fe8:	0ee78863          	beq	a5,a4,800060d8 <__muldf3+0x5fc>
80005fec:	00100d13          	li	s10,1
80005ff0:	00100793          	li	a5,1
80005ff4:	00000413          	li	s0,0
80005ff8:	00000b93          	li	s7,0
80005ffc:	00058693          	mv	a3,a1
80006000:	f0fd14e3          	bne	s10,a5,80005f08 <__muldf3+0x42c>
80006004:	e91ff06f          	j	80005e94 <__muldf3+0x3b8>
80006008:	003cec93          	ori	s9,s9,3
8000600c:	00a00713          	li	a4,10
80006010:	1d974063          	blt	a4,s9,800061d0 <__muldf3+0x6f4>
80006014:	00100713          	li	a4,1
80006018:	01971633          	sll	a2,a4,s9
8000601c:	08867613          	andi	a2,a2,136
80006020:	009a46b3          	xor	a3,s4,s1
80006024:	000c0813          	mv	a6,s8
80006028:	00300793          	li	a5,3
8000602c:	ba0608e3          	beqz	a2,80005bdc <__muldf3+0x100>
80006030:	0900006f          	j	800060c0 <__muldf3+0x5e4>
80006034:	00050b93          	mv	s7,a0
80006038:	00078b13          	mv	s6,a5
8000603c:	00c00c93          	li	s9,12
80006040:	00300d13          	li	s10,3
80006044:	b1dff06f          	j	80005b60 <__muldf3+0x84>
80006048:	00000693          	li	a3,0
8000604c:	7ff00793          	li	a5,2047
80006050:	00080437          	lui	s0,0x80
80006054:	00000713          	li	a4,0
80006058:	e49ff06f          	j	80005ea0 <__muldf3+0x3c4>
8000605c:	00100613          	li	a2,1
80006060:	0e079c63          	bnez	a5,80006158 <__muldf3+0x67c>
80006064:	41eb0b13          	addi	s6,s6,1054
80006068:	016b97b3          	sll	a5,s7,s6
8000606c:	00f037b3          	snez	a5,a5
80006070:	01641b33          	sll	s6,s0,s6
80006074:	0167e7b3          	or	a5,a5,s6
80006078:	00cbd733          	srl	a4,s7,a2
8000607c:	00f76733          	or	a4,a4,a5
80006080:	00777793          	andi	a5,a4,7
80006084:	00c45633          	srl	a2,s0,a2
80006088:	02078063          	beqz	a5,800060a8 <__muldf3+0x5cc>
8000608c:	00f77793          	andi	a5,a4,15
80006090:	00400593          	li	a1,4
80006094:	00b78a63          	beq	a5,a1,800060a8 <__muldf3+0x5cc>
80006098:	00b707b3          	add	a5,a4,a1
8000609c:	00e7b733          	sltu	a4,a5,a4
800060a0:	00e60633          	add	a2,a2,a4
800060a4:	00078713          	mv	a4,a5
800060a8:	00861793          	slli	a5,a2,0x8
800060ac:	1207de63          	bgez	a5,800061e8 <__muldf3+0x70c>
800060b0:	00100793          	li	a5,1
800060b4:	00000413          	li	s0,0
800060b8:	00000713          	li	a4,0
800060bc:	de5ff06f          	j	80005ea0 <__muldf3+0x3c4>
800060c0:	00078d13          	mv	s10,a5
800060c4:	00200793          	li	a5,2
800060c8:	00048593          	mv	a1,s1
800060cc:	000a8413          	mv	s0,s5
800060d0:	00080b93          	mv	s7,a6
800060d4:	dafd16e3          	bne	s10,a5,80005e80 <__muldf3+0x3a4>
800060d8:	00058693          	mv	a3,a1
800060dc:	7ff00793          	li	a5,2047
800060e0:	00000413          	li	s0,0
800060e4:	00000713          	li	a4,0
800060e8:	db9ff06f          	j	80005ea0 <__muldf3+0x3c4>
800060ec:	00000693          	li	a3,0
800060f0:	7ff00793          	li	a5,2047
800060f4:	00080437          	lui	s0,0x80
800060f8:	da9ff06f          	j	80005ea0 <__muldf3+0x3c4>
800060fc:	7ff00793          	li	a5,2047
80006100:	00000413          	li	s0,0
80006104:	00000713          	li	a4,0
80006108:	d99ff06f          	j	80005ea0 <__muldf3+0x3c4>
8000610c:	649010ef          	jal	80007f54 <__clzsi2>
80006110:	01550693          	addi	a3,a0,21
80006114:	01c00793          	li	a5,28
80006118:	02050713          	addi	a4,a0,32
8000611c:	e6d7d0e3          	bge	a5,a3,80005f7c <__muldf3+0x4a0>
80006120:	ff850513          	addi	a0,a0,-8
80006124:	00aa9433          	sll	s0,s5,a0
80006128:	00000b93          	li	s7,0
8000612c:	e6dff06f          	j	80005f98 <__muldf3+0x4bc>
80006130:	000c0513          	mv	a0,s8
80006134:	621010ef          	jal	80007f54 <__clzsi2>
80006138:	01550713          	addi	a4,a0,21
8000613c:	01c00693          	li	a3,28
80006140:	02050793          	addi	a5,a0,32
80006144:	cee6d6e3          	bge	a3,a4,80005e30 <__muldf3+0x354>
80006148:	ff850513          	addi	a0,a0,-8
8000614c:	00ac1ab3          	sll	s5,s8,a0
80006150:	00000813          	li	a6,0
80006154:	cf9ff06f          	j	80005e4c <__muldf3+0x370>
80006158:	40f60633          	sub	a2,a2,a5
8000615c:	03800713          	li	a4,56
80006160:	d2c74ae3          	blt	a4,a2,80005e94 <__muldf3+0x3b8>
80006164:	01f00713          	li	a4,31
80006168:	eec75ee3          	bge	a4,a2,80006064 <__muldf3+0x588>
8000616c:	fe100713          	li	a4,-31
80006170:	40f707b3          	sub	a5,a4,a5
80006174:	02000713          	li	a4,32
80006178:	00f457b3          	srl	a5,s0,a5
8000617c:	00e60863          	beq	a2,a4,8000618c <__muldf3+0x6b0>
80006180:	43eb0b13          	addi	s6,s6,1086
80006184:	01641b33          	sll	s6,s0,s6
80006188:	016bebb3          	or	s7,s7,s6
8000618c:	01703733          	snez	a4,s7
80006190:	00f76733          	or	a4,a4,a5
80006194:	00777793          	andi	a5,a4,7
80006198:	00000413          	li	s0,0
8000619c:	02078263          	beqz	a5,800061c0 <__muldf3+0x6e4>
800061a0:	00f77613          	andi	a2,a4,15
800061a4:	00400593          	li	a1,4
800061a8:	00000793          	li	a5,0
800061ac:	00b60a63          	beq	a2,a1,800061c0 <__muldf3+0x6e4>
800061b0:	00b70633          	add	a2,a4,a1
800061b4:	00e63733          	sltu	a4,a2,a4
800061b8:	01d71793          	slli	a5,a4,0x1d
800061bc:	00060713          	mv	a4,a2
800061c0:	00375713          	srli	a4,a4,0x3
800061c4:	00f76733          	or	a4,a4,a5
800061c8:	00000793          	li	a5,0
800061cc:	cd5ff06f          	j	80005ea0 <__muldf3+0x3c4>
800061d0:	00000693          	li	a3,0
800061d4:	00080437          	lui	s0,0x80
800061d8:	00000713          	li	a4,0
800061dc:	cc5ff06f          	j	80005ea0 <__muldf3+0x3c4>
800061e0:	00200793          	li	a5,2
800061e4:	e01ff06f          	j	80005fe4 <__muldf3+0x508>
800061e8:	00961413          	slli	s0,a2,0x9
800061ec:	00c45413          	srli	s0,s0,0xc
800061f0:	01d61793          	slli	a5,a2,0x1d
800061f4:	fcdff06f          	j	800061c0 <__muldf3+0x6e4>

800061f8 <__fixdfsi>:
800061f8:	0145d793          	srli	a5,a1,0x14
800061fc:	001006b7          	lui	a3,0x100
80006200:	fff68713          	addi	a4,a3,-1 # fffff <_start-0x7ff00001>
80006204:	7ff7f793          	andi	a5,a5,2047
80006208:	3fe00613          	li	a2,1022
8000620c:	00b77733          	and	a4,a4,a1
80006210:	01f5d593          	srli	a1,a1,0x1f
80006214:	00f65e63          	bge	a2,a5,80006230 <__fixdfsi+0x38>
80006218:	41d00613          	li	a2,1053
8000621c:	00f65e63          	bge	a2,a5,80006238 <__fixdfsi+0x40>
80006220:	80000537          	lui	a0,0x80000
80006224:	fff50513          	addi	a0,a0,-1 # 7fffffff <_start-0x1>
80006228:	00a58533          	add	a0,a1,a0
8000622c:	00008067          	ret
80006230:	00000513          	li	a0,0
80006234:	00008067          	ret
80006238:	43300613          	li	a2,1075
8000623c:	40f60633          	sub	a2,a2,a5
80006240:	01f00813          	li	a6,31
80006244:	00d76733          	or	a4,a4,a3
80006248:	02c85063          	bge	a6,a2,80006268 <__fixdfsi+0x70>
8000624c:	41300693          	li	a3,1043
80006250:	40f687b3          	sub	a5,a3,a5
80006254:	00f75733          	srl	a4,a4,a5
80006258:	40e00533          	neg	a0,a4
8000625c:	fc059ce3          	bnez	a1,80006234 <__fixdfsi+0x3c>
80006260:	00070513          	mv	a0,a4
80006264:	00008067          	ret
80006268:	bed78793          	addi	a5,a5,-1043
8000626c:	00f71733          	sll	a4,a4,a5
80006270:	00c55533          	srl	a0,a0,a2
80006274:	00a76733          	or	a4,a4,a0
80006278:	fe1ff06f          	j	80006258 <__fixdfsi+0x60>

8000627c <__floatsidf>:
8000627c:	fe010113          	addi	sp,sp,-32
80006280:	00112e23          	sw	ra,28(sp)
80006284:	00812c23          	sw	s0,24(sp)
80006288:	00912a23          	sw	s1,20(sp)
8000628c:	01212823          	sw	s2,16(sp)
80006290:	01312623          	sw	s3,12(sp)
80006294:	04050a63          	beqz	a0,800062e8 <__floatsidf+0x6c>
80006298:	41f55713          	srai	a4,a0,0x1f
8000629c:	00a744b3          	xor	s1,a4,a0
800062a0:	40e484b3          	sub	s1,s1,a4
800062a4:	00050793          	mv	a5,a0
800062a8:	00048513          	mv	a0,s1
800062ac:	01f7d413          	srli	s0,a5,0x1f
800062b0:	4a5010ef          	jal	80007f54 <__clzsi2>
800062b4:	41e00793          	li	a5,1054
800062b8:	40a787b3          	sub	a5,a5,a0
800062bc:	00a00713          	li	a4,10
800062c0:	7ff7f793          	andi	a5,a5,2047
800062c4:	06a74463          	blt	a4,a0,8000632c <__floatsidf+0xb0>
800062c8:	00b00713          	li	a4,11
800062cc:	40a70733          	sub	a4,a4,a0
800062d0:	00e4d733          	srl	a4,s1,a4
800062d4:	00c71713          	slli	a4,a4,0xc
800062d8:	01550513          	addi	a0,a0,21
800062dc:	00c75713          	srli	a4,a4,0xc
800062e0:	00a494b3          	sll	s1,s1,a0
800062e4:	0140006f          	j	800062f8 <__floatsidf+0x7c>
800062e8:	00000413          	li	s0,0
800062ec:	00000793          	li	a5,0
800062f0:	00000713          	li	a4,0
800062f4:	00000493          	li	s1,0
800062f8:	01479793          	slli	a5,a5,0x14
800062fc:	01f41413          	slli	s0,s0,0x1f
80006300:	00e7e7b3          	or	a5,a5,a4
80006304:	01c12083          	lw	ra,28(sp)
80006308:	0087e7b3          	or	a5,a5,s0
8000630c:	01812403          	lw	s0,24(sp)
80006310:	01012903          	lw	s2,16(sp)
80006314:	00c12983          	lw	s3,12(sp)
80006318:	00048513          	mv	a0,s1
8000631c:	00078593          	mv	a1,a5
80006320:	01412483          	lw	s1,20(sp)
80006324:	02010113          	addi	sp,sp,32
80006328:	00008067          	ret
8000632c:	ff550513          	addi	a0,a0,-11
80006330:	00a49733          	sll	a4,s1,a0
80006334:	00c71713          	slli	a4,a4,0xc
80006338:	00c75713          	srli	a4,a4,0xc
8000633c:	00000493          	li	s1,0
80006340:	fb9ff06f          	j	800062f8 <__floatsidf+0x7c>

80006344 <__addsf3>:
80006344:	008006b7          	lui	a3,0x800
80006348:	fe010113          	addi	sp,sp,-32
8000634c:	01755793          	srli	a5,a0,0x17
80006350:	0175d613          	srli	a2,a1,0x17
80006354:	fff68693          	addi	a3,a3,-1 # 7fffff <_start-0x7f800001>
80006358:	00a6f733          	and	a4,a3,a0
8000635c:	00912a23          	sw	s1,20(sp)
80006360:	01212823          	sw	s2,16(sp)
80006364:	0ff67613          	zext.b	a2,a2
80006368:	0ff7f913          	zext.b	s2,a5
8000636c:	01f55493          	srli	s1,a0,0x1f
80006370:	00112e23          	sw	ra,28(sp)
80006374:	00b6f533          	and	a0,a3,a1
80006378:	01f5d593          	srli	a1,a1,0x1f
8000637c:	40c907b3          	sub	a5,s2,a2
80006380:	00371313          	slli	t1,a4,0x3
80006384:	00351893          	slli	a7,a0,0x3
80006388:	0eb48663          	beq	s1,a1,80006474 <__addsf3+0x130>
8000638c:	0cf05063          	blez	a5,8000644c <__addsf3+0x108>
80006390:	16060263          	beqz	a2,800064f4 <__addsf3+0x1b0>
80006394:	0ff00693          	li	a3,255
80006398:	24d90c63          	beq	s2,a3,800065f0 <__addsf3+0x2ac>
8000639c:	04000737          	lui	a4,0x4000
800063a0:	00e8e8b3          	or	a7,a7,a4
800063a4:	01b00713          	li	a4,27
800063a8:	30f75a63          	bge	a4,a5,800066bc <__addsf3+0x378>
800063ac:	fff30793          	addi	a5,t1,-1
800063b0:	00579713          	slli	a4,a5,0x5
800063b4:	22075463          	bgez	a4,800065dc <__addsf3+0x298>
800063b8:	00812c23          	sw	s0,24(sp)
800063bc:	fff00313          	li	t1,-1
800063c0:	00631693          	slli	a3,t1,0x6
800063c4:	0066d413          	srli	s0,a3,0x6
800063c8:	00040513          	mv	a0,s0
800063cc:	389010ef          	jal	80007f54 <__clzsi2>
800063d0:	ffb50513          	addi	a0,a0,-5
800063d4:	00a416b3          	sll	a3,s0,a0
800063d8:	29255a63          	bge	a0,s2,8000666c <__addsf3+0x328>
800063dc:	fc000337          	lui	t1,0xfc000
800063e0:	fff30313          	addi	t1,t1,-1 # fbffffff <maxheap+0x7bff0fef>
800063e4:	0076f713          	andi	a4,a3,7
800063e8:	40a907b3          	sub	a5,s2,a0
800063ec:	0066f333          	and	t1,a3,t1
800063f0:	58070263          	beqz	a4,80006974 <__addsf3+0x630>
800063f4:	00f6f693          	andi	a3,a3,15
800063f8:	00400713          	li	a4,4
800063fc:	01812403          	lw	s0,24(sp)
80006400:	1ee68263          	beq	a3,a4,800065e4 <__addsf3+0x2a0>
80006404:	00430313          	addi	t1,t1,4
80006408:	00531713          	slli	a4,t1,0x5
8000640c:	1c075c63          	bgez	a4,800065e4 <__addsf3+0x2a0>
80006410:	00178793          	addi	a5,a5,1
80006414:	0ff00713          	li	a4,255
80006418:	00048813          	mv	a6,s1
8000641c:	10e79463          	bne	a5,a4,80006524 <__addsf3+0x1e0>
80006420:	00078513          	mv	a0,a5
80006424:	00000713          	li	a4,0
80006428:	01c12083          	lw	ra,28(sp)
8000642c:	01751513          	slli	a0,a0,0x17
80006430:	00e56533          	or	a0,a0,a4
80006434:	01f81793          	slli	a5,a6,0x1f
80006438:	01412483          	lw	s1,20(sp)
8000643c:	01012903          	lw	s2,16(sp)
80006440:	00f56533          	or	a0,a0,a5
80006444:	02010113          	addi	sp,sp,32
80006448:	00008067          	ret
8000644c:	0e078463          	beqz	a5,80006534 <__addsf3+0x1f0>
80006450:	412607b3          	sub	a5,a2,s2
80006454:	14091e63          	bnez	s2,800065b0 <__addsf3+0x26c>
80006458:	3a030a63          	beqz	t1,8000680c <__addsf3+0x4c8>
8000645c:	fff78713          	addi	a4,a5,-1
80006460:	46070c63          	beqz	a4,800068d8 <__addsf3+0x594>
80006464:	0ff00693          	li	a3,255
80006468:	3ed78e63          	beq	a5,a3,80006864 <__addsf3+0x520>
8000646c:	00070793          	mv	a5,a4
80006470:	1500006f          	j	800065c0 <__addsf3+0x27c>
80006474:	00048813          	mv	a6,s1
80006478:	18f05a63          	blez	a5,8000660c <__addsf3+0x2c8>
8000647c:	10061263          	bnez	a2,80006580 <__addsf3+0x23c>
80006480:	16088263          	beqz	a7,800065e4 <__addsf3+0x2a0>
80006484:	fff78693          	addi	a3,a5,-1
80006488:	38068e63          	beqz	a3,80006824 <__addsf3+0x4e0>
8000648c:	0ff00613          	li	a2,255
80006490:	16c78063          	beq	a5,a2,800065f0 <__addsf3+0x2ac>
80006494:	01b00793          	li	a5,27
80006498:	0ed7cc63          	blt	a5,a3,80006590 <__addsf3+0x24c>
8000649c:	00068793          	mv	a5,a3
800064a0:	02000713          	li	a4,32
800064a4:	40f70733          	sub	a4,a4,a5
800064a8:	00e89733          	sll	a4,a7,a4
800064ac:	00e03733          	snez	a4,a4
800064b0:	00f8d7b3          	srl	a5,a7,a5
800064b4:	00e7e7b3          	or	a5,a5,a4
800064b8:	00f30333          	add	t1,t1,a5
800064bc:	00531793          	slli	a5,t1,0x5
800064c0:	2207d463          	bgez	a5,800066e8 <__addsf3+0x3a4>
800064c4:	00190793          	addi	a5,s2,1
800064c8:	0ff00713          	li	a4,255
800064cc:	f4e78ae3          	beq	a5,a4,80006420 <__addsf3+0xdc>
800064d0:	7e0006b7          	lui	a3,0x7e000
800064d4:	00135713          	srli	a4,t1,0x1
800064d8:	fff68693          	addi	a3,a3,-1 # 7dffffff <_start-0x2000001>
800064dc:	00d77733          	and	a4,a4,a3
800064e0:	00137313          	andi	t1,t1,1
800064e4:	00676333          	or	t1,a4,t1
800064e8:	00737713          	andi	a4,t1,7
800064ec:	1a071a63          	bnez	a4,800066a0 <__addsf3+0x35c>
800064f0:	1bc0006f          	j	800066ac <__addsf3+0x368>
800064f4:	0e088863          	beqz	a7,800065e4 <__addsf3+0x2a0>
800064f8:	fff78693          	addi	a3,a5,-1
800064fc:	14068063          	beqz	a3,8000663c <__addsf3+0x2f8>
80006500:	0ff00613          	li	a2,255
80006504:	0ec78663          	beq	a5,a2,800065f0 <__addsf3+0x2ac>
80006508:	00068793          	mv	a5,a3
8000650c:	e99ff06f          	j	800063a4 <__addsf3+0x60>
80006510:	00531713          	slli	a4,t1,0x5
80006514:	44075a63          	bgez	a4,80006968 <__addsf3+0x624>
80006518:	01812403          	lw	s0,24(sp)
8000651c:	00048813          	mv	a6,s1
80006520:	00100793          	li	a5,1
80006524:	0ff7f513          	zext.b	a0,a5
80006528:	00631713          	slli	a4,t1,0x6
8000652c:	00975713          	srli	a4,a4,0x9
80006530:	ef9ff06f          	j	80006428 <__addsf3+0xe4>
80006534:	00190693          	addi	a3,s2,1
80006538:	0fe6f693          	andi	a3,a3,254
8000653c:	20069463          	bnez	a3,80006744 <__addsf3+0x400>
80006540:	0a091e63          	bnez	s2,800065fc <__addsf3+0x2b8>
80006544:	38030263          	beqz	t1,800068c8 <__addsf3+0x584>
80006548:	04088a63          	beqz	a7,8000659c <__addsf3+0x258>
8000654c:	41130733          	sub	a4,t1,a7
80006550:	00571693          	slli	a3,a4,0x5
80006554:	3406d663          	bgez	a3,800068a0 <__addsf3+0x55c>
80006558:	40688333          	sub	t1,a7,t1
8000655c:	00058813          	mv	a6,a1
80006560:	34030463          	beqz	t1,800068a8 <__addsf3+0x564>
80006564:	00531793          	slli	a5,t1,0x5
80006568:	00100513          	li	a0,1
8000656c:	fa07cee3          	bltz	a5,80006528 <__addsf3+0x1e4>
80006570:	00335713          	srli	a4,t1,0x3
80006574:	00058493          	mv	s1,a1
80006578:	00000793          	li	a5,0
8000657c:	0200006f          	j	8000659c <__addsf3+0x258>
80006580:	0ff00693          	li	a3,255
80006584:	06d90663          	beq	s2,a3,800065f0 <__addsf3+0x2ac>
80006588:	01b00713          	li	a4,27
8000658c:	1ef75063          	bge	a4,a5,8000676c <__addsf3+0x428>
80006590:	00530713          	addi	a4,t1,5
80006594:	00375713          	srli	a4,a4,0x3
80006598:	00090793          	mv	a5,s2
8000659c:	00971713          	slli	a4,a4,0x9
800065a0:	00975713          	srli	a4,a4,0x9
800065a4:	0ff7f513          	zext.b	a0,a5
800065a8:	00048813          	mv	a6,s1
800065ac:	e7dff06f          	j	80006428 <__addsf3+0xe4>
800065b0:	0ff00713          	li	a4,255
800065b4:	2ae60863          	beq	a2,a4,80006864 <__addsf3+0x520>
800065b8:	04000737          	lui	a4,0x4000
800065bc:	00e36333          	or	t1,t1,a4
800065c0:	01b00713          	li	a4,27
800065c4:	1af75a63          	bge	a4,a5,80006778 <__addsf3+0x434>
800065c8:	fff88793          	addi	a5,a7,-1 # ffff <_start-0x7fff0001>
800065cc:	00579713          	slli	a4,a5,0x5
800065d0:	2e074263          	bltz	a4,800068b4 <__addsf3+0x570>
800065d4:	00058493          	mv	s1,a1
800065d8:	00060913          	mv	s2,a2
800065dc:	00478313          	addi	t1,a5,4
800065e0:	00090793          	mv	a5,s2
800065e4:	0ff00693          	li	a3,255
800065e8:	00335713          	srli	a4,t1,0x3
800065ec:	fad798e3          	bne	a5,a3,8000659c <__addsf3+0x258>
800065f0:	00048813          	mv	a6,s1
800065f4:	0ff00513          	li	a0,255
800065f8:	e20708e3          	beqz	a4,80006428 <__addsf3+0xe4>
800065fc:	00000813          	li	a6,0
80006600:	0ff00513          	li	a0,255
80006604:	00400737          	lui	a4,0x400
80006608:	e21ff06f          	j	80006428 <__addsf3+0xe4>
8000660c:	0e078c63          	beqz	a5,80006704 <__addsf3+0x3c0>
80006610:	412607b3          	sub	a5,a2,s2
80006614:	1a091e63          	bnez	s2,800067d0 <__addsf3+0x48c>
80006618:	1e030c63          	beqz	t1,80006810 <__addsf3+0x4cc>
8000661c:	fff78713          	addi	a4,a5,-1
80006620:	20070263          	beqz	a4,80006824 <__addsf3+0x4e0>
80006624:	0ff00693          	li	a3,255
80006628:	24d78063          	beq	a5,a3,80006868 <__addsf3+0x524>
8000662c:	01b00793          	li	a5,27
80006630:	26e7c063          	blt	a5,a4,80006890 <__addsf3+0x54c>
80006634:	00070793          	mv	a5,a4
80006638:	1b00006f          	j	800067e8 <__addsf3+0x4a4>
8000663c:	41130733          	sub	a4,t1,a7
80006640:	00571693          	slli	a3,a4,0x5
80006644:	040007b7          	lui	a5,0x4000
80006648:	2206de63          	bgez	a3,80006884 <__addsf3+0x540>
8000664c:	fff78793          	addi	a5,a5,-1 # 3ffffff <_start-0x7c000001>
80006650:	00812c23          	sw	s0,24(sp)
80006654:	00f77433          	and	s0,a4,a5
80006658:	00040513          	mv	a0,s0
8000665c:	0f9010ef          	jal	80007f54 <__clzsi2>
80006660:	ffb50513          	addi	a0,a0,-5
80006664:	00a416b3          	sll	a3,s0,a0
80006668:	00100913          	li	s2,1
8000666c:	412507b3          	sub	a5,a0,s2
80006670:	00178793          	addi	a5,a5,1
80006674:	02000313          	li	t1,32
80006678:	40f30333          	sub	t1,t1,a5
8000667c:	00669333          	sll	t1,a3,t1
80006680:	00603333          	snez	t1,t1
80006684:	00f6d6b3          	srl	a3,a3,a5
80006688:	0066e333          	or	t1,a3,t1
8000668c:	1e030263          	beqz	t1,80006870 <__addsf3+0x52c>
80006690:	00737713          	andi	a4,t1,7
80006694:	00000793          	li	a5,0
80006698:	e6070ce3          	beqz	a4,80006510 <__addsf3+0x1cc>
8000669c:	01812403          	lw	s0,24(sp)
800066a0:	00f37713          	andi	a4,t1,15
800066a4:	00400693          	li	a3,4
800066a8:	d4d71ee3          	bne	a4,a3,80006404 <__addsf3+0xc0>
800066ac:	00531713          	slli	a4,t1,0x5
800066b0:	d60740e3          	bltz	a4,80006410 <__addsf3+0xcc>
800066b4:	00335713          	srli	a4,t1,0x3
800066b8:	ee5ff06f          	j	8000659c <__addsf3+0x258>
800066bc:	02000713          	li	a4,32
800066c0:	40f70733          	sub	a4,a4,a5
800066c4:	00e89733          	sll	a4,a7,a4
800066c8:	00e03733          	snez	a4,a4
800066cc:	00f8d7b3          	srl	a5,a7,a5
800066d0:	00e7e7b3          	or	a5,a5,a4
800066d4:	40f30333          	sub	t1,t1,a5
800066d8:	00531793          	slli	a5,t1,0x5
800066dc:	0007d663          	bgez	a5,800066e8 <__addsf3+0x3a4>
800066e0:	00812c23          	sw	s0,24(sp)
800066e4:	cddff06f          	j	800063c0 <__addsf3+0x7c>
800066e8:	00737793          	andi	a5,t1,7
800066ec:	28078863          	beqz	a5,8000697c <__addsf3+0x638>
800066f0:	00f37713          	andi	a4,t1,15
800066f4:	00400693          	li	a3,4
800066f8:	00090793          	mv	a5,s2
800066fc:	d0d714e3          	bne	a4,a3,80006404 <__addsf3+0xc0>
80006700:	ee5ff06f          	j	800065e4 <__addsf3+0x2a0>
80006704:	00190793          	addi	a5,s2,1
80006708:	0fe7f613          	andi	a2,a5,254
8000670c:	08061a63          	bnez	a2,800067a0 <__addsf3+0x45c>
80006710:	20091463          	bnez	s2,80006918 <__addsf3+0x5d4>
80006714:	20030863          	beqz	t1,80006924 <__addsf3+0x5e0>
80006718:	20088a63          	beqz	a7,8000692c <__addsf3+0x5e8>
8000671c:	01130733          	add	a4,t1,a7
80006720:	00571793          	slli	a5,a4,0x5
80006724:	2207d063          	bgez	a5,80006944 <__addsf3+0x600>
80006728:	1f8007b7          	lui	a5,0x1f800
8000672c:	00375713          	srli	a4,a4,0x3
80006730:	fff78793          	addi	a5,a5,-1 # 1f7fffff <_start-0x60800001>
80006734:	00f77733          	and	a4,a4,a5
80006738:	00d77733          	and	a4,a4,a3
8000673c:	00100513          	li	a0,1
80006740:	ce9ff06f          	j	80006428 <__addsf3+0xe4>
80006744:	00812c23          	sw	s0,24(sp)
80006748:	41130433          	sub	s0,t1,a7
8000674c:	00541793          	slli	a5,s0,0x5
80006750:	0c07c463          	bltz	a5,80006818 <__addsf3+0x4d4>
80006754:	c6041ae3          	bnez	s0,800063c8 <__addsf3+0x84>
80006758:	01812403          	lw	s0,24(sp)
8000675c:	00000813          	li	a6,0
80006760:	00000513          	li	a0,0
80006764:	00000713          	li	a4,0
80006768:	cc1ff06f          	j	80006428 <__addsf3+0xe4>
8000676c:	04000737          	lui	a4,0x4000
80006770:	00e8e8b3          	or	a7,a7,a4
80006774:	d2dff06f          	j	800064a0 <__addsf3+0x15c>
80006778:	02000713          	li	a4,32
8000677c:	40f70733          	sub	a4,a4,a5
80006780:	00e31733          	sll	a4,t1,a4
80006784:	00f357b3          	srl	a5,t1,a5
80006788:	00e03733          	snez	a4,a4
8000678c:	00e7e7b3          	or	a5,a5,a4
80006790:	00060913          	mv	s2,a2
80006794:	00058493          	mv	s1,a1
80006798:	40f88333          	sub	t1,a7,a5
8000679c:	f3dff06f          	j	800066d8 <__addsf3+0x394>
800067a0:	0ff00713          	li	a4,255
800067a4:	c6e78ee3          	beq	a5,a4,80006420 <__addsf3+0xdc>
800067a8:	01130733          	add	a4,t1,a7
800067ac:	00175713          	srli	a4,a4,0x1
800067b0:	00777693          	andi	a3,a4,7
800067b4:	00068a63          	beqz	a3,800067c8 <__addsf3+0x484>
800067b8:	00400613          	li	a2,4
800067bc:	00f77693          	andi	a3,a4,15
800067c0:	00c70333          	add	t1,a4,a2
800067c4:	e2c690e3          	bne	a3,a2,800065e4 <__addsf3+0x2a0>
800067c8:	00375713          	srli	a4,a4,0x3
800067cc:	dd1ff06f          	j	8000659c <__addsf3+0x258>
800067d0:	0ff00713          	li	a4,255
800067d4:	08e60a63          	beq	a2,a4,80006868 <__addsf3+0x524>
800067d8:	01b00713          	li	a4,27
800067dc:	0af74a63          	blt	a4,a5,80006890 <__addsf3+0x54c>
800067e0:	04000737          	lui	a4,0x4000
800067e4:	00e36333          	or	t1,t1,a4
800067e8:	02000713          	li	a4,32
800067ec:	40f70733          	sub	a4,a4,a5
800067f0:	00e31733          	sll	a4,t1,a4
800067f4:	00f357b3          	srl	a5,t1,a5
800067f8:	00e03733          	snez	a4,a4
800067fc:	00e7e7b3          	or	a5,a5,a4
80006800:	00060913          	mv	s2,a2
80006804:	01178333          	add	t1,a5,a7
80006808:	cb5ff06f          	j	800064bc <__addsf3+0x178>
8000680c:	00058493          	mv	s1,a1
80006810:	00088313          	mv	t1,a7
80006814:	dd1ff06f          	j	800065e4 <__addsf3+0x2a0>
80006818:	40688433          	sub	s0,a7,t1
8000681c:	00058493          	mv	s1,a1
80006820:	ba9ff06f          	j	800063c8 <__addsf3+0x84>
80006824:	011307b3          	add	a5,t1,a7
80006828:	00579713          	slli	a4,a5,0x5
8000682c:	12075263          	bgez	a4,80006950 <__addsf3+0x60c>
80006830:	0017d793          	srli	a5,a5,0x1
80006834:	7e000737          	lui	a4,0x7e000
80006838:	fff70713          	addi	a4,a4,-1 # 7dffffff <_start-0x2000001>
8000683c:	0077f693          	andi	a3,a5,7
80006840:	00e7f733          	and	a4,a5,a4
80006844:	10068c63          	beqz	a3,8000695c <__addsf3+0x618>
80006848:	00f7f693          	andi	a3,a5,15
8000684c:	00400613          	li	a2,4
80006850:	00c70333          	add	t1,a4,a2
80006854:	00200793          	li	a5,2
80006858:	d8c696e3          	bne	a3,a2,800065e4 <__addsf3+0x2a0>
8000685c:	00375713          	srli	a4,a4,0x3
80006860:	d3dff06f          	j	8000659c <__addsf3+0x258>
80006864:	00058493          	mv	s1,a1
80006868:	00050713          	mv	a4,a0
8000686c:	d85ff06f          	j	800065f0 <__addsf3+0x2ac>
80006870:	01812403          	lw	s0,24(sp)
80006874:	00048813          	mv	a6,s1
80006878:	00000513          	li	a0,0
8000687c:	00000713          	li	a4,0
80006880:	ba9ff06f          	j	80006428 <__addsf3+0xe4>
80006884:	00375713          	srli	a4,a4,0x3
80006888:	00100793          	li	a5,1
8000688c:	d11ff06f          	j	8000659c <__addsf3+0x258>
80006890:	00588713          	addi	a4,a7,5
80006894:	00375713          	srli	a4,a4,0x3
80006898:	00060793          	mv	a5,a2
8000689c:	d01ff06f          	j	8000659c <__addsf3+0x258>
800068a0:	f20714e3          	bnez	a4,800067c8 <__addsf3+0x484>
800068a4:	00000813          	li	a6,0
800068a8:	00000513          	li	a0,0
800068ac:	00000713          	li	a4,0
800068b0:	b79ff06f          	j	80006428 <__addsf3+0xe4>
800068b4:	00812c23          	sw	s0,24(sp)
800068b8:	00060913          	mv	s2,a2
800068bc:	00058493          	mv	s1,a1
800068c0:	fff00313          	li	t1,-1
800068c4:	afdff06f          	j	800063c0 <__addsf3+0x7c>
800068c8:	fc088ee3          	beqz	a7,800068a4 <__addsf3+0x560>
800068cc:	00058493          	mv	s1,a1
800068d0:	00050713          	mv	a4,a0
800068d4:	cc9ff06f          	j	8000659c <__addsf3+0x258>
800068d8:	40688733          	sub	a4,a7,t1
800068dc:	00571693          	slli	a3,a4,0x5
800068e0:	040007b7          	lui	a5,0x4000
800068e4:	0406d863          	bgez	a3,80006934 <__addsf3+0x5f0>
800068e8:	fff78793          	addi	a5,a5,-1 # 3ffffff <_start-0x7c000001>
800068ec:	00812c23          	sw	s0,24(sp)
800068f0:	00f77433          	and	s0,a4,a5
800068f4:	00040513          	mv	a0,s0
800068f8:	00b12623          	sw	a1,12(sp)
800068fc:	658010ef          	jal	80007f54 <__clzsi2>
80006900:	00c12583          	lw	a1,12(sp)
80006904:	ffb50513          	addi	a0,a0,-5
80006908:	00a416b3          	sll	a3,s0,a0
8000690c:	00058493          	mv	s1,a1
80006910:	00100913          	li	s2,1
80006914:	d59ff06f          	j	8000666c <__addsf3+0x328>
80006918:	ce0312e3          	bnez	t1,800065fc <__addsf3+0x2b8>
8000691c:	00050713          	mv	a4,a0
80006920:	cd1ff06f          	j	800065f0 <__addsf3+0x2ac>
80006924:	00050713          	mv	a4,a0
80006928:	f80880e3          	beqz	a7,800068a8 <__addsf3+0x564>
8000692c:	00000793          	li	a5,0
80006930:	c6dff06f          	j	8000659c <__addsf3+0x258>
80006934:	00375713          	srli	a4,a4,0x3
80006938:	00058493          	mv	s1,a1
8000693c:	00100793          	li	a5,1
80006940:	c5dff06f          	j	8000659c <__addsf3+0x258>
80006944:	00375713          	srli	a4,a4,0x3
80006948:	00000793          	li	a5,0
8000694c:	c51ff06f          	j	8000659c <__addsf3+0x258>
80006950:	0037d713          	srli	a4,a5,0x3
80006954:	00100793          	li	a5,1
80006958:	c45ff06f          	j	8000659c <__addsf3+0x258>
8000695c:	00200793          	li	a5,2
80006960:	00375713          	srli	a4,a4,0x3
80006964:	c39ff06f          	j	8000659c <__addsf3+0x258>
80006968:	01812403          	lw	s0,24(sp)
8000696c:	00335713          	srli	a4,t1,0x3
80006970:	c2dff06f          	j	8000659c <__addsf3+0x258>
80006974:	01812403          	lw	s0,24(sp)
80006978:	c6dff06f          	j	800065e4 <__addsf3+0x2a0>
8000697c:	00090793          	mv	a5,s2
80006980:	c65ff06f          	j	800065e4 <__addsf3+0x2a0>

80006984 <__divsf3>:
80006984:	fd010113          	addi	sp,sp,-48
80006988:	01755793          	srli	a5,a0,0x17
8000698c:	01412c23          	sw	s4,24(sp)
80006990:	01512a23          	sw	s5,20(sp)
80006994:	00951713          	slli	a4,a0,0x9
80006998:	02112623          	sw	ra,44(sp)
8000699c:	02812423          	sw	s0,40(sp)
800069a0:	02912223          	sw	s1,36(sp)
800069a4:	03212023          	sw	s2,32(sp)
800069a8:	01312e23          	sw	s3,28(sp)
800069ac:	01612823          	sw	s6,16(sp)
800069b0:	0ff7f793          	zext.b	a5,a5
800069b4:	00975a93          	srli	s5,a4,0x9
800069b8:	01f55a13          	srli	s4,a0,0x1f
800069bc:	14078a63          	beqz	a5,80006b10 <__divsf3+0x18c>
800069c0:	0ff00713          	li	a4,255
800069c4:	06e78e63          	beq	a5,a4,80006a40 <__divsf3+0xbc>
800069c8:	003a9713          	slli	a4,s5,0x3
800069cc:	040006b7          	lui	a3,0x4000
800069d0:	f8178993          	addi	s3,a5,-127
800069d4:	00d76ab3          	or	s5,a4,a3
800069d8:	00000493          	li	s1,0
800069dc:	00000b13          	li	s6,0
800069e0:	0175d793          	srli	a5,a1,0x17
800069e4:	00959413          	slli	s0,a1,0x9
800069e8:	0ff7f793          	zext.b	a5,a5
800069ec:	00945413          	srli	s0,s0,0x9
800069f0:	01f5d913          	srli	s2,a1,0x1f
800069f4:	06078a63          	beqz	a5,80006a68 <__divsf3+0xe4>
800069f8:	0ff00713          	li	a4,255
800069fc:	10e78263          	beq	a5,a4,80006b00 <__divsf3+0x17c>
80006a00:	00341413          	slli	s0,s0,0x3
80006a04:	04000737          	lui	a4,0x4000
80006a08:	f8178793          	addi	a5,a5,-127
80006a0c:	00e46433          	or	s0,s0,a4
80006a10:	00000613          	li	a2,0
80006a14:	00f00693          	li	a3,15
80006a18:	40f989b3          	sub	s3,s3,a5
80006a1c:	012a4733          	xor	a4,s4,s2
80006a20:	1e96e663          	bltu	a3,s1,80006c0c <__divsf3+0x288>
80006a24:	00002697          	auipc	a3,0x2
80006a28:	45068693          	addi	a3,a3,1104 # 80008e74 <_srodata+0xe74>
80006a2c:	00249493          	slli	s1,s1,0x2
80006a30:	00d484b3          	add	s1,s1,a3
80006a34:	0004a783          	lw	a5,0(s1)
80006a38:	00d787b3          	add	a5,a5,a3
80006a3c:	00078067          	jr	a5
80006a40:	00078993          	mv	s3,a5
80006a44:	120a9c63          	bnez	s5,80006b7c <__divsf3+0x1f8>
80006a48:	0175d793          	srli	a5,a1,0x17
80006a4c:	00959413          	slli	s0,a1,0x9
80006a50:	0ff7f793          	zext.b	a5,a5
80006a54:	00800493          	li	s1,8
80006a58:	00200b13          	li	s6,2
80006a5c:	00945413          	srli	s0,s0,0x9
80006a60:	01f5d913          	srli	s2,a1,0x1f
80006a64:	f8079ae3          	bnez	a5,800069f8 <__divsf3+0x74>
80006a68:	0e041463          	bnez	s0,80006b50 <__divsf3+0x1cc>
80006a6c:	00100613          	li	a2,1
80006a70:	009664b3          	or	s1,a2,s1
80006a74:	00e00793          	li	a5,14
80006a78:	012a4733          	xor	a4,s4,s2
80006a7c:	0697e663          	bltu	a5,s1,80006ae8 <__divsf3+0x164>
80006a80:	00002697          	auipc	a3,0x2
80006a84:	43468693          	addi	a3,a3,1076 # 80008eb4 <_srodata+0xeb4>
80006a88:	00249493          	slli	s1,s1,0x2
80006a8c:	00d484b3          	add	s1,s1,a3
80006a90:	0004a783          	lw	a5,0(s1)
80006a94:	00d787b3          	add	a5,a5,a3
80006a98:	00078067          	jr	a5
80006a9c:	00300793          	li	a5,3
80006aa0:	10f61c63          	bne	a2,a5,80006bb8 <__divsf3+0x234>
80006aa4:	00000713          	li	a4,0
80006aa8:	0ff00793          	li	a5,255
80006aac:	004006b7          	lui	a3,0x400
80006ab0:	02c12083          	lw	ra,44(sp)
80006ab4:	02812403          	lw	s0,40(sp)
80006ab8:	01779513          	slli	a0,a5,0x17
80006abc:	00d56533          	or	a0,a0,a3
80006ac0:	01f71713          	slli	a4,a4,0x1f
80006ac4:	02412483          	lw	s1,36(sp)
80006ac8:	02012903          	lw	s2,32(sp)
80006acc:	01c12983          	lw	s3,28(sp)
80006ad0:	01812a03          	lw	s4,24(sp)
80006ad4:	01412a83          	lw	s5,20(sp)
80006ad8:	01012b03          	lw	s6,16(sp)
80006adc:	00e56533          	or	a0,a0,a4
80006ae0:	03010113          	addi	sp,sp,48
80006ae4:	00008067          	ret
80006ae8:	0ff00793          	li	a5,255
80006aec:	00000693          	li	a3,0
80006af0:	fc1ff06f          	j	80006ab0 <__divsf3+0x12c>
80006af4:	00000793          	li	a5,0
80006af8:	00000693          	li	a3,0
80006afc:	fb5ff06f          	j	80006ab0 <__divsf3+0x12c>
80006b00:	06041863          	bnez	s0,80006b70 <__divsf3+0x1ec>
80006b04:	f0198993          	addi	s3,s3,-255
80006b08:	00200613          	li	a2,2
80006b0c:	f65ff06f          	j	80006a70 <__divsf3+0xec>
80006b10:	000a9a63          	bnez	s5,80006b24 <__divsf3+0x1a0>
80006b14:	00400493          	li	s1,4
80006b18:	00000993          	li	s3,0
80006b1c:	00100b13          	li	s6,1
80006b20:	ec1ff06f          	j	800069e0 <__divsf3+0x5c>
80006b24:	000a8513          	mv	a0,s5
80006b28:	00b12623          	sw	a1,12(sp)
80006b2c:	428010ef          	jal	80007f54 <__clzsi2>
80006b30:	ffb50713          	addi	a4,a0,-5
80006b34:	f8a00793          	li	a5,-118
80006b38:	00c12583          	lw	a1,12(sp)
80006b3c:	00ea9ab3          	sll	s5,s5,a4
80006b40:	40a789b3          	sub	s3,a5,a0
80006b44:	00000493          	li	s1,0
80006b48:	00000b13          	li	s6,0
80006b4c:	e95ff06f          	j	800069e0 <__divsf3+0x5c>
80006b50:	00040513          	mv	a0,s0
80006b54:	400010ef          	jal	80007f54 <__clzsi2>
80006b58:	ffb50713          	addi	a4,a0,-5
80006b5c:	f8a00793          	li	a5,-118
80006b60:	00e41433          	sll	s0,s0,a4
80006b64:	40a787b3          	sub	a5,a5,a0
80006b68:	00000613          	li	a2,0
80006b6c:	ea9ff06f          	j	80006a14 <__divsf3+0x90>
80006b70:	0034e493          	ori	s1,s1,3
80006b74:	00300613          	li	a2,3
80006b78:	e9dff06f          	j	80006a14 <__divsf3+0x90>
80006b7c:	00c00493          	li	s1,12
80006b80:	00300b13          	li	s6,3
80006b84:	e5dff06f          	j	800069e0 <__divsf3+0x5c>
80006b88:	00200793          	li	a5,2
80006b8c:	000a0913          	mv	s2,s4
80006b90:	18fb0e63          	beq	s6,a5,80006d2c <__divsf3+0x3a8>
80006b94:	00300793          	li	a5,3
80006b98:	f0fb06e3          	beq	s6,a5,80006aa4 <__divsf3+0x120>
80006b9c:	00100793          	li	a5,1
80006ba0:	00fb1a63          	bne	s6,a5,80006bb4 <__divsf3+0x230>
80006ba4:	00090713          	mv	a4,s2
80006ba8:	00000793          	li	a5,0
80006bac:	00000693          	li	a3,0
80006bb0:	f01ff06f          	j	80006ab0 <__divsf3+0x12c>
80006bb4:	000a8413          	mv	s0,s5
80006bb8:	07f98793          	addi	a5,s3,127
80006bbc:	00090713          	mv	a4,s2
80006bc0:	0ef05863          	blez	a5,80006cb0 <__divsf3+0x32c>
80006bc4:	00747693          	andi	a3,s0,7
80006bc8:	00068a63          	beqz	a3,80006bdc <__divsf3+0x258>
80006bcc:	00f47693          	andi	a3,s0,15
80006bd0:	00400613          	li	a2,4
80006bd4:	00c68463          	beq	a3,a2,80006bdc <__divsf3+0x258>
80006bd8:	00c40433          	add	s0,s0,a2
80006bdc:	00441693          	slli	a3,s0,0x4
80006be0:	0006da63          	bgez	a3,80006bf4 <__divsf3+0x270>
80006be4:	f80006b7          	lui	a3,0xf8000
80006be8:	fff68693          	addi	a3,a3,-1 # f7ffffff <maxheap+0x77ff0fef>
80006bec:	08098793          	addi	a5,s3,128
80006bf0:	00d47433          	and	s0,s0,a3
80006bf4:	0fe00693          	li	a3,254
80006bf8:	eef6c8e3          	blt	a3,a5,80006ae8 <__divsf3+0x164>
80006bfc:	00641693          	slli	a3,s0,0x6
80006c00:	0096d693          	srli	a3,a3,0x9
80006c04:	0ff7f793          	zext.b	a5,a5
80006c08:	ea9ff06f          	j	80006ab0 <__divsf3+0x12c>
80006c0c:	00541513          	slli	a0,s0,0x5
80006c10:	01051693          	slli	a3,a0,0x10
80006c14:	01055613          	srli	a2,a0,0x10
80006c18:	0106d693          	srli	a3,a3,0x10
80006c1c:	0e8af863          	bgeu	s5,s0,80006d0c <__divsf3+0x388>
80006c20:	02cad433          	divu	s0,s5,a2
80006c24:	000a8793          	mv	a5,s5
80006c28:	fff98993          	addi	s3,s3,-1
80006c2c:	00000a93          	li	s5,0
80006c30:	02d405b3          	mul	a1,s0,a3
80006c34:	02c7f7b3          	remu	a5,a5,a2
80006c38:	01079793          	slli	a5,a5,0x10
80006c3c:	0157e7b3          	or	a5,a5,s5
80006c40:	00b7fa63          	bgeu	a5,a1,80006c54 <__divsf3+0x2d0>
80006c44:	00f507b3          	add	a5,a0,a5
80006c48:	fff40813          	addi	a6,s0,-1 # 7ffff <_start-0x7ff80001>
80006c4c:	0ea7f863          	bgeu	a5,a0,80006d3c <__divsf3+0x3b8>
80006c50:	00080413          	mv	s0,a6
80006c54:	40b787b3          	sub	a5,a5,a1
80006c58:	02c7d5b3          	divu	a1,a5,a2
80006c5c:	02c7f7b3          	remu	a5,a5,a2
80006c60:	02d586b3          	mul	a3,a1,a3
80006c64:	01079793          	slli	a5,a5,0x10
80006c68:	02d7f663          	bgeu	a5,a3,80006c94 <__divsf3+0x310>
80006c6c:	00a78633          	add	a2,a5,a0
80006c70:	00f63833          	sltu	a6,a2,a5
80006c74:	fff58893          	addi	a7,a1,-1 # ffff <_start-0x7fff0001>
80006c78:	00060793          	mv	a5,a2
80006c7c:	00081a63          	bnez	a6,80006c90 <__divsf3+0x30c>
80006c80:	00d67863          	bgeu	a2,a3,80006c90 <__divsf3+0x30c>
80006c84:	ffe58593          	addi	a1,a1,-2
80006c88:	00a607b3          	add	a5,a2,a0
80006c8c:	0080006f          	j	80006c94 <__divsf3+0x310>
80006c90:	00088593          	mv	a1,a7
80006c94:	01041413          	slli	s0,s0,0x10
80006c98:	40d787b3          	sub	a5,a5,a3
80006c9c:	00f037b3          	snez	a5,a5
80006ca0:	00b46433          	or	s0,s0,a1
80006ca4:	00f46433          	or	s0,s0,a5
80006ca8:	07f98793          	addi	a5,s3,127
80006cac:	f0f04ce3          	bgtz	a5,80006bc4 <__divsf3+0x240>
80006cb0:	00100613          	li	a2,1
80006cb4:	00078c63          	beqz	a5,80006ccc <__divsf3+0x348>
80006cb8:	40f60633          	sub	a2,a2,a5
80006cbc:	01b00593          	li	a1,27
80006cc0:	00000793          	li	a5,0
80006cc4:	00000693          	li	a3,0
80006cc8:	dec5c4e3          	blt	a1,a2,80006ab0 <__divsf3+0x12c>
80006ccc:	09e98793          	addi	a5,s3,158
80006cd0:	00f417b3          	sll	a5,s0,a5
80006cd4:	00f037b3          	snez	a5,a5
80006cd8:	00c45433          	srl	s0,s0,a2
80006cdc:	00f46433          	or	s0,s0,a5
80006ce0:	00747793          	andi	a5,s0,7
80006ce4:	00078a63          	beqz	a5,80006cf8 <__divsf3+0x374>
80006ce8:	00f47793          	andi	a5,s0,15
80006cec:	00400693          	li	a3,4
80006cf0:	00d78463          	beq	a5,a3,80006cf8 <__divsf3+0x374>
80006cf4:	00d40433          	add	s0,s0,a3
80006cf8:	00541793          	slli	a5,s0,0x5
80006cfc:	0407d863          	bgez	a5,80006d4c <__divsf3+0x3c8>
80006d00:	00100793          	li	a5,1
80006d04:	00000693          	li	a3,0
80006d08:	da9ff06f          	j	80006ab0 <__divsf3+0x12c>
80006d0c:	001ad793          	srli	a5,s5,0x1
80006d10:	02c7d433          	divu	s0,a5,a2
80006d14:	01fa9a93          	slli	s5,s5,0x1f
80006d18:	010ada93          	srli	s5,s5,0x10
80006d1c:	02d405b3          	mul	a1,s0,a3
80006d20:	f15ff06f          	j	80006c34 <__divsf3+0x2b0>
80006d24:	00200793          	li	a5,2
80006d28:	e6f61ee3          	bne	a2,a5,80006ba4 <__divsf3+0x220>
80006d2c:	00090713          	mv	a4,s2
80006d30:	0ff00793          	li	a5,255
80006d34:	00000693          	li	a3,0
80006d38:	d79ff06f          	j	80006ab0 <__divsf3+0x12c>
80006d3c:	f0b7fae3          	bgeu	a5,a1,80006c50 <__divsf3+0x2cc>
80006d40:	ffe40413          	addi	s0,s0,-2
80006d44:	00a787b3          	add	a5,a5,a0
80006d48:	f0dff06f          	j	80006c54 <__divsf3+0x2d0>
80006d4c:	00641413          	slli	s0,s0,0x6
80006d50:	00945693          	srli	a3,s0,0x9
80006d54:	00000793          	li	a5,0
80006d58:	d59ff06f          	j	80006ab0 <__divsf3+0x12c>

80006d5c <__lesf2>:
80006d5c:	01755693          	srli	a3,a0,0x17
80006d60:	00800737          	lui	a4,0x800
80006d64:	00050793          	mv	a5,a0
80006d68:	fff70713          	addi	a4,a4,-1 # 7fffff <_start-0x7f800001>
80006d6c:	0175d513          	srli	a0,a1,0x17
80006d70:	0ff6f693          	zext.b	a3,a3
80006d74:	0ff00613          	li	a2,255
80006d78:	00f77833          	and	a6,a4,a5
80006d7c:	0ff57513          	zext.b	a0,a0
80006d80:	00b77733          	and	a4,a4,a1
80006d84:	01f7d793          	srli	a5,a5,0x1f
80006d88:	01f5d593          	srli	a1,a1,0x1f
80006d8c:	04c68663          	beq	a3,a2,80006dd8 <__lesf2+0x7c>
80006d90:	02c50063          	beq	a0,a2,80006db0 <__lesf2+0x54>
80006d94:	04069c63          	bnez	a3,80006dec <__lesf2+0x90>
80006d98:	02051263          	bnez	a0,80006dbc <__lesf2+0x60>
80006d9c:	02070a63          	beqz	a4,80006dd0 <__lesf2+0x74>
80006da0:	08081463          	bnez	a6,80006e28 <__lesf2+0xcc>
80006da4:	00159513          	slli	a0,a1,0x1
80006da8:	fff50513          	addi	a0,a0,-1
80006dac:	00008067          	ret
80006db0:	00200513          	li	a0,2
80006db4:	02071063          	bnez	a4,80006dd4 <__lesf2+0x78>
80006db8:	00069463          	bnez	a3,80006dc0 <__lesf2+0x64>
80006dbc:	fe0804e3          	beqz	a6,80006da4 <__lesf2+0x48>
80006dc0:	02b79063          	bne	a5,a1,80006de0 <__lesf2+0x84>
80006dc4:	00179513          	slli	a0,a5,0x1
80006dc8:	fff50513          	addi	a0,a0,-1
80006dcc:	00008067          	ret
80006dd0:	00081863          	bnez	a6,80006de0 <__lesf2+0x84>
80006dd4:	00008067          	ret
80006dd8:	04081463          	bnez	a6,80006e20 <__lesf2+0xc4>
80006ddc:	02d50863          	beq	a0,a3,80006e0c <__lesf2+0xb0>
80006de0:	40f007b3          	neg	a5,a5
80006de4:	0017e513          	ori	a0,a5,1
80006de8:	00008067          	ret
80006dec:	fe050ae3          	beqz	a0,80006de0 <__lesf2+0x84>
80006df0:	feb798e3          	bne	a5,a1,80006de0 <__lesf2+0x84>
80006df4:	fed546e3          	blt	a0,a3,80006de0 <__lesf2+0x84>
80006df8:	fca6c6e3          	blt	a3,a0,80006dc4 <__lesf2+0x68>
80006dfc:	ff0762e3          	bltu	a4,a6,80006de0 <__lesf2+0x84>
80006e00:	00000513          	li	a0,0
80006e04:	fce878e3          	bgeu	a6,a4,80006dd4 <__lesf2+0x78>
80006e08:	fbdff06f          	j	80006dc4 <__lesf2+0x68>
80006e0c:	00200513          	li	a0,2
80006e10:	fc0712e3          	bnez	a4,80006dd4 <__lesf2+0x78>
80006e14:	fcb796e3          	bne	a5,a1,80006de0 <__lesf2+0x84>
80006e18:	00000513          	li	a0,0
80006e1c:	00008067          	ret
80006e20:	00200513          	li	a0,2
80006e24:	00008067          	ret
80006e28:	fab79ce3          	bne	a5,a1,80006de0 <__lesf2+0x84>
80006e2c:	fd1ff06f          	j	80006dfc <__lesf2+0xa0>

80006e30 <__mulsf3>:
80006e30:	fd010113          	addi	sp,sp,-48
80006e34:	01755793          	srli	a5,a0,0x17
80006e38:	02912223          	sw	s1,36(sp)
80006e3c:	01412c23          	sw	s4,24(sp)
80006e40:	02112623          	sw	ra,44(sp)
80006e44:	00951a13          	slli	s4,a0,0x9
80006e48:	02812423          	sw	s0,40(sp)
80006e4c:	03212023          	sw	s2,32(sp)
80006e50:	01312e23          	sw	s3,28(sp)
80006e54:	01512a23          	sw	s5,20(sp)
80006e58:	01612823          	sw	s6,16(sp)
80006e5c:	0ff7f793          	zext.b	a5,a5
80006e60:	009a5a13          	srli	s4,s4,0x9
80006e64:	01f55493          	srli	s1,a0,0x1f
80006e68:	2a078463          	beqz	a5,80007110 <__mulsf3+0x2e0>
80006e6c:	0ff00713          	li	a4,255
80006e70:	14e78a63          	beq	a5,a4,80006fc4 <__mulsf3+0x194>
80006e74:	003a1a13          	slli	s4,s4,0x3
80006e78:	04000737          	lui	a4,0x4000
80006e7c:	f8178913          	addi	s2,a5,-127
80006e80:	00ea6a33          	or	s4,s4,a4
80006e84:	00000993          	li	s3,0
80006e88:	00000b13          	li	s6,0
80006e8c:	0175d793          	srli	a5,a1,0x17
80006e90:	00959a93          	slli	s5,a1,0x9
80006e94:	0ff7f793          	zext.b	a5,a5
80006e98:	009ada93          	srli	s5,s5,0x9
80006e9c:	01f5d413          	srli	s0,a1,0x1f
80006ea0:	14078663          	beqz	a5,80006fec <__mulsf3+0x1bc>
80006ea4:	0ff00713          	li	a4,255
80006ea8:	22e78c63          	beq	a5,a4,800070e0 <__mulsf3+0x2b0>
80006eac:	f8178793          	addi	a5,a5,-127
80006eb0:	00a00713          	li	a4,10
80006eb4:	00f90933          	add	s2,s2,a5
80006eb8:	17374863          	blt	a4,s3,80007028 <__mulsf3+0x1f8>
80006ebc:	04000737          	lui	a4,0x4000
80006ec0:	003a9a93          	slli	s5,s5,0x3
80006ec4:	0084c6b3          	xor	a3,s1,s0
80006ec8:	00200793          	li	a5,2
80006ecc:	00eaeab3          	or	s5,s5,a4
80006ed0:	00068513          	mv	a0,a3
80006ed4:	00000713          	li	a4,0
80006ed8:	0337d263          	bge	a5,s3,80006efc <__mulsf3+0xcc>
80006edc:	00100793          	li	a5,1
80006ee0:	013797b3          	sll	a5,a5,s3
80006ee4:	5307f613          	andi	a2,a5,1328
80006ee8:	14061263          	bnez	a2,8000702c <__mulsf3+0x1fc>
80006eec:	2407f613          	andi	a2,a5,576
80006ef0:	14061663          	bnez	a2,8000703c <__mulsf3+0x20c>
80006ef4:	0887f793          	andi	a5,a5,136
80006ef8:	2e079a63          	bnez	a5,800071ec <__mulsf3+0x3bc>
80006efc:	010a9593          	slli	a1,s5,0x10
80006f00:	010a1713          	slli	a4,s4,0x10
80006f04:	01075713          	srli	a4,a4,0x10
80006f08:	0105d593          	srli	a1,a1,0x10
80006f0c:	010a5613          	srli	a2,s4,0x10
80006f10:	010ada93          	srli	s5,s5,0x10
80006f14:	02e58533          	mul	a0,a1,a4
80006f18:	02b605b3          	mul	a1,a2,a1
80006f1c:	01055793          	srli	a5,a0,0x10
80006f20:	02ea8733          	mul	a4,s5,a4
80006f24:	00b70733          	add	a4,a4,a1
80006f28:	00e787b3          	add	a5,a5,a4
80006f2c:	03560633          	mul	a2,a2,s5
80006f30:	00b7f663          	bgeu	a5,a1,80006f3c <__mulsf3+0x10c>
80006f34:	00010737          	lui	a4,0x10
80006f38:	00e60633          	add	a2,a2,a4
80006f3c:	01051513          	slli	a0,a0,0x10
80006f40:	01079713          	slli	a4,a5,0x10
80006f44:	01055513          	srli	a0,a0,0x10
80006f48:	00a70733          	add	a4,a4,a0
80006f4c:	0107d793          	srli	a5,a5,0x10
80006f50:	00671a13          	slli	s4,a4,0x6
80006f54:	00c787b3          	add	a5,a5,a2
80006f58:	01a75713          	srli	a4,a4,0x1a
80006f5c:	00679793          	slli	a5,a5,0x6
80006f60:	01403a33          	snez	s4,s4
80006f64:	00ea6a33          	or	s4,s4,a4
80006f68:	00479713          	slli	a4,a5,0x4
80006f6c:	0147ea33          	or	s4,a5,s4
80006f70:	2a074663          	bltz	a4,8000721c <__mulsf3+0x3ec>
80006f74:	07f90793          	addi	a5,s2,127
80006f78:	20f05c63          	blez	a5,80007190 <__mulsf3+0x360>
80006f7c:	007a7713          	andi	a4,s4,7
80006f80:	02070663          	beqz	a4,80006fac <__mulsf3+0x17c>
80006f84:	00fa7713          	andi	a4,s4,15
80006f88:	00400613          	li	a2,4
80006f8c:	02c70063          	beq	a4,a2,80006fac <__mulsf3+0x17c>
80006f90:	004a0a13          	addi	s4,s4,4
80006f94:	004a1713          	slli	a4,s4,0x4
80006f98:	00075a63          	bgez	a4,80006fac <__mulsf3+0x17c>
80006f9c:	f8000737          	lui	a4,0xf8000
80006fa0:	fff70713          	addi	a4,a4,-1 # f7ffffff <maxheap+0x77ff0fef>
80006fa4:	08090793          	addi	a5,s2,128
80006fa8:	00ea7a33          	and	s4,s4,a4
80006fac:	0fe00713          	li	a4,254
80006fb0:	26f74063          	blt	a4,a5,80007210 <__mulsf3+0x3e0>
80006fb4:	006a1713          	slli	a4,s4,0x6
80006fb8:	00975713          	srli	a4,a4,0x9
80006fbc:	0ff7f793          	zext.b	a5,a5
80006fc0:	0880006f          	j	80007048 <__mulsf3+0x218>
80006fc4:	00078913          	mv	s2,a5
80006fc8:	1a0a1e63          	bnez	s4,80007184 <__mulsf3+0x354>
80006fcc:	0175d793          	srli	a5,a1,0x17
80006fd0:	00959a93          	slli	s5,a1,0x9
80006fd4:	0ff7f793          	zext.b	a5,a5
80006fd8:	00800993          	li	s3,8
80006fdc:	00200b13          	li	s6,2
80006fe0:	009ada93          	srli	s5,s5,0x9
80006fe4:	01f5d413          	srli	s0,a1,0x1f
80006fe8:	ea079ee3          	bnez	a5,80006ea4 <__mulsf3+0x74>
80006fec:	080a8a63          	beqz	s5,80007080 <__mulsf3+0x250>
80006ff0:	000a8513          	mv	a0,s5
80006ff4:	761000ef          	jal	80007f54 <__clzsi2>
80006ff8:	40a907b3          	sub	a5,s2,a0
80006ffc:	00a00713          	li	a4,10
80007000:	f8a78913          	addi	s2,a5,-118
80007004:	03374263          	blt	a4,s3,80007028 <__mulsf3+0x1f8>
80007008:	ffb50513          	addi	a0,a0,-5
8000700c:	00200793          	li	a5,2
80007010:	00aa9ab3          	sll	s5,s5,a0
80007014:	0084c6b3          	xor	a3,s1,s0
80007018:	ef37d2e3          	bge	a5,s3,80006efc <__mulsf3+0xcc>
8000701c:	00068513          	mv	a0,a3
80007020:	00000713          	li	a4,0
80007024:	eb9ff06f          	j	80006edc <__mulsf3+0xac>
80007028:	00048513          	mv	a0,s1
8000702c:	00200793          	li	a5,2
80007030:	1cfb0863          	beq	s6,a5,80007200 <__mulsf3+0x3d0>
80007034:	00300793          	li	a5,3
80007038:	06fb1c63          	bne	s6,a5,800070b0 <__mulsf3+0x280>
8000703c:	00000693          	li	a3,0
80007040:	0ff00793          	li	a5,255
80007044:	00400737          	lui	a4,0x400
80007048:	02c12083          	lw	ra,44(sp)
8000704c:	02812403          	lw	s0,40(sp)
80007050:	01779513          	slli	a0,a5,0x17
80007054:	00e56533          	or	a0,a0,a4
80007058:	01f69793          	slli	a5,a3,0x1f
8000705c:	02412483          	lw	s1,36(sp)
80007060:	02012903          	lw	s2,32(sp)
80007064:	01c12983          	lw	s3,28(sp)
80007068:	01812a03          	lw	s4,24(sp)
8000706c:	01412a83          	lw	s5,20(sp)
80007070:	01012b03          	lw	s6,16(sp)
80007074:	00f56533          	or	a0,a0,a5
80007078:	03010113          	addi	sp,sp,48
8000707c:	00008067          	ret
80007080:	0019e993          	ori	s3,s3,1
80007084:	00a00793          	li	a5,10
80007088:	fb37c0e3          	blt	a5,s3,80007028 <__mulsf3+0x1f8>
8000708c:	0084c533          	xor	a0,s1,s0
80007090:	00200793          	li	a5,2
80007094:	00050693          	mv	a3,a0
80007098:	00100713          	li	a4,1
8000709c:	e537c0e3          	blt	a5,s3,80006edc <__mulsf3+0xac>
800070a0:	00200793          	li	a5,2
800070a4:	14f70e63          	beq	a4,a5,80007200 <__mulsf3+0x3d0>
800070a8:	00000a13          	li	s4,0
800070ac:	00100b13          	li	s6,1
800070b0:	00100793          	li	a5,1
800070b4:	00050693          	mv	a3,a0
800070b8:	0cfb0063          	beq	s6,a5,80007178 <__mulsf3+0x348>
800070bc:	08090793          	addi	a5,s2,128
800070c0:	00190913          	addi	s2,s2,1
800070c4:	0cf05663          	blez	a5,80007190 <__mulsf3+0x360>
800070c8:	007a7713          	andi	a4,s4,7
800070cc:	ec0704e3          	beqz	a4,80006f94 <__mulsf3+0x164>
800070d0:	00fa7713          	andi	a4,s4,15
800070d4:	00400613          	li	a2,4
800070d8:	eac71ce3          	bne	a4,a2,80006f90 <__mulsf3+0x160>
800070dc:	eb9ff06f          	j	80006f94 <__mulsf3+0x164>
800070e0:	0ff90913          	addi	s2,s2,255
800070e4:	060a9663          	bnez	s5,80007150 <__mulsf3+0x320>
800070e8:	0029e793          	ori	a5,s3,2
800070ec:	00a00713          	li	a4,10
800070f0:	f2f74ce3          	blt	a4,a5,80007028 <__mulsf3+0x1f8>
800070f4:	0084c533          	xor	a0,s1,s0
800070f8:	00050693          	mv	a3,a0
800070fc:	00200713          	li	a4,2
80007100:	fa0980e3          	beqz	s3,800070a0 <__mulsf3+0x270>
80007104:	00078993          	mv	s3,a5
80007108:	00200713          	li	a4,2
8000710c:	dd1ff06f          	j	80006edc <__mulsf3+0xac>
80007110:	000a1a63          	bnez	s4,80007124 <__mulsf3+0x2f4>
80007114:	00400993          	li	s3,4
80007118:	00000913          	li	s2,0
8000711c:	00100b13          	li	s6,1
80007120:	d6dff06f          	j	80006e8c <__mulsf3+0x5c>
80007124:	000a0513          	mv	a0,s4
80007128:	00b12623          	sw	a1,12(sp)
8000712c:	629000ef          	jal	80007f54 <__clzsi2>
80007130:	ffb50713          	addi	a4,a0,-5
80007134:	f8a00793          	li	a5,-118
80007138:	00c12583          	lw	a1,12(sp)
8000713c:	00ea1a33          	sll	s4,s4,a4
80007140:	40a78933          	sub	s2,a5,a0
80007144:	00000993          	li	s3,0
80007148:	00000b13          	li	s6,0
8000714c:	d41ff06f          	j	80006e8c <__mulsf3+0x5c>
80007150:	0039e993          	ori	s3,s3,3
80007154:	00a00713          	li	a4,10
80007158:	0d374a63          	blt	a4,s3,8000722c <__mulsf3+0x3fc>
8000715c:	00100793          	li	a5,1
80007160:	013797b3          	sll	a5,a5,s3
80007164:	0887f793          	andi	a5,a5,136
80007168:	0084c6b3          	xor	a3,s1,s0
8000716c:	00300713          	li	a4,3
80007170:	d80786e3          	beqz	a5,80006efc <__mulsf3+0xcc>
80007174:	0780006f          	j	800071ec <__mulsf3+0x3bc>
80007178:	00000793          	li	a5,0
8000717c:	00000713          	li	a4,0
80007180:	ec9ff06f          	j	80007048 <__mulsf3+0x218>
80007184:	00c00993          	li	s3,12
80007188:	00300b13          	li	s6,3
8000718c:	d01ff06f          	j	80006e8c <__mulsf3+0x5c>
80007190:	00100613          	li	a2,1
80007194:	00078c63          	beqz	a5,800071ac <__mulsf3+0x37c>
80007198:	40f60633          	sub	a2,a2,a5
8000719c:	01b00593          	li	a1,27
800071a0:	00000793          	li	a5,0
800071a4:	00000713          	li	a4,0
800071a8:	eac5c0e3          	blt	a1,a2,80007048 <__mulsf3+0x218>
800071ac:	09e90913          	addi	s2,s2,158
800071b0:	012a1933          	sll	s2,s4,s2
800071b4:	01203933          	snez	s2,s2
800071b8:	00ca57b3          	srl	a5,s4,a2
800071bc:	0127e7b3          	or	a5,a5,s2
800071c0:	0077f713          	andi	a4,a5,7
800071c4:	00070a63          	beqz	a4,800071d8 <__mulsf3+0x3a8>
800071c8:	00f7f713          	andi	a4,a5,15
800071cc:	00400613          	li	a2,4
800071d0:	00c70463          	beq	a4,a2,800071d8 <__mulsf3+0x3a8>
800071d4:	00c787b3          	add	a5,a5,a2
800071d8:	00579713          	slli	a4,a5,0x5
800071dc:	04075e63          	bgez	a4,80007238 <__mulsf3+0x408>
800071e0:	00100793          	li	a5,1
800071e4:	00000713          	li	a4,0
800071e8:	e61ff06f          	j	80007048 <__mulsf3+0x218>
800071ec:	00070b13          	mv	s6,a4
800071f0:	00200793          	li	a5,2
800071f4:	00040513          	mv	a0,s0
800071f8:	000a8a13          	mv	s4,s5
800071fc:	e2fb1ce3          	bne	s6,a5,80007034 <__mulsf3+0x204>
80007200:	00050693          	mv	a3,a0
80007204:	0ff00793          	li	a5,255
80007208:	00000713          	li	a4,0
8000720c:	e3dff06f          	j	80007048 <__mulsf3+0x218>
80007210:	0ff00793          	li	a5,255
80007214:	00000713          	li	a4,0
80007218:	e31ff06f          	j	80007048 <__mulsf3+0x218>
8000721c:	001a5793          	srli	a5,s4,0x1
80007220:	001a7a13          	andi	s4,s4,1
80007224:	0147ea33          	or	s4,a5,s4
80007228:	e95ff06f          	j	800070bc <__mulsf3+0x28c>
8000722c:	00000693          	li	a3,0
80007230:	00400737          	lui	a4,0x400
80007234:	e15ff06f          	j	80007048 <__mulsf3+0x218>
80007238:	00679793          	slli	a5,a5,0x6
8000723c:	0097d713          	srli	a4,a5,0x9
80007240:	00000793          	li	a5,0
80007244:	e05ff06f          	j	80007048 <__mulsf3+0x218>

80007248 <__subsf3>:
80007248:	008006b7          	lui	a3,0x800
8000724c:	fe010113          	addi	sp,sp,-32
80007250:	0175d793          	srli	a5,a1,0x17
80007254:	fff68693          	addi	a3,a3,-1 # 7fffff <_start-0x7f800001>
80007258:	00a6f733          	and	a4,a3,a0
8000725c:	01755813          	srli	a6,a0,0x17
80007260:	00b6f6b3          	and	a3,a3,a1
80007264:	01f55893          	srli	a7,a0,0x1f
80007268:	00912a23          	sw	s1,20(sp)
8000726c:	01212823          	sw	s2,16(sp)
80007270:	00112e23          	sw	ra,28(sp)
80007274:	0ff7f793          	zext.b	a5,a5
80007278:	0ff00613          	li	a2,255
8000727c:	01f5d593          	srli	a1,a1,0x1f
80007280:	00371e13          	slli	t3,a4,0x3
80007284:	00369513          	slli	a0,a3,0x3
80007288:	0ff87913          	zext.b	s2,a6
8000728c:	00088493          	mv	s1,a7
80007290:	14c78063          	beq	a5,a2,800073d0 <__subsf3+0x188>
80007294:	0015c593          	xori	a1,a1,1
80007298:	40f90333          	sub	t1,s2,a5
8000729c:	0ab88e63          	beq	a7,a1,80007358 <__subsf3+0x110>
800072a0:	46605e63          	blez	t1,8000771c <__subsf3+0x4d4>
800072a4:	1e078063          	beqz	a5,80007484 <__subsf3+0x23c>
800072a8:	18c90463          	beq	s2,a2,80007430 <__subsf3+0x1e8>
800072ac:	040007b7          	lui	a5,0x4000
800072b0:	00f56533          	or	a0,a0,a5
800072b4:	01b00793          	li	a5,27
800072b8:	2c67d663          	bge	a5,t1,80007584 <__subsf3+0x33c>
800072bc:	fffe0713          	addi	a4,t3,-1
800072c0:	00571793          	slli	a5,a4,0x5
800072c4:	1407dc63          	bgez	a5,8000741c <__subsf3+0x1d4>
800072c8:	00812c23          	sw	s0,24(sp)
800072cc:	fff00e13          	li	t3,-1
800072d0:	006e1793          	slli	a5,t3,0x6
800072d4:	0067d413          	srli	s0,a5,0x6
800072d8:	00040513          	mv	a0,s0
800072dc:	479000ef          	jal	80007f54 <__clzsi2>
800072e0:	ffb50313          	addi	t1,a0,-5
800072e4:	006417b3          	sll	a5,s0,t1
800072e8:	25235663          	bge	t1,s2,80007534 <__subsf3+0x2ec>
800072ec:	fc000e37          	lui	t3,0xfc000
800072f0:	fffe0e13          	addi	t3,t3,-1 # fbffffff <maxheap+0x7bff0fef>
800072f4:	0077f713          	andi	a4,a5,7
800072f8:	40690333          	sub	t1,s2,t1
800072fc:	01c7fe33          	and	t3,a5,t3
80007300:	5a070e63          	beqz	a4,800078bc <__subsf3+0x674>
80007304:	00f7f793          	andi	a5,a5,15
80007308:	00400713          	li	a4,4
8000730c:	01812403          	lw	s0,24(sp)
80007310:	10e78a63          	beq	a5,a4,80007424 <__subsf3+0x1dc>
80007314:	004e0e13          	addi	t3,t3,4
80007318:	005e1793          	slli	a5,t3,0x5
8000731c:	1007d463          	bgez	a5,80007424 <__subsf3+0x1dc>
80007320:	00130513          	addi	a0,t1,1
80007324:	0ff00793          	li	a5,255
80007328:	0014f893          	andi	a7,s1,1
8000732c:	14f51263          	bne	a0,a5,80007470 <__subsf3+0x228>
80007330:	00000713          	li	a4,0
80007334:	01c12083          	lw	ra,28(sp)
80007338:	01751513          	slli	a0,a0,0x17
8000733c:	00e56533          	or	a0,a0,a4
80007340:	01f89793          	slli	a5,a7,0x1f
80007344:	01412483          	lw	s1,20(sp)
80007348:	01012903          	lw	s2,16(sp)
8000734c:	00f56533          	or	a0,a0,a5
80007350:	02010113          	addi	sp,sp,32
80007354:	00008067          	ret
80007358:	42605663          	blez	t1,80007784 <__subsf3+0x53c>
8000735c:	14079063          	bnez	a5,8000749c <__subsf3+0x254>
80007360:	0c050263          	beqz	a0,80007424 <__subsf3+0x1dc>
80007364:	fff30793          	addi	a5,t1,-1
80007368:	36078c63          	beqz	a5,800076e0 <__subsf3+0x498>
8000736c:	0cc30263          	beq	t1,a2,80007430 <__subsf3+0x1e8>
80007370:	01b00713          	li	a4,27
80007374:	12f74a63          	blt	a4,a5,800074a8 <__subsf3+0x260>
80007378:	00078313          	mv	t1,a5
8000737c:	02000693          	li	a3,32
80007380:	406686b3          	sub	a3,a3,t1
80007384:	00d516b3          	sll	a3,a0,a3
80007388:	00d036b3          	snez	a3,a3
8000738c:	006557b3          	srl	a5,a0,t1
80007390:	00d7e7b3          	or	a5,a5,a3
80007394:	00fe0e33          	add	t3,t3,a5
80007398:	005e1793          	slli	a5,t3,0x5
8000739c:	2007da63          	bgez	a5,800075b0 <__subsf3+0x368>
800073a0:	00190313          	addi	t1,s2,1
800073a4:	0ff00793          	li	a5,255
800073a8:	30f30c63          	beq	t1,a5,800076c0 <__subsf3+0x478>
800073ac:	7e000737          	lui	a4,0x7e000
800073b0:	001e5793          	srli	a5,t3,0x1
800073b4:	fff70713          	addi	a4,a4,-1 # 7dffffff <_start-0x2000001>
800073b8:	00e7f7b3          	and	a5,a5,a4
800073bc:	001e7e13          	andi	t3,t3,1
800073c0:	01c7ee33          	or	t3,a5,t3
800073c4:	007e7793          	andi	a5,t3,7
800073c8:	1a079063          	bnez	a5,80007568 <__subsf3+0x320>
800073cc:	1a80006f          	j	80007574 <__subsf3+0x32c>
800073d0:	f0190613          	addi	a2,s2,-255
800073d4:	06051863          	bnez	a0,80007444 <__subsf3+0x1fc>
800073d8:	0015c593          	xori	a1,a1,1
800073dc:	26b88463          	beq	a7,a1,80007644 <__subsf3+0x3fc>
800073e0:	0e060463          	beqz	a2,800074c8 <__subsf3+0x280>
800073e4:	2c091c63          	bnez	s2,800076bc <__subsf3+0x474>
800073e8:	00078313          	mv	t1,a5
800073ec:	2e0e0463          	beqz	t3,800076d4 <__subsf3+0x48c>
800073f0:	fff30713          	addi	a4,t1,-1
800073f4:	40070063          	beqz	a4,800077f4 <__subsf3+0x5ac>
800073f8:	0ff00613          	li	a2,255
800073fc:	3ac30a63          	beq	t1,a2,800077b0 <__subsf3+0x568>
80007400:	01b00693          	li	a3,27
80007404:	34e6d463          	bge	a3,a4,8000774c <__subsf3+0x504>
80007408:	fff50713          	addi	a4,a0,-1
8000740c:	00571693          	slli	a3,a4,0x5
80007410:	3a06ce63          	bltz	a3,800077cc <__subsf3+0x584>
80007414:	00058493          	mv	s1,a1
80007418:	00078913          	mv	s2,a5
8000741c:	00470e13          	addi	t3,a4,4
80007420:	00090313          	mv	t1,s2
80007424:	0ff00793          	li	a5,255
80007428:	003e5713          	srli	a4,t3,0x3
8000742c:	08f31463          	bne	t1,a5,800074b4 <__subsf3+0x26c>
80007430:	46070a63          	beqz	a4,800078a4 <__subsf3+0x65c>
80007434:	00000893          	li	a7,0
80007438:	0ff00513          	li	a0,255
8000743c:	00400737          	lui	a4,0x400
80007440:	ef5ff06f          	j	80007334 <__subsf3+0xec>
80007444:	1ab88863          	beq	a7,a1,800075f4 <__subsf3+0x3ac>
80007448:	08060063          	beqz	a2,800074c8 <__subsf3+0x280>
8000744c:	f8090ee3          	beqz	s2,800073e8 <__subsf3+0x1a0>
80007450:	00078513          	mv	a0,a5
80007454:	00000893          	li	a7,0
80007458:	00400737          	lui	a4,0x400
8000745c:	ed9ff06f          	j	80007334 <__subsf3+0xec>
80007460:	005e1793          	slli	a5,t3,0x5
80007464:	00100513          	li	a0,1
80007468:	4407d463          	bgez	a5,800078b0 <__subsf3+0x668>
8000746c:	01812403          	lw	s0,24(sp)
80007470:	0ff57513          	zext.b	a0,a0
80007474:	006e1713          	slli	a4,t3,0x6
80007478:	00975713          	srli	a4,a4,0x9
8000747c:	0014f893          	andi	a7,s1,1
80007480:	eb5ff06f          	j	80007334 <__subsf3+0xec>
80007484:	fa0500e3          	beqz	a0,80007424 <__subsf3+0x1dc>
80007488:	fff30793          	addi	a5,t1,-1
8000748c:	06078c63          	beqz	a5,80007504 <__subsf3+0x2bc>
80007490:	fac300e3          	beq	t1,a2,80007430 <__subsf3+0x1e8>
80007494:	00078313          	mv	t1,a5
80007498:	e1dff06f          	j	800072b4 <__subsf3+0x6c>
8000749c:	f8c90ae3          	beq	s2,a2,80007430 <__subsf3+0x1e8>
800074a0:	01b00793          	li	a5,27
800074a4:	1c67dc63          	bge	a5,t1,8000767c <__subsf3+0x434>
800074a8:	005e0713          	addi	a4,t3,5
800074ac:	00375713          	srli	a4,a4,0x3
800074b0:	00090313          	mv	t1,s2
800074b4:	00971713          	slli	a4,a4,0x9
800074b8:	00975713          	srli	a4,a4,0x9
800074bc:	0ff37513          	zext.b	a0,t1
800074c0:	0014f893          	andi	a7,s1,1
800074c4:	e71ff06f          	j	80007334 <__subsf3+0xec>
800074c8:	00190793          	addi	a5,s2,1
800074cc:	0fe7f793          	andi	a5,a5,254
800074d0:	0e079e63          	bnez	a5,800075cc <__subsf3+0x384>
800074d4:	f60910e3          	bnez	s2,80007434 <__subsf3+0x1ec>
800074d8:	300e0463          	beqz	t3,800077e0 <__subsf3+0x598>
800074dc:	2a050063          	beqz	a0,8000777c <__subsf3+0x534>
800074e0:	40ae0733          	sub	a4,t3,a0
800074e4:	00571793          	slli	a5,a4,0x5
800074e8:	3407dc63          	bgez	a5,80007840 <__subsf3+0x5f8>
800074ec:	41c50e33          	sub	t3,a0,t3
800074f0:	380e1663          	bnez	t3,8000787c <__subsf3+0x634>
800074f4:	0015f893          	andi	a7,a1,1
800074f8:	00000513          	li	a0,0
800074fc:	00000713          	li	a4,0
80007500:	e35ff06f          	j	80007334 <__subsf3+0xec>
80007504:	40ae0733          	sub	a4,t3,a0
80007508:	00571693          	slli	a3,a4,0x5
8000750c:	040007b7          	lui	a5,0x4000
80007510:	2806da63          	bgez	a3,800077a4 <__subsf3+0x55c>
80007514:	fff78793          	addi	a5,a5,-1 # 3ffffff <_start-0x7c000001>
80007518:	00812c23          	sw	s0,24(sp)
8000751c:	00f77433          	and	s0,a4,a5
80007520:	00040513          	mv	a0,s0
80007524:	231000ef          	jal	80007f54 <__clzsi2>
80007528:	ffb50313          	addi	t1,a0,-5
8000752c:	006417b3          	sll	a5,s0,t1
80007530:	00100913          	li	s2,1
80007534:	41230333          	sub	t1,t1,s2
80007538:	00130313          	addi	t1,t1,1
8000753c:	02000e13          	li	t3,32
80007540:	406e0e33          	sub	t3,t3,t1
80007544:	01c79e33          	sll	t3,a5,t3
80007548:	01c03e33          	snez	t3,t3
8000754c:	0067d7b3          	srl	a5,a5,t1
80007550:	01c7ee33          	or	t3,a5,t3
80007554:	1e0e0263          	beqz	t3,80007738 <__subsf3+0x4f0>
80007558:	007e7793          	andi	a5,t3,7
8000755c:	00000313          	li	t1,0
80007560:	f00780e3          	beqz	a5,80007460 <__subsf3+0x218>
80007564:	01812403          	lw	s0,24(sp)
80007568:	00fe7793          	andi	a5,t3,15
8000756c:	00400713          	li	a4,4
80007570:	dae792e3          	bne	a5,a4,80007314 <__subsf3+0xcc>
80007574:	005e1793          	slli	a5,t3,0x5
80007578:	da07c4e3          	bltz	a5,80007320 <__subsf3+0xd8>
8000757c:	003e5713          	srli	a4,t3,0x3
80007580:	f35ff06f          	j	800074b4 <__subsf3+0x26c>
80007584:	02000693          	li	a3,32
80007588:	406686b3          	sub	a3,a3,t1
8000758c:	00d516b3          	sll	a3,a0,a3
80007590:	00d036b3          	snez	a3,a3
80007594:	006557b3          	srl	a5,a0,t1
80007598:	00d7e7b3          	or	a5,a5,a3
8000759c:	40fe0e33          	sub	t3,t3,a5
800075a0:	005e1793          	slli	a5,t3,0x5
800075a4:	0007d663          	bgez	a5,800075b0 <__subsf3+0x368>
800075a8:	00812c23          	sw	s0,24(sp)
800075ac:	d25ff06f          	j	800072d0 <__subsf3+0x88>
800075b0:	007e7793          	andi	a5,t3,7
800075b4:	30078863          	beqz	a5,800078c4 <__subsf3+0x67c>
800075b8:	00fe7793          	andi	a5,t3,15
800075bc:	00400713          	li	a4,4
800075c0:	00090313          	mv	t1,s2
800075c4:	d4e798e3          	bne	a5,a4,80007314 <__subsf3+0xcc>
800075c8:	e5dff06f          	j	80007424 <__subsf3+0x1dc>
800075cc:	00812c23          	sw	s0,24(sp)
800075d0:	40ae0433          	sub	s0,t3,a0
800075d4:	00541793          	slli	a5,s0,0x5
800075d8:	0e07c863          	bltz	a5,800076c8 <__subsf3+0x480>
800075dc:	ce041ee3          	bnez	s0,800072d8 <__subsf3+0x90>
800075e0:	01812403          	lw	s0,24(sp)
800075e4:	00000893          	li	a7,0
800075e8:	00000513          	li	a0,0
800075ec:	00000713          	li	a4,0
800075f0:	d45ff06f          	j	80007334 <__subsf3+0xec>
800075f4:	04060a63          	beqz	a2,80007648 <__subsf3+0x400>
800075f8:	e4091ce3          	bnez	s2,80007450 <__subsf3+0x208>
800075fc:	00078313          	mv	t1,a5
80007600:	0c0e0c63          	beqz	t3,800076d8 <__subsf3+0x490>
80007604:	fff30713          	addi	a4,t1,-1
80007608:	0c070c63          	beqz	a4,800076e0 <__subsf3+0x498>
8000760c:	0ff00613          	li	a2,255
80007610:	1ac30263          	beq	t1,a2,800077b4 <__subsf3+0x56c>
80007614:	01b00693          	li	a3,27
80007618:	1ae6c263          	blt	a3,a4,800077bc <__subsf3+0x574>
8000761c:	00070313          	mv	t1,a4
80007620:	02000713          	li	a4,32
80007624:	40670733          	sub	a4,a4,t1
80007628:	00ee1733          	sll	a4,t3,a4
8000762c:	006e5333          	srl	t1,t3,t1
80007630:	00e03733          	snez	a4,a4
80007634:	00e36333          	or	t1,t1,a4
80007638:	00078913          	mv	s2,a5
8000763c:	00a30e33          	add	t3,t1,a0
80007640:	d59ff06f          	j	80007398 <__subsf3+0x150>
80007644:	06061a63          	bnez	a2,800076b8 <__subsf3+0x470>
80007648:	00190313          	addi	t1,s2,1
8000764c:	0fe37793          	andi	a5,t1,254
80007650:	02079c63          	bnez	a5,80007688 <__subsf3+0x440>
80007654:	1e091063          	bnez	s2,80007834 <__subsf3+0x5ec>
80007658:	100e0e63          	beqz	t3,80007774 <__subsf3+0x52c>
8000765c:	12050063          	beqz	a0,8000777c <__subsf3+0x534>
80007660:	00ae0733          	add	a4,t3,a0
80007664:	00571793          	slli	a5,a4,0x5
80007668:	1e07d663          	bgez	a5,80007854 <__subsf3+0x60c>
8000766c:	00671713          	slli	a4,a4,0x6
80007670:	00975713          	srli	a4,a4,0x9
80007674:	00100513          	li	a0,1
80007678:	cbdff06f          	j	80007334 <__subsf3+0xec>
8000767c:	040007b7          	lui	a5,0x4000
80007680:	00f56533          	or	a0,a0,a5
80007684:	cf9ff06f          	j	8000737c <__subsf3+0x134>
80007688:	0ff00793          	li	a5,255
8000768c:	02f30a63          	beq	t1,a5,800076c0 <__subsf3+0x478>
80007690:	00ae0733          	add	a4,t3,a0
80007694:	00175713          	srli	a4,a4,0x1
80007698:	00777793          	andi	a5,a4,7
8000769c:	00078a63          	beqz	a5,800076b0 <__subsf3+0x468>
800076a0:	00400693          	li	a3,4
800076a4:	00f77793          	andi	a5,a4,15
800076a8:	00d70e33          	add	t3,a4,a3
800076ac:	d6d79ce3          	bne	a5,a3,80007424 <__subsf3+0x1dc>
800076b0:	00375713          	srli	a4,a4,0x3
800076b4:	e01ff06f          	j	800074b4 <__subsf3+0x26c>
800076b8:	f40902e3          	beqz	s2,800075fc <__subsf3+0x3b4>
800076bc:	0015f893          	andi	a7,a1,1
800076c0:	0ff00513          	li	a0,255
800076c4:	c6dff06f          	j	80007330 <__subsf3+0xe8>
800076c8:	41c50433          	sub	s0,a0,t3
800076cc:	00058493          	mv	s1,a1
800076d0:	c09ff06f          	j	800072d8 <__subsf3+0x90>
800076d4:	00058493          	mv	s1,a1
800076d8:	00050e13          	mv	t3,a0
800076dc:	d49ff06f          	j	80007424 <__subsf3+0x1dc>
800076e0:	00ae07b3          	add	a5,t3,a0
800076e4:	00579713          	slli	a4,a5,0x5
800076e8:	18075463          	bgez	a4,80007870 <__subsf3+0x628>
800076ec:	0017d793          	srli	a5,a5,0x1
800076f0:	7e000737          	lui	a4,0x7e000
800076f4:	fff70713          	addi	a4,a4,-1 # 7dffffff <_start-0x2000001>
800076f8:	0077f693          	andi	a3,a5,7
800076fc:	00e7f733          	and	a4,a5,a4
80007700:	18068c63          	beqz	a3,80007898 <__subsf3+0x650>
80007704:	00400693          	li	a3,4
80007708:	00f7f793          	andi	a5,a5,15
8000770c:	00d70e33          	add	t3,a4,a3
80007710:	00200313          	li	t1,2
80007714:	d0d798e3          	bne	a5,a3,80007424 <__subsf3+0x1dc>
80007718:	f99ff06f          	j	800076b0 <__subsf3+0x468>
8000771c:	da0306e3          	beqz	t1,800074c8 <__subsf3+0x280>
80007720:	41278733          	sub	a4,a5,s2
80007724:	00070313          	mv	t1,a4
80007728:	cc0902e3          	beqz	s2,800073ec <__subsf3+0x1a4>
8000772c:	040006b7          	lui	a3,0x4000
80007730:	00de6e33          	or	t3,t3,a3
80007734:	ccdff06f          	j	80007400 <__subsf3+0x1b8>
80007738:	01812403          	lw	s0,24(sp)
8000773c:	0014f893          	andi	a7,s1,1
80007740:	00000513          	li	a0,0
80007744:	00000713          	li	a4,0
80007748:	bedff06f          	j	80007334 <__subsf3+0xec>
8000774c:	02000693          	li	a3,32
80007750:	40e686b3          	sub	a3,a3,a4
80007754:	00de16b3          	sll	a3,t3,a3
80007758:	00ee5733          	srl	a4,t3,a4
8000775c:	00d036b3          	snez	a3,a3
80007760:	00d76733          	or	a4,a4,a3
80007764:	00078913          	mv	s2,a5
80007768:	00058493          	mv	s1,a1
8000776c:	40e50e33          	sub	t3,a0,a4
80007770:	e31ff06f          	j	800075a0 <__subsf3+0x358>
80007774:	00068713          	mv	a4,a3
80007778:	ba050ce3          	beqz	a0,80007330 <__subsf3+0xe8>
8000777c:	00000313          	li	t1,0
80007780:	d35ff06f          	j	800074b4 <__subsf3+0x26c>
80007784:	ec0302e3          	beqz	t1,80007648 <__subsf3+0x400>
80007788:	41278333          	sub	t1,a5,s2
8000778c:	e6090ae3          	beqz	s2,80007600 <__subsf3+0x3b8>
80007790:	01b00713          	li	a4,27
80007794:	02674463          	blt	a4,t1,800077bc <__subsf3+0x574>
80007798:	04000737          	lui	a4,0x4000
8000779c:	00ee6e33          	or	t3,t3,a4
800077a0:	e81ff06f          	j	80007620 <__subsf3+0x3d8>
800077a4:	00375713          	srli	a4,a4,0x3
800077a8:	00100313          	li	t1,1
800077ac:	d09ff06f          	j	800074b4 <__subsf3+0x26c>
800077b0:	00058493          	mv	s1,a1
800077b4:	00068713          	mv	a4,a3
800077b8:	c79ff06f          	j	80007430 <__subsf3+0x1e8>
800077bc:	00550713          	addi	a4,a0,5
800077c0:	00375713          	srli	a4,a4,0x3
800077c4:	00078313          	mv	t1,a5
800077c8:	cedff06f          	j	800074b4 <__subsf3+0x26c>
800077cc:	00812c23          	sw	s0,24(sp)
800077d0:	00078913          	mv	s2,a5
800077d4:	00058493          	mv	s1,a1
800077d8:	fff00e13          	li	t3,-1
800077dc:	af5ff06f          	j	800072d0 <__subsf3+0x88>
800077e0:	06050263          	beqz	a0,80007844 <__subsf3+0x5fc>
800077e4:	00058493          	mv	s1,a1
800077e8:	00068713          	mv	a4,a3
800077ec:	00000313          	li	t1,0
800077f0:	cc5ff06f          	j	800074b4 <__subsf3+0x26c>
800077f4:	41c50733          	sub	a4,a0,t3
800077f8:	00571693          	slli	a3,a4,0x5
800077fc:	040007b7          	lui	a5,0x4000
80007800:	0606d063          	bgez	a3,80007860 <__subsf3+0x618>
80007804:	fff78793          	addi	a5,a5,-1 # 3ffffff <_start-0x7c000001>
80007808:	00812c23          	sw	s0,24(sp)
8000780c:	00f77433          	and	s0,a4,a5
80007810:	00040513          	mv	a0,s0
80007814:	00b12623          	sw	a1,12(sp)
80007818:	73c000ef          	jal	80007f54 <__clzsi2>
8000781c:	00c12583          	lw	a1,12(sp)
80007820:	ffb50313          	addi	t1,a0,-5
80007824:	006417b3          	sll	a5,s0,t1
80007828:	00058493          	mv	s1,a1
8000782c:	00100913          	li	s2,1
80007830:	d05ff06f          	j	80007534 <__subsf3+0x2ec>
80007834:	c00e10e3          	bnez	t3,80007434 <__subsf3+0x1ec>
80007838:	00068713          	mv	a4,a3
8000783c:	bf5ff06f          	j	80007430 <__subsf3+0x1e8>
80007840:	00071a63          	bnez	a4,80007854 <__subsf3+0x60c>
80007844:	00000893          	li	a7,0
80007848:	00000513          	li	a0,0
8000784c:	00000713          	li	a4,0
80007850:	ae5ff06f          	j	80007334 <__subsf3+0xec>
80007854:	00375713          	srli	a4,a4,0x3
80007858:	00000313          	li	t1,0
8000785c:	c59ff06f          	j	800074b4 <__subsf3+0x26c>
80007860:	00375713          	srli	a4,a4,0x3
80007864:	00058493          	mv	s1,a1
80007868:	00100313          	li	t1,1
8000786c:	c49ff06f          	j	800074b4 <__subsf3+0x26c>
80007870:	0037d713          	srli	a4,a5,0x3
80007874:	00100313          	li	t1,1
80007878:	c3dff06f          	j	800074b4 <__subsf3+0x26c>
8000787c:	005e1793          	slli	a5,t3,0x5
80007880:	00058493          	mv	s1,a1
80007884:	00100513          	li	a0,1
80007888:	003e5713          	srli	a4,t3,0x3
8000788c:	00000313          	li	t1,0
80007890:	be07c2e3          	bltz	a5,80007474 <__subsf3+0x22c>
80007894:	c21ff06f          	j	800074b4 <__subsf3+0x26c>
80007898:	00200313          	li	t1,2
8000789c:	00375713          	srli	a4,a4,0x3
800078a0:	c15ff06f          	j	800074b4 <__subsf3+0x26c>
800078a4:	00048593          	mv	a1,s1
800078a8:	0015f893          	andi	a7,a1,1
800078ac:	e15ff06f          	j	800076c0 <__subsf3+0x478>
800078b0:	01812403          	lw	s0,24(sp)
800078b4:	003e5713          	srli	a4,t3,0x3
800078b8:	bfdff06f          	j	800074b4 <__subsf3+0x26c>
800078bc:	01812403          	lw	s0,24(sp)
800078c0:	b65ff06f          	j	80007424 <__subsf3+0x1dc>
800078c4:	00090313          	mv	t1,s2
800078c8:	b5dff06f          	j	80007424 <__subsf3+0x1dc>

800078cc <__fixunssfsi>:
800078cc:	01755713          	srli	a4,a0,0x17
800078d0:	00800637          	lui	a2,0x800
800078d4:	fff60793          	addi	a5,a2,-1 # 7fffff <_start-0x7f800001>
800078d8:	0ff77713          	zext.b	a4,a4
800078dc:	07e00593          	li	a1,126
800078e0:	00a7f6b3          	and	a3,a5,a0
800078e4:	01f55793          	srli	a5,a0,0x1f
800078e8:	00000513          	li	a0,0
800078ec:	00e5d463          	bge	a1,a4,800078f4 <__fixunssfsi+0x28>
800078f0:	00078463          	beqz	a5,800078f8 <__fixunssfsi+0x2c>
800078f4:	00008067          	ret
800078f8:	09e00793          	li	a5,158
800078fc:	fff00513          	li	a0,-1
80007900:	fee7cae3          	blt	a5,a4,800078f4 <__fixunssfsi+0x28>
80007904:	09500593          	li	a1,149
80007908:	00c6e7b3          	or	a5,a3,a2
8000790c:	00e5d863          	bge	a1,a4,8000791c <__fixunssfsi+0x50>
80007910:	f6a70713          	addi	a4,a4,-150 # 3ffff6a <_start-0x7c000096>
80007914:	00e79533          	sll	a0,a5,a4
80007918:	00008067          	ret
8000791c:	09600513          	li	a0,150
80007920:	40e50533          	sub	a0,a0,a4
80007924:	00a7d533          	srl	a0,a5,a0
80007928:	00008067          	ret

8000792c <__floatsisf>:
8000792c:	ff010113          	addi	sp,sp,-16
80007930:	00112623          	sw	ra,12(sp)
80007934:	00812423          	sw	s0,8(sp)
80007938:	00912223          	sw	s1,4(sp)
8000793c:	04050863          	beqz	a0,8000798c <__floatsisf+0x60>
80007940:	41f55713          	srai	a4,a0,0x1f
80007944:	00a74433          	xor	s0,a4,a0
80007948:	40e40433          	sub	s0,s0,a4
8000794c:	00050793          	mv	a5,a0
80007950:	00040513          	mv	a0,s0
80007954:	01f7d493          	srli	s1,a5,0x1f
80007958:	5fc000ef          	jal	80007f54 <__clzsi2>
8000795c:	09e00793          	li	a5,158
80007960:	40a786b3          	sub	a3,a5,a0
80007964:	09600793          	li	a5,150
80007968:	04d7ca63          	blt	a5,a3,800079bc <__floatsisf+0x90>
8000796c:	00800713          	li	a4,8
80007970:	0ee50463          	beq	a0,a4,80007a58 <__floatsisf+0x12c>
80007974:	ff850513          	addi	a0,a0,-8
80007978:	00a41433          	sll	s0,s0,a0
8000797c:	00941413          	slli	s0,s0,0x9
80007980:	00945413          	srli	s0,s0,0x9
80007984:	0ff6f793          	zext.b	a5,a3
80007988:	0100006f          	j	80007998 <__floatsisf+0x6c>
8000798c:	00000493          	li	s1,0
80007990:	00000793          	li	a5,0
80007994:	00000413          	li	s0,0
80007998:	01779793          	slli	a5,a5,0x17
8000799c:	00c12083          	lw	ra,12(sp)
800079a0:	0087e7b3          	or	a5,a5,s0
800079a4:	00812403          	lw	s0,8(sp)
800079a8:	01f49513          	slli	a0,s1,0x1f
800079ac:	00a7e533          	or	a0,a5,a0
800079b0:	00412483          	lw	s1,4(sp)
800079b4:	01010113          	addi	sp,sp,16
800079b8:	00008067          	ret
800079bc:	09900713          	li	a4,153
800079c0:	04d74a63          	blt	a4,a3,80007a14 <__floatsisf+0xe8>
800079c4:	ffb50793          	addi	a5,a0,-5
800079c8:	00f41433          	sll	s0,s0,a5
800079cc:	fc0007b7          	lui	a5,0xfc000
800079d0:	fff78793          	addi	a5,a5,-1 # fbffffff <maxheap+0x7bff0fef>
800079d4:	00747713          	andi	a4,s0,7
800079d8:	00f477b3          	and	a5,s0,a5
800079dc:	06070463          	beqz	a4,80007a44 <__floatsisf+0x118>
800079e0:	00f47413          	andi	s0,s0,15
800079e4:	00400713          	li	a4,4
800079e8:	04e40e63          	beq	s0,a4,80007a44 <__floatsisf+0x118>
800079ec:	00478793          	addi	a5,a5,4
800079f0:	00579713          	slli	a4,a5,0x5
800079f4:	0037d413          	srli	s0,a5,0x3
800079f8:	04075863          	bgez	a4,80007a48 <__floatsisf+0x11c>
800079fc:	09f00793          	li	a5,159
80007a00:	00941413          	slli	s0,s0,0x9
80007a04:	40a787b3          	sub	a5,a5,a0
80007a08:	00945413          	srli	s0,s0,0x9
80007a0c:	0ff7f793          	zext.b	a5,a5
80007a10:	f89ff06f          	j	80007998 <__floatsisf+0x6c>
80007a14:	01b50793          	addi	a5,a0,27
80007a18:	00500713          	li	a4,5
80007a1c:	00f417b3          	sll	a5,s0,a5
80007a20:	40a70733          	sub	a4,a4,a0
80007a24:	00f037b3          	snez	a5,a5
80007a28:	00e45433          	srl	s0,s0,a4
80007a2c:	0087e433          	or	s0,a5,s0
80007a30:	fc0007b7          	lui	a5,0xfc000
80007a34:	fff78793          	addi	a5,a5,-1 # fbffffff <maxheap+0x7bff0fef>
80007a38:	00747713          	andi	a4,s0,7
80007a3c:	00f477b3          	and	a5,s0,a5
80007a40:	fa0710e3          	bnez	a4,800079e0 <__floatsisf+0xb4>
80007a44:	0037d413          	srli	s0,a5,0x3
80007a48:	00941413          	slli	s0,s0,0x9
80007a4c:	00945413          	srli	s0,s0,0x9
80007a50:	0ff6f793          	zext.b	a5,a3
80007a54:	f45ff06f          	j	80007998 <__floatsisf+0x6c>
80007a58:	00941413          	slli	s0,s0,0x9
80007a5c:	00945413          	srli	s0,s0,0x9
80007a60:	f39ff06f          	j	80007998 <__floatsisf+0x6c>

80007a64 <__floatunsisf>:
80007a64:	ff010113          	addi	sp,sp,-16
80007a68:	00112623          	sw	ra,12(sp)
80007a6c:	00812423          	sw	s0,8(sp)
80007a70:	04050863          	beqz	a0,80007ac0 <__floatunsisf+0x5c>
80007a74:	00050413          	mv	s0,a0
80007a78:	4dc000ef          	jal	80007f54 <__clzsi2>
80007a7c:	09e00713          	li	a4,158
80007a80:	40a70733          	sub	a4,a4,a0
80007a84:	09600793          	li	a5,150
80007a88:	04e7cc63          	blt	a5,a4,80007ae0 <__floatunsisf+0x7c>
80007a8c:	00800693          	li	a3,8
80007a90:	10d50a63          	beq	a0,a3,80007ba4 <__floatunsisf+0x140>
80007a94:	ff850513          	addi	a0,a0,-8
80007a98:	00a41433          	sll	s0,s0,a0
80007a9c:	00941413          	slli	s0,s0,0x9
80007aa0:	0ff77513          	zext.b	a0,a4
80007aa4:	00945413          	srli	s0,s0,0x9
80007aa8:	01751513          	slli	a0,a0,0x17
80007aac:	00c12083          	lw	ra,12(sp)
80007ab0:	00856533          	or	a0,a0,s0
80007ab4:	00812403          	lw	s0,8(sp)
80007ab8:	01010113          	addi	sp,sp,16
80007abc:	00008067          	ret
80007ac0:	00000513          	li	a0,0
80007ac4:	00000413          	li	s0,0
80007ac8:	01751513          	slli	a0,a0,0x17
80007acc:	00c12083          	lw	ra,12(sp)
80007ad0:	00856533          	or	a0,a0,s0
80007ad4:	00812403          	lw	s0,8(sp)
80007ad8:	01010113          	addi	sp,sp,16
80007adc:	00008067          	ret
80007ae0:	09900793          	li	a5,153
80007ae4:	06e7c463          	blt	a5,a4,80007b4c <__floatunsisf+0xe8>
80007ae8:	ffb50793          	addi	a5,a0,-5
80007aec:	00f41433          	sll	s0,s0,a5
80007af0:	fc0007b7          	lui	a5,0xfc000
80007af4:	fff78793          	addi	a5,a5,-1 # fbffffff <maxheap+0x7bff0fef>
80007af8:	00747693          	andi	a3,s0,7
80007afc:	00f477b3          	and	a5,s0,a5
80007b00:	06068e63          	beqz	a3,80007b7c <__floatunsisf+0x118>
80007b04:	00f47413          	andi	s0,s0,15
80007b08:	00400693          	li	a3,4
80007b0c:	06d40863          	beq	s0,a3,80007b7c <__floatunsisf+0x118>
80007b10:	00478793          	addi	a5,a5,4
80007b14:	00579693          	slli	a3,a5,0x5
80007b18:	0037d413          	srli	s0,a5,0x3
80007b1c:	0606d263          	bgez	a3,80007b80 <__floatunsisf+0x11c>
80007b20:	09f00793          	li	a5,159
80007b24:	40a78533          	sub	a0,a5,a0
80007b28:	00941413          	slli	s0,s0,0x9
80007b2c:	0ff57513          	zext.b	a0,a0
80007b30:	00945413          	srli	s0,s0,0x9
80007b34:	01751513          	slli	a0,a0,0x17
80007b38:	00c12083          	lw	ra,12(sp)
80007b3c:	00856533          	or	a0,a0,s0
80007b40:	00812403          	lw	s0,8(sp)
80007b44:	01010113          	addi	sp,sp,16
80007b48:	00008067          	ret
80007b4c:	01b50793          	addi	a5,a0,27
80007b50:	00500693          	li	a3,5
80007b54:	00f417b3          	sll	a5,s0,a5
80007b58:	40a686b3          	sub	a3,a3,a0
80007b5c:	00f037b3          	snez	a5,a5
80007b60:	00d45433          	srl	s0,s0,a3
80007b64:	0087e433          	or	s0,a5,s0
80007b68:	fc0007b7          	lui	a5,0xfc000
80007b6c:	fff78793          	addi	a5,a5,-1 # fbffffff <maxheap+0x7bff0fef>
80007b70:	00747693          	andi	a3,s0,7
80007b74:	00f477b3          	and	a5,s0,a5
80007b78:	f80696e3          	bnez	a3,80007b04 <__floatunsisf+0xa0>
80007b7c:	0037d413          	srli	s0,a5,0x3
80007b80:	00941413          	slli	s0,s0,0x9
80007b84:	0ff77513          	zext.b	a0,a4
80007b88:	00945413          	srli	s0,s0,0x9
80007b8c:	01751513          	slli	a0,a0,0x17
80007b90:	00c12083          	lw	ra,12(sp)
80007b94:	00856533          	or	a0,a0,s0
80007b98:	00812403          	lw	s0,8(sp)
80007b9c:	01010113          	addi	sp,sp,16
80007ba0:	00008067          	ret
80007ba4:	00941413          	slli	s0,s0,0x9
80007ba8:	00945413          	srli	s0,s0,0x9
80007bac:	00078513          	mv	a0,a5
80007bb0:	f19ff06f          	j	80007ac8 <__floatunsisf+0x64>

80007bb4 <__extendsfdf2>:
80007bb4:	01755793          	srli	a5,a0,0x17
80007bb8:	0ff7f793          	zext.b	a5,a5
80007bbc:	fe010113          	addi	sp,sp,-32
80007bc0:	00178713          	addi	a4,a5,1
80007bc4:	00812c23          	sw	s0,24(sp)
80007bc8:	00912a23          	sw	s1,20(sp)
80007bcc:	00112e23          	sw	ra,28(sp)
80007bd0:	00951493          	slli	s1,a0,0x9
80007bd4:	01212823          	sw	s2,16(sp)
80007bd8:	01312623          	sw	s3,12(sp)
80007bdc:	0fe77713          	andi	a4,a4,254
80007be0:	0094d493          	srli	s1,s1,0x9
80007be4:	01f55413          	srli	s0,a0,0x1f
80007be8:	04070263          	beqz	a4,80007c2c <__extendsfdf2+0x78>
80007bec:	0034d713          	srli	a4,s1,0x3
80007bf0:	38078793          	addi	a5,a5,896
80007bf4:	01d49493          	slli	s1,s1,0x1d
80007bf8:	01f41513          	slli	a0,s0,0x1f
80007bfc:	01c12083          	lw	ra,28(sp)
80007c00:	01812403          	lw	s0,24(sp)
80007c04:	01479793          	slli	a5,a5,0x14
80007c08:	00e7e7b3          	or	a5,a5,a4
80007c0c:	00a7e7b3          	or	a5,a5,a0
80007c10:	01012903          	lw	s2,16(sp)
80007c14:	00c12983          	lw	s3,12(sp)
80007c18:	00048513          	mv	a0,s1
80007c1c:	00078593          	mv	a1,a5
80007c20:	01412483          	lw	s1,20(sp)
80007c24:	02010113          	addi	sp,sp,32
80007c28:	00008067          	ret
80007c2c:	04079263          	bnez	a5,80007c70 <__extendsfdf2+0xbc>
80007c30:	06048263          	beqz	s1,80007c94 <__extendsfdf2+0xe0>
80007c34:	00048513          	mv	a0,s1
80007c38:	31c000ef          	jal	80007f54 <__clzsi2>
80007c3c:	00a00793          	li	a5,10
80007c40:	06a7c663          	blt	a5,a0,80007cac <__extendsfdf2+0xf8>
80007c44:	00b00713          	li	a4,11
80007c48:	40a70733          	sub	a4,a4,a0
80007c4c:	01550793          	addi	a5,a0,21
80007c50:	00e4d733          	srl	a4,s1,a4
80007c54:	00f494b3          	sll	s1,s1,a5
80007c58:	38900793          	li	a5,905
80007c5c:	00c71713          	slli	a4,a4,0xc
80007c60:	40a787b3          	sub	a5,a5,a0
80007c64:	00c75713          	srli	a4,a4,0xc
80007c68:	7ff7f793          	andi	a5,a5,2047
80007c6c:	f8dff06f          	j	80007bf8 <__extendsfdf2+0x44>
80007c70:	02048863          	beqz	s1,80007ca0 <__extendsfdf2+0xec>
80007c74:	0034d713          	srli	a4,s1,0x3
80007c78:	000807b7          	lui	a5,0x80
80007c7c:	00f76733          	or	a4,a4,a5
80007c80:	00c71713          	slli	a4,a4,0xc
80007c84:	01d49493          	slli	s1,s1,0x1d
80007c88:	00c75713          	srli	a4,a4,0xc
80007c8c:	7ff00793          	li	a5,2047
80007c90:	f69ff06f          	j	80007bf8 <__extendsfdf2+0x44>
80007c94:	00000793          	li	a5,0
80007c98:	00000713          	li	a4,0
80007c9c:	f5dff06f          	j	80007bf8 <__extendsfdf2+0x44>
80007ca0:	7ff00793          	li	a5,2047
80007ca4:	00000713          	li	a4,0
80007ca8:	f51ff06f          	j	80007bf8 <__extendsfdf2+0x44>
80007cac:	ff550713          	addi	a4,a0,-11
80007cb0:	00e49733          	sll	a4,s1,a4
80007cb4:	00000493          	li	s1,0
80007cb8:	fa1ff06f          	j	80007c58 <__extendsfdf2+0xa4>

80007cbc <__truncdfsf2>:
80007cbc:	0145d613          	srli	a2,a1,0x14
80007cc0:	7ff67613          	andi	a2,a2,2047
80007cc4:	00c59693          	slli	a3,a1,0xc
80007cc8:	00160713          	addi	a4,a2,1
80007ccc:	0096d693          	srli	a3,a3,0x9
80007cd0:	01d55793          	srli	a5,a0,0x1d
80007cd4:	7fe77713          	andi	a4,a4,2046
80007cd8:	01f5d593          	srli	a1,a1,0x1f
80007cdc:	00d7e6b3          	or	a3,a5,a3
80007ce0:	00351813          	slli	a6,a0,0x3
80007ce4:	02070663          	beqz	a4,80007d10 <__truncdfsf2+0x54>
80007ce8:	c8060713          	addi	a4,a2,-896
80007cec:	0fe00793          	li	a5,254
80007cf0:	06e7dc63          	bge	a5,a4,80007d68 <__truncdfsf2+0xac>
80007cf4:	0ff00713          	li	a4,255
80007cf8:	00000793          	li	a5,0
80007cfc:	01771713          	slli	a4,a4,0x17
80007d00:	00f76733          	or	a4,a4,a5
80007d04:	01f59593          	slli	a1,a1,0x1f
80007d08:	00b76533          	or	a0,a4,a1
80007d0c:	00008067          	ret
80007d10:	0106e7b3          	or	a5,a3,a6
80007d14:	02061863          	bnez	a2,80007d44 <__truncdfsf2+0x88>
80007d18:	00000713          	li	a4,0
80007d1c:	fc078ee3          	beqz	a5,80007cf8 <__truncdfsf2+0x3c>
80007d20:	00500793          	li	a5,5
80007d24:	00679793          	slli	a5,a5,0x6
80007d28:	0ff77713          	zext.b	a4,a4
80007d2c:	0097d793          	srli	a5,a5,0x9
80007d30:	01771713          	slli	a4,a4,0x17
80007d34:	00f76733          	or	a4,a4,a5
80007d38:	01f59593          	slli	a1,a1,0x1f
80007d3c:	00b76533          	or	a0,a4,a1
80007d40:	00008067          	ret
80007d44:	fa0788e3          	beqz	a5,80007cf4 <__truncdfsf2+0x38>
80007d48:	0ff00713          	li	a4,255
80007d4c:	004007b7          	lui	a5,0x400
80007d50:	00000593          	li	a1,0
80007d54:	01771713          	slli	a4,a4,0x17
80007d58:	00f76733          	or	a4,a4,a5
80007d5c:	01f59593          	slli	a1,a1,0x1f
80007d60:	00b76533          	or	a0,a4,a1
80007d64:	00008067          	ret
80007d68:	06e05063          	blez	a4,80007dc8 <__truncdfsf2+0x10c>
80007d6c:	00651793          	slli	a5,a0,0x6
80007d70:	00369693          	slli	a3,a3,0x3
80007d74:	00f037b3          	snez	a5,a5
80007d78:	00d7e7b3          	or	a5,a5,a3
80007d7c:	01d85813          	srli	a6,a6,0x1d
80007d80:	0107e7b3          	or	a5,a5,a6
80007d84:	0077f693          	andi	a3,a5,7
80007d88:	f8068ee3          	beqz	a3,80007d24 <__truncdfsf2+0x68>
80007d8c:	00f7f693          	andi	a3,a5,15
80007d90:	00400613          	li	a2,4
80007d94:	f8c688e3          	beq	a3,a2,80007d24 <__truncdfsf2+0x68>
80007d98:	00c787b3          	add	a5,a5,a2
80007d9c:	040006b7          	lui	a3,0x4000
80007da0:	00d7f6b3          	and	a3,a5,a3
80007da4:	f80680e3          	beqz	a3,80007d24 <__truncdfsf2+0x68>
80007da8:	00170713          	addi	a4,a4,1
80007dac:	0ff77713          	zext.b	a4,a4
80007db0:	00000793          	li	a5,0
80007db4:	01771713          	slli	a4,a4,0x17
80007db8:	00f76733          	or	a4,a4,a5
80007dbc:	01f59593          	slli	a1,a1,0x1f
80007dc0:	00b76533          	or	a0,a4,a1
80007dc4:	00008067          	ret
80007dc8:	fe900793          	li	a5,-23
80007dcc:	04f74c63          	blt	a4,a5,80007e24 <__truncdfsf2+0x168>
80007dd0:	01e00793          	li	a5,30
80007dd4:	008008b7          	lui	a7,0x800
80007dd8:	40e787b3          	sub	a5,a5,a4
80007ddc:	01f00513          	li	a0,31
80007de0:	0116e6b3          	or	a3,a3,a7
80007de4:	04f55463          	bge	a0,a5,80007e2c <__truncdfsf2+0x170>
80007de8:	ffe00513          	li	a0,-2
80007dec:	40e50733          	sub	a4,a0,a4
80007df0:	02000513          	li	a0,32
80007df4:	00e6d733          	srl	a4,a3,a4
80007df8:	00a78863          	beq	a5,a0,80007e08 <__truncdfsf2+0x14c>
80007dfc:	ca260613          	addi	a2,a2,-862
80007e00:	00c696b3          	sll	a3,a3,a2
80007e04:	00d86833          	or	a6,a6,a3
80007e08:	010037b3          	snez	a5,a6
80007e0c:	00e7e7b3          	or	a5,a5,a4
80007e10:	0077f713          	andi	a4,a5,7
80007e14:	02071c63          	bnez	a4,80007e4c <__truncdfsf2+0x190>
80007e18:	00679793          	slli	a5,a5,0x6
80007e1c:	0097d793          	srli	a5,a5,0x9
80007e20:	eddff06f          	j	80007cfc <__truncdfsf2+0x40>
80007e24:	00000713          	li	a4,0
80007e28:	ef9ff06f          	j	80007d20 <__truncdfsf2+0x64>
80007e2c:	c8260613          	addi	a2,a2,-894
80007e30:	00c81733          	sll	a4,a6,a2
80007e34:	00c696b3          	sll	a3,a3,a2
80007e38:	00e03733          	snez	a4,a4
80007e3c:	00d76733          	or	a4,a4,a3
80007e40:	00f857b3          	srl	a5,a6,a5
80007e44:	00e7e7b3          	or	a5,a5,a4
80007e48:	fc9ff06f          	j	80007e10 <__truncdfsf2+0x154>
80007e4c:	00f7f713          	andi	a4,a5,15
80007e50:	00400693          	li	a3,4
80007e54:	00d71a63          	bne	a4,a3,80007e68 <__truncdfsf2+0x1ac>
80007e58:	00679793          	slli	a5,a5,0x6
80007e5c:	0097d793          	srli	a5,a5,0x9
80007e60:	00000713          	li	a4,0
80007e64:	e99ff06f          	j	80007cfc <__truncdfsf2+0x40>
80007e68:	00d787b3          	add	a5,a5,a3
80007e6c:	040006b7          	lui	a3,0x4000
80007e70:	00d7f6b3          	and	a3,a5,a3
80007e74:	00000713          	li	a4,0
80007e78:	f2dff06f          	j	80007da4 <__truncdfsf2+0xe8>

80007e7c <__mulsi3>:
80007e7c:	00050613          	mv	a2,a0
80007e80:	00000513          	li	a0,0
80007e84:	0015f693          	andi	a3,a1,1
80007e88:	00068463          	beqz	a3,80007e90 <__mulsi3+0x14>
80007e8c:	00c50533          	add	a0,a0,a2
80007e90:	0015d593          	srli	a1,a1,0x1
80007e94:	00161613          	slli	a2,a2,0x1
80007e98:	fe0596e3          	bnez	a1,80007e84 <__mulsi3+0x8>
80007e9c:	00008067          	ret

80007ea0 <__divsi3>:
80007ea0:	06054063          	bltz	a0,80007f00 <__umodsi3+0x10>
80007ea4:	0605c663          	bltz	a1,80007f10 <__umodsi3+0x20>

80007ea8 <__hidden___udivsi3>:
80007ea8:	00058613          	mv	a2,a1
80007eac:	00050593          	mv	a1,a0
80007eb0:	fff00513          	li	a0,-1
80007eb4:	02060c63          	beqz	a2,80007eec <__hidden___udivsi3+0x44>
80007eb8:	00100693          	li	a3,1
80007ebc:	00b67a63          	bgeu	a2,a1,80007ed0 <__hidden___udivsi3+0x28>
80007ec0:	00c05863          	blez	a2,80007ed0 <__hidden___udivsi3+0x28>
80007ec4:	00161613          	slli	a2,a2,0x1
80007ec8:	00169693          	slli	a3,a3,0x1
80007ecc:	feb66ae3          	bltu	a2,a1,80007ec0 <__hidden___udivsi3+0x18>
80007ed0:	00000513          	li	a0,0
80007ed4:	00c5e663          	bltu	a1,a2,80007ee0 <__hidden___udivsi3+0x38>
80007ed8:	40c585b3          	sub	a1,a1,a2
80007edc:	00d56533          	or	a0,a0,a3
80007ee0:	0016d693          	srli	a3,a3,0x1
80007ee4:	00165613          	srli	a2,a2,0x1
80007ee8:	fe0696e3          	bnez	a3,80007ed4 <__hidden___udivsi3+0x2c>
80007eec:	00008067          	ret

80007ef0 <__umodsi3>:
80007ef0:	00008293          	mv	t0,ra
80007ef4:	fb5ff0ef          	jal	80007ea8 <__hidden___udivsi3>
80007ef8:	00058513          	mv	a0,a1
80007efc:	00028067          	jr	t0
80007f00:	40a00533          	neg	a0,a0
80007f04:	00b04863          	bgtz	a1,80007f14 <__umodsi3+0x24>
80007f08:	40b005b3          	neg	a1,a1
80007f0c:	f9dff06f          	j	80007ea8 <__hidden___udivsi3>
80007f10:	40b005b3          	neg	a1,a1
80007f14:	00008293          	mv	t0,ra
80007f18:	f91ff0ef          	jal	80007ea8 <__hidden___udivsi3>
80007f1c:	40a00533          	neg	a0,a0
80007f20:	00028067          	jr	t0

80007f24 <__modsi3>:
80007f24:	00008293          	mv	t0,ra
80007f28:	0005ca63          	bltz	a1,80007f3c <__modsi3+0x18>
80007f2c:	00054c63          	bltz	a0,80007f44 <__modsi3+0x20>
80007f30:	f79ff0ef          	jal	80007ea8 <__hidden___udivsi3>
80007f34:	00058513          	mv	a0,a1
80007f38:	00028067          	jr	t0
80007f3c:	40b005b3          	neg	a1,a1
80007f40:	fe0558e3          	bgez	a0,80007f30 <__modsi3+0xc>
80007f44:	40a00533          	neg	a0,a0
80007f48:	f61ff0ef          	jal	80007ea8 <__hidden___udivsi3>
80007f4c:	40b00533          	neg	a0,a1
80007f50:	00028067          	jr	t0

80007f54 <__clzsi2>:
80007f54:	000107b7          	lui	a5,0x10
80007f58:	02f57a63          	bgeu	a0,a5,80007f8c <__clzsi2+0x38>
80007f5c:	10053793          	sltiu	a5,a0,256
80007f60:	0017b793          	seqz	a5,a5
80007f64:	00379793          	slli	a5,a5,0x3
80007f68:	02000713          	li	a4,32
80007f6c:	40f70733          	sub	a4,a4,a5
80007f70:	00f55533          	srl	a0,a0,a5
80007f74:	00003797          	auipc	a5,0x3
80007f78:	2187a783          	lw	a5,536(a5) # 8000b18c <_GLOBAL_OFFSET_TABLE_+0x4>
80007f7c:	00a787b3          	add	a5,a5,a0
80007f80:	0007c503          	lbu	a0,0(a5)
80007f84:	40a70533          	sub	a0,a4,a0
80007f88:	00008067          	ret
80007f8c:	010007b7          	lui	a5,0x1000
80007f90:	02f57463          	bgeu	a0,a5,80007fb8 <__clzsi2+0x64>
80007f94:	01000713          	li	a4,16
80007f98:	00070793          	mv	a5,a4
80007f9c:	00f55533          	srl	a0,a0,a5
80007fa0:	00003797          	auipc	a5,0x3
80007fa4:	1ec7a783          	lw	a5,492(a5) # 8000b18c <_GLOBAL_OFFSET_TABLE_+0x4>
80007fa8:	00a787b3          	add	a5,a5,a0
80007fac:	0007c503          	lbu	a0,0(a5)
80007fb0:	40a70533          	sub	a0,a4,a0
80007fb4:	00008067          	ret
80007fb8:	01800793          	li	a5,24
80007fbc:	00f55533          	srl	a0,a0,a5
80007fc0:	00003797          	auipc	a5,0x3
80007fc4:	1cc7a783          	lw	a5,460(a5) # 8000b18c <_GLOBAL_OFFSET_TABLE_+0x4>
80007fc8:	00a787b3          	add	a5,a5,a0
80007fcc:	0007c503          	lbu	a0,0(a5)
80007fd0:	00800713          	li	a4,8
80007fd4:	40a70533          	sub	a0,a4,a0
80007fd8:	00008067          	ret
