
hello.elf:     file format elf32-littleriscv


Disassembly of section .text:

80000000 <_start>:
80000000:	00000093          	li	ra,0
80000004:	00005117          	auipc	sp,0x5
80000008:	d9c10113          	addi	sp,sp,-612 # 80004da0 <count>
8000000c:	00000193          	li	gp,0
80000010:	00000213          	li	tp,0
80000014:	00000293          	li	t0,0
80000018:	00000313          	li	t1,0
8000001c:	00000393          	li	t2,0
80000020:	00000413          	li	s0,0
80000024:	00000493          	li	s1,0
80000028:	00000513          	li	a0,0
8000002c:	00000593          	li	a1,0
80000030:	00000613          	li	a2,0
80000034:	00000693          	li	a3,0
80000038:	00000713          	li	a4,0
8000003c:	00000793          	li	a5,0
80000040:	00000813          	li	a6,0
80000044:	00000893          	li	a7,0
80000048:	00000913          	li	s2,0
8000004c:	00000993          	li	s3,0
80000050:	00000a13          	li	s4,0
80000054:	00000a93          	li	s5,0
80000058:	00000b13          	li	s6,0
8000005c:	00000b93          	li	s7,0
80000060:	00000c13          	li	s8,0
80000064:	00000c93          	li	s9,0
80000068:	00000d13          	li	s10,0
8000006c:	00000d93          	li	s11,0
80000070:	00000e13          	li	t3,0
80000074:	00000e93          	li	t4,0
80000078:	00000f13          	li	t5,0
8000007c:	00000f93          	li	t6,0
80000080:	00005517          	auipc	a0,0x5
80000084:	db450513          	addi	a0,a0,-588 # 80004e34 <buf>
80000088:	00005617          	auipc	a2,0x5
8000008c:	dcc60613          	addi	a2,a2,-564 # 80004e54 <_ebss>
80000090:	40a60633          	sub	a2,a2,a0
80000094:	00000593          	li	a1,0
80000098:	60c010ef          	jal	800016a4 <memset>
8000009c:	028000ef          	jal	800000c4 <main>

800000a0 <loop>:
800000a0:	0000006f          	j	800000a0 <loop>

800000a4 <__syscall>:
800000a4:	00050893          	mv	a7,a0
800000a8:	00058513          	mv	a0,a1
800000ac:	00060593          	mv	a1,a2
800000b0:	00068613          	mv	a2,a3
800000b4:	00070693          	mv	a3,a4
800000b8:	00078713          	mv	a4,a5
800000bc:	00000073          	ecall
800000c0:	00008067          	ret

800000c4 <main>:
800000c4:	fc010113          	addi	sp,sp,-64
800000c8:	02112e23          	sw	ra,60(sp)
800000cc:	02812c23          	sw	s0,56(sp)
800000d0:	04010413          	addi	s0,sp,64
800000d4:	fca42623          	sw	a0,-52(s0)
800000d8:	fcb42423          	sw	a1,-56(s0)
800000dc:	00a00693          	li	a3,10
800000e0:	01400613          	li	a2,20
800000e4:	800057b7          	lui	a5,0x80005
800000e8:	e3478593          	addi	a1,a5,-460 # 80004e34 <buf>
800000ec:	1ca00513          	li	a0,458
800000f0:	5d8020ef          	jal	800026c8 <uitoa>
800000f4:	800057b7          	lui	a5,0x80005
800000f8:	e3478593          	addi	a1,a5,-460 # 80004e34 <buf>
800000fc:	800037b7          	lui	a5,0x80003
80000100:	2d878513          	addi	a0,a5,728 # 800032d8 <__modsi3+0x30>
80000104:	0b5020ef          	jal	800029b8 <printf>
80000108:	800057b7          	lui	a5,0x80005
8000010c:	da07a783          	lw	a5,-608(a5) # 80004da0 <count>
80000110:	00078613          	mv	a2,a5
80000114:	800037b7          	lui	a5,0x80003
80000118:	2dc78593          	addi	a1,a5,732 # 800032dc <__modsi3+0x34>
8000011c:	800057b7          	lui	a5,0x80005
80000120:	e3478513          	addi	a0,a5,-460 # 80004e34 <buf>
80000124:	109020ef          	jal	80002a2c <sprintf>
80000128:	800057b7          	lui	a5,0x80005
8000012c:	e3478593          	addi	a1,a5,-460 # 80004e34 <buf>
80000130:	800037b7          	lui	a5,0x80003
80000134:	2d878513          	addi	a0,a5,728 # 800032d8 <__modsi3+0x30>
80000138:	081020ef          	jal	800029b8 <printf>
8000013c:	800037b7          	lui	a5,0x80003
80000140:	2e878593          	addi	a1,a5,744 # 800032e8 <__modsi3+0x40>
80000144:	800057b7          	lui	a5,0x80005
80000148:	e3478513          	addi	a0,a5,-460 # 80004e34 <buf>
8000014c:	4ad010ef          	jal	80001df8 <strcpy>
80000150:	04100513          	li	a0,65
80000154:	7dc020ef          	jal	80002930 <kputc>
80000158:	00a00513          	li	a0,10
8000015c:	7d4020ef          	jal	80002930 <kputc>
80000160:	800037b7          	lui	a5,0x80003
80000164:	2f878513          	addi	a0,a5,760 # 800032f8 <__modsi3+0x50>
80000168:	051020ef          	jal	800029b8 <printf>
8000016c:	fe042623          	sw	zero,-20(s0)
80000170:	0200006f          	j	80000190 <main+0xcc>
80000174:	fec42583          	lw	a1,-20(s0)
80000178:	800037b7          	lui	a5,0x80003
8000017c:	30c78513          	addi	a0,a5,780 # 8000330c <__modsi3+0x64>
80000180:	039020ef          	jal	800029b8 <printf>
80000184:	fec42783          	lw	a5,-20(s0)
80000188:	00178793          	addi	a5,a5,1
8000018c:	fef42623          	sw	a5,-20(s0)
80000190:	fec42703          	lw	a4,-20(s0)
80000194:	00900793          	li	a5,9
80000198:	fce7dee3          	bge	a5,a4,80000174 <main+0xb0>
8000019c:	800037b7          	lui	a5,0x80003
800001a0:	31078513          	addi	a0,a5,784 # 80003310 <__modsi3+0x68>
800001a4:	015020ef          	jal	800029b8 <printf>
800001a8:	800037b7          	lui	a5,0x80003
800001ac:	31478513          	addi	a0,a5,788 # 80003314 <__modsi3+0x6c>
800001b0:	009020ef          	jal	800029b8 <printf>
800001b4:	800037b7          	lui	a5,0x80003
800001b8:	32878513          	addi	a0,a5,808 # 80003328 <__modsi3+0x80>
800001bc:	7fc020ef          	jal	800029b8 <printf>
800001c0:	4d200593          	li	a1,1234
800001c4:	800037b7          	lui	a5,0x80003
800001c8:	33878513          	addi	a0,a5,824 # 80003338 <__modsi3+0x90>
800001cc:	7ec020ef          	jal	800029b8 <printf>
800001d0:	02c00593          	li	a1,44
800001d4:	800037b7          	lui	a5,0x80003
800001d8:	34478513          	addi	a0,a5,836 # 80003344 <__modsi3+0x9c>
800001dc:	7dc020ef          	jal	800029b8 <printf>
800001e0:	800057b7          	lui	a5,0x80005
800001e4:	e3478593          	addi	a1,a5,-460 # 80004e34 <buf>
800001e8:	800037b7          	lui	a5,0x80003
800001ec:	2d878513          	addi	a0,a5,728 # 800032d8 <__modsi3+0x30>
800001f0:	7c8020ef          	jal	800029b8 <printf>
800001f4:	04800513          	li	a0,72
800001f8:	738020ef          	jal	80002930 <kputc>
800001fc:	06500513          	li	a0,101
80000200:	730020ef          	jal	80002930 <kputc>
80000204:	06c00513          	li	a0,108
80000208:	728020ef          	jal	80002930 <kputc>
8000020c:	06c00513          	li	a0,108
80000210:	720020ef          	jal	80002930 <kputc>
80000214:	06f00513          	li	a0,111
80000218:	718020ef          	jal	80002930 <kputc>
8000021c:	02100513          	li	a0,33
80000220:	710020ef          	jal	80002930 <kputc>
80000224:	00a00513          	li	a0,10
80000228:	708020ef          	jal	80002930 <kputc>
8000022c:	00800793          	li	a5,8
80000230:	fcf42e23          	sw	a5,-36(s0)
80000234:	fdc42583          	lw	a1,-36(s0)
80000238:	800037b7          	lui	a5,0x80003
8000023c:	35078513          	addi	a0,a5,848 # 80003350 <__modsi3+0xa8>
80000240:	778020ef          	jal	800029b8 <printf>
80000244:	00100793          	li	a5,1
80000248:	fef42423          	sw	a5,-24(s0)
8000024c:	0840006f          	j	800002d0 <main+0x20c>
80000250:	fe042223          	sw	zero,-28(s0)
80000254:	01c0006f          	j	80000270 <main+0x1ac>
80000258:	800037b7          	lui	a5,0x80003
8000025c:	37878513          	addi	a0,a5,888 # 80003378 <__modsi3+0xd0>
80000260:	758020ef          	jal	800029b8 <printf>
80000264:	fe442783          	lw	a5,-28(s0)
80000268:	00178793          	addi	a5,a5,1
8000026c:	fef42223          	sw	a5,-28(s0)
80000270:	fdc42703          	lw	a4,-36(s0)
80000274:	fe842783          	lw	a5,-24(s0)
80000278:	40f707b3          	sub	a5,a4,a5
8000027c:	fe442703          	lw	a4,-28(s0)
80000280:	fcf74ce3          	blt	a4,a5,80000258 <main+0x194>
80000284:	fe042023          	sw	zero,-32(s0)
80000288:	01c0006f          	j	800002a4 <main+0x1e0>
8000028c:	800037b7          	lui	a5,0x80003
80000290:	37c78513          	addi	a0,a5,892 # 8000337c <__modsi3+0xd4>
80000294:	724020ef          	jal	800029b8 <printf>
80000298:	fe042783          	lw	a5,-32(s0)
8000029c:	00178793          	addi	a5,a5,1
800002a0:	fef42023          	sw	a5,-32(s0)
800002a4:	fe842783          	lw	a5,-24(s0)
800002a8:	00179793          	slli	a5,a5,0x1
800002ac:	fff78793          	addi	a5,a5,-1
800002b0:	fe042703          	lw	a4,-32(s0)
800002b4:	fcf74ce3          	blt	a4,a5,8000028c <main+0x1c8>
800002b8:	800037b7          	lui	a5,0x80003
800002bc:	31078513          	addi	a0,a5,784 # 80003310 <__modsi3+0x68>
800002c0:	6f8020ef          	jal	800029b8 <printf>
800002c4:	fe842783          	lw	a5,-24(s0)
800002c8:	00178793          	addi	a5,a5,1
800002cc:	fef42423          	sw	a5,-24(s0)
800002d0:	fe842703          	lw	a4,-24(s0)
800002d4:	fdc42783          	lw	a5,-36(s0)
800002d8:	f6e7dce3          	bge	a5,a4,80000250 <main+0x18c>
800002dc:	800037b7          	lui	a5,0x80003
800002e0:	38078513          	addi	a0,a5,896 # 80003380 <__modsi3+0xd8>
800002e4:	6d4020ef          	jal	800029b8 <printf>
800002e8:	00000793          	li	a5,0
800002ec:	00078513          	mv	a0,a5
800002f0:	03c12083          	lw	ra,60(sp)
800002f4:	03812403          	lw	s0,56(sp)
800002f8:	04010113          	addi	sp,sp,64
800002fc:	00008067          	ret

80000300 <_fdoprnt>:
80000300:	f6010113          	addi	sp,sp,-160
80000304:	08112e23          	sw	ra,156(sp)
80000308:	08812c23          	sw	s0,152(sp)
8000030c:	0a010413          	addi	s0,sp,160
80000310:	f6a42623          	sw	a0,-148(s0)
80000314:	f6b42423          	sw	a1,-152(s0)
80000318:	f6c42223          	sw	a2,-156(s0)
8000031c:	f6d42023          	sw	a3,-160(s0)
80000320:	01c0006f          	j	8000033c <_fdoprnt+0x3c>
80000324:	fc842783          	lw	a5,-56(s0)
80000328:	5e078a63          	beqz	a5,8000091c <_fdoprnt+0x61c>
8000032c:	f6442783          	lw	a5,-156(s0)
80000330:	fc842583          	lw	a1,-56(s0)
80000334:	f6042503          	lw	a0,-160(s0)
80000338:	000780e7          	jalr	a5
8000033c:	f6c42783          	lw	a5,-148(s0)
80000340:	00178713          	addi	a4,a5,1
80000344:	f6e42623          	sw	a4,-148(s0)
80000348:	0007c783          	lbu	a5,0(a5)
8000034c:	fcf42423          	sw	a5,-56(s0)
80000350:	fc842703          	lw	a4,-56(s0)
80000354:	02500793          	li	a5,37
80000358:	fcf716e3          	bne	a4,a5,80000324 <_fdoprnt+0x24>
8000035c:	f6c42783          	lw	a5,-148(s0)
80000360:	0007c703          	lbu	a4,0(a5)
80000364:	02500793          	li	a5,37
80000368:	02f71663          	bne	a4,a5,80000394 <_fdoprnt+0x94>
8000036c:	f6c42783          	lw	a5,-148(s0)
80000370:	00178713          	addi	a4,a5,1
80000374:	f6e42623          	sw	a4,-148(s0)
80000378:	0007c783          	lbu	a5,0(a5)
8000037c:	00078713          	mv	a4,a5
80000380:	f6442783          	lw	a5,-156(s0)
80000384:	00070593          	mv	a1,a4
80000388:	f6042503          	lw	a0,-160(s0)
8000038c:	000780e7          	jalr	a5
80000390:	5880006f          	j	80000918 <_fdoprnt+0x618>
80000394:	f6c42783          	lw	a5,-148(s0)
80000398:	0007c783          	lbu	a5,0(a5)
8000039c:	fd378793          	addi	a5,a5,-45
800003a0:	0017b793          	seqz	a5,a5
800003a4:	0ff7f793          	zext.b	a5,a5
800003a8:	fcf42223          	sw	a5,-60(s0)
800003ac:	fc442783          	lw	a5,-60(s0)
800003b0:	00078863          	beqz	a5,800003c0 <_fdoprnt+0xc0>
800003b4:	f6c42783          	lw	a5,-148(s0)
800003b8:	00178793          	addi	a5,a5,1
800003bc:	f6f42623          	sw	a5,-148(s0)
800003c0:	f6c42783          	lw	a5,-148(s0)
800003c4:	0007c703          	lbu	a4,0(a5)
800003c8:	03000793          	li	a5,48
800003cc:	00f71c63          	bne	a4,a5,800003e4 <_fdoprnt+0xe4>
800003d0:	f6c42783          	lw	a5,-148(s0)
800003d4:	00178713          	addi	a4,a5,1
800003d8:	f6e42623          	sw	a4,-148(s0)
800003dc:	0007c783          	lbu	a5,0(a5)
800003e0:	0080006f          	j	800003e8 <_fdoprnt+0xe8>
800003e4:	02000793          	li	a5,32
800003e8:	fef401a3          	sb	a5,-29(s0)
800003ec:	fc042c23          	sw	zero,-40(s0)
800003f0:	f6c42783          	lw	a5,-148(s0)
800003f4:	0007c703          	lbu	a4,0(a5)
800003f8:	02a00793          	li	a5,42
800003fc:	04f71e63          	bne	a4,a5,80000458 <_fdoprnt+0x158>
80000400:	f6842783          	lw	a5,-152(s0)
80000404:	00478713          	addi	a4,a5,4
80000408:	f6e42423          	sw	a4,-152(s0)
8000040c:	0007a783          	lw	a5,0(a5)
80000410:	fcf42c23          	sw	a5,-40(s0)
80000414:	f6c42783          	lw	a5,-148(s0)
80000418:	00178793          	addi	a5,a5,1
8000041c:	f6f42623          	sw	a5,-148(s0)
80000420:	0580006f          	j	80000478 <_fdoprnt+0x178>
80000424:	fd842703          	lw	a4,-40(s0)
80000428:	00070793          	mv	a5,a4
8000042c:	00279793          	slli	a5,a5,0x2
80000430:	00e787b3          	add	a5,a5,a4
80000434:	00179793          	slli	a5,a5,0x1
80000438:	00078693          	mv	a3,a5
8000043c:	f6c42783          	lw	a5,-148(s0)
80000440:	00178713          	addi	a4,a5,1
80000444:	f6e42623          	sw	a4,-148(s0)
80000448:	0007c783          	lbu	a5,0(a5)
8000044c:	00f687b3          	add	a5,a3,a5
80000450:	fd078793          	addi	a5,a5,-48
80000454:	fcf42c23          	sw	a5,-40(s0)
80000458:	f6c42783          	lw	a5,-148(s0)
8000045c:	0007c703          	lbu	a4,0(a5)
80000460:	02f00793          	li	a5,47
80000464:	00e7fa63          	bgeu	a5,a4,80000478 <_fdoprnt+0x178>
80000468:	f6c42783          	lw	a5,-148(s0)
8000046c:	0007c703          	lbu	a4,0(a5)
80000470:	03900793          	li	a5,57
80000474:	fae7f8e3          	bgeu	a5,a4,80000424 <_fdoprnt+0x124>
80000478:	fc042e23          	sw	zero,-36(s0)
8000047c:	f6c42783          	lw	a5,-148(s0)
80000480:	0007c703          	lbu	a4,0(a5)
80000484:	02e00793          	li	a5,46
80000488:	08f71c63          	bne	a4,a5,80000520 <_fdoprnt+0x220>
8000048c:	f6c42783          	lw	a5,-148(s0)
80000490:	00178793          	addi	a5,a5,1
80000494:	f6f42623          	sw	a5,-148(s0)
80000498:	f6c42783          	lw	a5,-148(s0)
8000049c:	0007c703          	lbu	a4,0(a5)
800004a0:	02a00793          	li	a5,42
800004a4:	04f71e63          	bne	a4,a5,80000500 <_fdoprnt+0x200>
800004a8:	f6842783          	lw	a5,-152(s0)
800004ac:	00478713          	addi	a4,a5,4
800004b0:	f6e42423          	sw	a4,-152(s0)
800004b4:	0007a783          	lw	a5,0(a5)
800004b8:	fcf42e23          	sw	a5,-36(s0)
800004bc:	f6c42783          	lw	a5,-148(s0)
800004c0:	00178793          	addi	a5,a5,1
800004c4:	f6f42623          	sw	a5,-148(s0)
800004c8:	0580006f          	j	80000520 <_fdoprnt+0x220>
800004cc:	fdc42703          	lw	a4,-36(s0)
800004d0:	00070793          	mv	a5,a4
800004d4:	00279793          	slli	a5,a5,0x2
800004d8:	00e787b3          	add	a5,a5,a4
800004dc:	00179793          	slli	a5,a5,0x1
800004e0:	00078693          	mv	a3,a5
800004e4:	f6c42783          	lw	a5,-148(s0)
800004e8:	00178713          	addi	a4,a5,1
800004ec:	f6e42623          	sw	a4,-148(s0)
800004f0:	0007c783          	lbu	a5,0(a5)
800004f4:	00f687b3          	add	a5,a3,a5
800004f8:	fd078793          	addi	a5,a5,-48
800004fc:	fcf42e23          	sw	a5,-36(s0)
80000500:	f6c42783          	lw	a5,-148(s0)
80000504:	0007c703          	lbu	a4,0(a5)
80000508:	02f00793          	li	a5,47
8000050c:	00e7fa63          	bgeu	a5,a4,80000520 <_fdoprnt+0x220>
80000510:	f6c42783          	lw	a5,-148(s0)
80000514:	0007c703          	lbu	a4,0(a5)
80000518:	03900793          	li	a5,57
8000051c:	fae7f8e3          	bgeu	a5,a4,800004cc <_fdoprnt+0x1cc>
80000520:	f7040793          	addi	a5,s0,-144
80000524:	fef42423          	sw	a5,-24(s0)
80000528:	f6c42783          	lw	a5,-148(s0)
8000052c:	00178713          	addi	a4,a5,1
80000530:	f6e42623          	sw	a4,-148(s0)
80000534:	0007c783          	lbu	a5,0(a5)
80000538:	fcf42023          	sw	a5,-64(s0)
8000053c:	fc042783          	lw	a5,-64(s0)
80000540:	00079c63          	bnez	a5,80000558 <_fdoprnt+0x258>
80000544:	f6442783          	lw	a5,-156(s0)
80000548:	02500593          	li	a1,37
8000054c:	f6042503          	lw	a0,-160(s0)
80000550:	000780e7          	jalr	a5
80000554:	3cc0006f          	j	80000920 <_fdoprnt+0x620>
80000558:	fc0409a3          	sb	zero,-45(s0)
8000055c:	fc042783          	lw	a5,-64(s0)
80000560:	fa878793          	addi	a5,a5,-88
80000564:	02000713          	li	a4,32
80000568:	1cf76863          	bltu	a4,a5,80000738 <_fdoprnt+0x438>
8000056c:	00279713          	slli	a4,a5,0x2
80000570:	800037b7          	lui	a5,0x80003
80000574:	3a078793          	addi	a5,a5,928 # 800033a0 <__modsi3+0xf8>
80000578:	00f707b3          	add	a5,a4,a5
8000057c:	0007a783          	lw	a5,0(a5)
80000580:	00078067          	jr	a5
80000584:	f6842783          	lw	a5,-152(s0)
80000588:	00478713          	addi	a4,a5,4
8000058c:	f6e42423          	sw	a4,-152(s0)
80000590:	0007a783          	lw	a5,0(a5)
80000594:	0ff7f793          	zext.b	a5,a5
80000598:	f6f40823          	sb	a5,-144(s0)
8000059c:	f60408a3          	sb	zero,-143(s0)
800005a0:	fc042e23          	sw	zero,-36(s0)
800005a4:	02000793          	li	a5,32
800005a8:	fef401a3          	sb	a5,-29(s0)
800005ac:	1a00006f          	j	8000074c <_fdoprnt+0x44c>
800005b0:	f6842783          	lw	a5,-152(s0)
800005b4:	00478713          	addi	a4,a5,4
800005b8:	f6e42423          	sw	a4,-152(s0)
800005bc:	0007a783          	lw	a5,0(a5)
800005c0:	fef42423          	sw	a5,-24(s0)
800005c4:	fe842783          	lw	a5,-24(s0)
800005c8:	00079863          	bnez	a5,800005d8 <_fdoprnt+0x2d8>
800005cc:	800037b7          	lui	a5,0x80003
800005d0:	39878793          	addi	a5,a5,920 # 80003398 <__modsi3+0xf0>
800005d4:	fef42423          	sw	a5,-24(s0)
800005d8:	02000793          	li	a5,32
800005dc:	fef401a3          	sb	a5,-29(s0)
800005e0:	16c0006f          	j	8000074c <_fdoprnt+0x44c>
800005e4:	f6842783          	lw	a5,-152(s0)
800005e8:	00478713          	addi	a4,a5,4
800005ec:	f6e42423          	sw	a4,-152(s0)
800005f0:	0007a783          	lw	a5,0(a5)
800005f4:	fcf42623          	sw	a5,-52(s0)
800005f8:	fcc42783          	lw	a5,-52(s0)
800005fc:	0007dc63          	bgez	a5,80000614 <_fdoprnt+0x314>
80000600:	02d00793          	li	a5,45
80000604:	fcf409a3          	sb	a5,-45(s0)
80000608:	fcc42783          	lw	a5,-52(s0)
8000060c:	40f007b3          	neg	a5,a5
80000610:	fcf42623          	sw	a5,-52(s0)
80000614:	fe842583          	lw	a1,-24(s0)
80000618:	fcc42503          	lw	a0,-52(s0)
8000061c:	1b5000ef          	jal	80000fd0 <_prtl10>
80000620:	12c0006f          	j	8000074c <_fdoprnt+0x44c>
80000624:	fc040923          	sb	zero,-46(s0)
80000628:	f6842783          	lw	a5,-152(s0)
8000062c:	00478713          	addi	a4,a5,4
80000630:	f6e42423          	sw	a4,-152(s0)
80000634:	0007a783          	lw	a5,0(a5)
80000638:	fcf42623          	sw	a5,-52(s0)
8000063c:	0240006f          	j	80000660 <_fdoprnt+0x360>
80000640:	fcc42703          	lw	a4,-52(s0)
80000644:	c46537b7          	lui	a5,0xc4653
80000648:	60078793          	addi	a5,a5,1536 # c4653600 <_ebss+0x4464e7ac>
8000064c:	00f707b3          	add	a5,a4,a5
80000650:	fcf42623          	sw	a5,-52(s0)
80000654:	fd244783          	lbu	a5,-46(s0)
80000658:	00178793          	addi	a5,a5,1
8000065c:	fcf40923          	sb	a5,-46(s0)
80000660:	fcc42783          	lw	a5,-52(s0)
80000664:	fc07cee3          	bltz	a5,80000640 <_fdoprnt+0x340>
80000668:	fe842583          	lw	a1,-24(s0)
8000066c:	fcc42503          	lw	a0,-52(s0)
80000670:	161000ef          	jal	80000fd0 <_prtl10>
80000674:	fe842783          	lw	a5,-24(s0)
80000678:	0007c783          	lbu	a5,0(a5)
8000067c:	fd244703          	lbu	a4,-46(s0)
80000680:	00e787b3          	add	a5,a5,a4
80000684:	0ff7f713          	zext.b	a4,a5
80000688:	fe842783          	lw	a5,-24(s0)
8000068c:	00e78023          	sb	a4,0(a5)
80000690:	fc042e23          	sw	zero,-36(s0)
80000694:	0b80006f          	j	8000074c <_fdoprnt+0x44c>
80000698:	f6842783          	lw	a5,-152(s0)
8000069c:	00478713          	addi	a4,a5,4
800006a0:	f6e42423          	sw	a4,-152(s0)
800006a4:	0007a783          	lw	a5,0(a5)
800006a8:	fcf42623          	sw	a5,-52(s0)
800006ac:	fe842583          	lw	a1,-24(s0)
800006b0:	fcc42503          	lw	a0,-52(s0)
800006b4:	2b1000ef          	jal	80001164 <_prtl8>
800006b8:	fc042e23          	sw	zero,-36(s0)
800006bc:	0900006f          	j	8000074c <_fdoprnt+0x44c>
800006c0:	f6842783          	lw	a5,-152(s0)
800006c4:	00478713          	addi	a4,a5,4
800006c8:	f6e42423          	sw	a4,-152(s0)
800006cc:	0007a783          	lw	a5,0(a5)
800006d0:	fcf42623          	sw	a5,-52(s0)
800006d4:	fe842583          	lw	a1,-24(s0)
800006d8:	fcc42503          	lw	a0,-52(s0)
800006dc:	4a1000ef          	jal	8000137c <_prtX16>
800006e0:	fc042e23          	sw	zero,-36(s0)
800006e4:	0680006f          	j	8000074c <_fdoprnt+0x44c>
800006e8:	f6842783          	lw	a5,-152(s0)
800006ec:	00478713          	addi	a4,a5,4
800006f0:	f6e42423          	sw	a4,-152(s0)
800006f4:	0007a783          	lw	a5,0(a5)
800006f8:	fcf42623          	sw	a5,-52(s0)
800006fc:	fe842583          	lw	a1,-24(s0)
80000700:	fcc42503          	lw	a0,-52(s0)
80000704:	375000ef          	jal	80001278 <_prtl16>
80000708:	fc042e23          	sw	zero,-36(s0)
8000070c:	0400006f          	j	8000074c <_fdoprnt+0x44c>
80000710:	f6842783          	lw	a5,-152(s0)
80000714:	00478713          	addi	a4,a5,4
80000718:	f6e42423          	sw	a4,-152(s0)
8000071c:	0007a783          	lw	a5,0(a5)
80000720:	fcf42623          	sw	a5,-52(s0)
80000724:	fe842583          	lw	a1,-24(s0)
80000728:	fcc42503          	lw	a0,-52(s0)
8000072c:	555000ef          	jal	80001480 <_prtl2>
80000730:	fc042e23          	sw	zero,-36(s0)
80000734:	0180006f          	j	8000074c <_fdoprnt+0x44c>
80000738:	f6442783          	lw	a5,-156(s0)
8000073c:	fc042583          	lw	a1,-64(s0)
80000740:	f6042503          	lw	a0,-160(s0)
80000744:	000780e7          	jalr	a5
80000748:	00000013          	nop
8000074c:	fe042223          	sw	zero,-28(s0)
80000750:	0100006f          	j	80000760 <_fdoprnt+0x460>
80000754:	fe442783          	lw	a5,-28(s0)
80000758:	00178793          	addi	a5,a5,1
8000075c:	fef42223          	sw	a5,-28(s0)
80000760:	fe442783          	lw	a5,-28(s0)
80000764:	fe842703          	lw	a4,-24(s0)
80000768:	00f707b3          	add	a5,a4,a5
8000076c:	0007c783          	lbu	a5,0(a5)
80000770:	fe0792e3          	bnez	a5,80000754 <_fdoprnt+0x454>
80000774:	fd842703          	lw	a4,-40(s0)
80000778:	05000793          	li	a5,80
8000077c:	00e7c663          	blt	a5,a4,80000788 <_fdoprnt+0x488>
80000780:	fd842783          	lw	a5,-40(s0)
80000784:	0007d463          	bgez	a5,8000078c <_fdoprnt+0x48c>
80000788:	fc042c23          	sw	zero,-40(s0)
8000078c:	fdc42703          	lw	a4,-36(s0)
80000790:	05000793          	li	a5,80
80000794:	00e7c663          	blt	a5,a4,800007a0 <_fdoprnt+0x4a0>
80000798:	fdc42783          	lw	a5,-36(s0)
8000079c:	0007d463          	bgez	a5,800007a4 <_fdoprnt+0x4a4>
800007a0:	fc042e23          	sw	zero,-36(s0)
800007a4:	fc042a23          	sw	zero,-44(s0)
800007a8:	fdc42783          	lw	a5,-36(s0)
800007ac:	00079663          	bnez	a5,800007b8 <_fdoprnt+0x4b8>
800007b0:	fd842783          	lw	a5,-40(s0)
800007b4:	04078863          	beqz	a5,80000804 <_fdoprnt+0x504>
800007b8:	fdc42783          	lw	a5,-36(s0)
800007bc:	00078c63          	beqz	a5,800007d4 <_fdoprnt+0x4d4>
800007c0:	fe442703          	lw	a4,-28(s0)
800007c4:	fdc42783          	lw	a5,-36(s0)
800007c8:	00e7d663          	bge	a5,a4,800007d4 <_fdoprnt+0x4d4>
800007cc:	fdc42783          	lw	a5,-36(s0)
800007d0:	fef42223          	sw	a5,-28(s0)
800007d4:	fd842783          	lw	a5,-40(s0)
800007d8:	00078a63          	beqz	a5,800007ec <_fdoprnt+0x4ec>
800007dc:	fd842703          	lw	a4,-40(s0)
800007e0:	fe442783          	lw	a5,-28(s0)
800007e4:	40f707b3          	sub	a5,a4,a5
800007e8:	fcf42a23          	sw	a5,-44(s0)
800007ec:	fd344703          	lbu	a4,-45(s0)
800007f0:	02d00793          	li	a5,45
800007f4:	00f71863          	bne	a4,a5,80000804 <_fdoprnt+0x504>
800007f8:	fd442783          	lw	a5,-44(s0)
800007fc:	fff78793          	addi	a5,a5,-1
80000800:	fcf42a23          	sw	a5,-44(s0)
80000804:	fd344703          	lbu	a4,-45(s0)
80000808:	02d00793          	li	a5,45
8000080c:	02f71263          	bne	a4,a5,80000830 <_fdoprnt+0x530>
80000810:	fe344703          	lbu	a4,-29(s0)
80000814:	03000793          	li	a5,48
80000818:	00f71c63          	bne	a4,a5,80000830 <_fdoprnt+0x530>
8000081c:	fd344703          	lbu	a4,-45(s0)
80000820:	f6442783          	lw	a5,-156(s0)
80000824:	00070593          	mv	a1,a4
80000828:	f6042503          	lw	a0,-160(s0)
8000082c:	000780e7          	jalr	a5
80000830:	fc442783          	lw	a5,-60(s0)
80000834:	02079c63          	bnez	a5,8000086c <_fdoprnt+0x56c>
80000838:	fe042623          	sw	zero,-20(s0)
8000083c:	0240006f          	j	80000860 <_fdoprnt+0x560>
80000840:	fe344703          	lbu	a4,-29(s0)
80000844:	f6442783          	lw	a5,-156(s0)
80000848:	00070593          	mv	a1,a4
8000084c:	f6042503          	lw	a0,-160(s0)
80000850:	000780e7          	jalr	a5
80000854:	fec42783          	lw	a5,-20(s0)
80000858:	00178793          	addi	a5,a5,1
8000085c:	fef42623          	sw	a5,-20(s0)
80000860:	fec42703          	lw	a4,-20(s0)
80000864:	fd442783          	lw	a5,-44(s0)
80000868:	fcf74ce3          	blt	a4,a5,80000840 <_fdoprnt+0x540>
8000086c:	fd344703          	lbu	a4,-45(s0)
80000870:	02d00793          	li	a5,45
80000874:	02f71263          	bne	a4,a5,80000898 <_fdoprnt+0x598>
80000878:	fe344703          	lbu	a4,-29(s0)
8000087c:	02000793          	li	a5,32
80000880:	00f71c63          	bne	a4,a5,80000898 <_fdoprnt+0x598>
80000884:	fd344703          	lbu	a4,-45(s0)
80000888:	f6442783          	lw	a5,-156(s0)
8000088c:	00070593          	mv	a1,a4
80000890:	f6042503          	lw	a0,-160(s0)
80000894:	000780e7          	jalr	a5
80000898:	fe042623          	sw	zero,-20(s0)
8000089c:	0340006f          	j	800008d0 <_fdoprnt+0x5d0>
800008a0:	fec42783          	lw	a5,-20(s0)
800008a4:	fe842703          	lw	a4,-24(s0)
800008a8:	00f707b3          	add	a5,a4,a5
800008ac:	0007c783          	lbu	a5,0(a5)
800008b0:	00078713          	mv	a4,a5
800008b4:	f6442783          	lw	a5,-156(s0)
800008b8:	00070593          	mv	a1,a4
800008bc:	f6042503          	lw	a0,-160(s0)
800008c0:	000780e7          	jalr	a5
800008c4:	fec42783          	lw	a5,-20(s0)
800008c8:	00178793          	addi	a5,a5,1
800008cc:	fef42623          	sw	a5,-20(s0)
800008d0:	fec42703          	lw	a4,-20(s0)
800008d4:	fe442783          	lw	a5,-28(s0)
800008d8:	fcf744e3          	blt	a4,a5,800008a0 <_fdoprnt+0x5a0>
800008dc:	fc442783          	lw	a5,-60(s0)
800008e0:	a4078ee3          	beqz	a5,8000033c <_fdoprnt+0x3c>
800008e4:	fe042623          	sw	zero,-20(s0)
800008e8:	0240006f          	j	8000090c <_fdoprnt+0x60c>
800008ec:	fe344703          	lbu	a4,-29(s0)
800008f0:	f6442783          	lw	a5,-156(s0)
800008f4:	00070593          	mv	a1,a4
800008f8:	f6042503          	lw	a0,-160(s0)
800008fc:	000780e7          	jalr	a5
80000900:	fec42783          	lw	a5,-20(s0)
80000904:	00178793          	addi	a5,a5,1
80000908:	fef42623          	sw	a5,-20(s0)
8000090c:	fec42703          	lw	a4,-20(s0)
80000910:	fd442783          	lw	a5,-44(s0)
80000914:	fcf74ce3          	blt	a4,a5,800008ec <_fdoprnt+0x5ec>
80000918:	a25ff06f          	j	8000033c <_fdoprnt+0x3c>
8000091c:	00000013          	nop
80000920:	09c12083          	lw	ra,156(sp)
80000924:	09812403          	lw	s0,152(sp)
80000928:	0a010113          	addi	sp,sp,160
8000092c:	00008067          	ret

80000930 <_doprnt>:
80000930:	f8010113          	addi	sp,sp,-128
80000934:	06112e23          	sw	ra,124(sp)
80000938:	06812c23          	sw	s0,120(sp)
8000093c:	08010413          	addi	s0,sp,128
80000940:	f8a42623          	sw	a0,-116(s0)
80000944:	f8b42423          	sw	a1,-120(s0)
80000948:	f8c42223          	sw	a2,-124(s0)
8000094c:	0180006f          	j	80000964 <_doprnt+0x34>
80000950:	fc842783          	lw	a5,-56(s0)
80000954:	66078463          	beqz	a5,80000fbc <_doprnt+0x68c>
80000958:	f8442783          	lw	a5,-124(s0)
8000095c:	fc842503          	lw	a0,-56(s0)
80000960:	000780e7          	jalr	a5
80000964:	f8c42783          	lw	a5,-116(s0)
80000968:	00178713          	addi	a4,a5,1
8000096c:	f8e42623          	sw	a4,-116(s0)
80000970:	0007c783          	lbu	a5,0(a5)
80000974:	fcf42423          	sw	a5,-56(s0)
80000978:	fc842703          	lw	a4,-56(s0)
8000097c:	02500793          	li	a5,37
80000980:	fcf718e3          	bne	a4,a5,80000950 <_doprnt+0x20>
80000984:	f8c42783          	lw	a5,-116(s0)
80000988:	0007c703          	lbu	a4,0(a5)
8000098c:	02500793          	li	a5,37
80000990:	02f71463          	bne	a4,a5,800009b8 <_doprnt+0x88>
80000994:	f8c42783          	lw	a5,-116(s0)
80000998:	00178713          	addi	a4,a5,1
8000099c:	f8e42623          	sw	a4,-116(s0)
800009a0:	0007c783          	lbu	a5,0(a5)
800009a4:	00078713          	mv	a4,a5
800009a8:	f8442783          	lw	a5,-124(s0)
800009ac:	00070513          	mv	a0,a4
800009b0:	000780e7          	jalr	a5
800009b4:	6040006f          	j	80000fb8 <_doprnt+0x688>
800009b8:	f8c42783          	lw	a5,-116(s0)
800009bc:	0007c783          	lbu	a5,0(a5)
800009c0:	fd378793          	addi	a5,a5,-45
800009c4:	0017b793          	seqz	a5,a5
800009c8:	0ff7f793          	zext.b	a5,a5
800009cc:	fcf42223          	sw	a5,-60(s0)
800009d0:	fc442783          	lw	a5,-60(s0)
800009d4:	00078863          	beqz	a5,800009e4 <_doprnt+0xb4>
800009d8:	f8c42783          	lw	a5,-116(s0)
800009dc:	00178793          	addi	a5,a5,1
800009e0:	f8f42623          	sw	a5,-116(s0)
800009e4:	f8c42783          	lw	a5,-116(s0)
800009e8:	0007c703          	lbu	a4,0(a5)
800009ec:	03000793          	li	a5,48
800009f0:	00f71c63          	bne	a4,a5,80000a08 <_doprnt+0xd8>
800009f4:	f8c42783          	lw	a5,-116(s0)
800009f8:	00178713          	addi	a4,a5,1
800009fc:	f8e42623          	sw	a4,-116(s0)
80000a00:	0007c783          	lbu	a5,0(a5)
80000a04:	0080006f          	j	80000a0c <_doprnt+0xdc>
80000a08:	02000793          	li	a5,32
80000a0c:	fef401a3          	sb	a5,-29(s0)
80000a10:	fc042c23          	sw	zero,-40(s0)
80000a14:	f8c42783          	lw	a5,-116(s0)
80000a18:	0007c703          	lbu	a4,0(a5)
80000a1c:	02a00793          	li	a5,42
80000a20:	04f71e63          	bne	a4,a5,80000a7c <_doprnt+0x14c>
80000a24:	f8842783          	lw	a5,-120(s0)
80000a28:	00478713          	addi	a4,a5,4
80000a2c:	f8e42423          	sw	a4,-120(s0)
80000a30:	0007a783          	lw	a5,0(a5)
80000a34:	fcf42c23          	sw	a5,-40(s0)
80000a38:	f8c42783          	lw	a5,-116(s0)
80000a3c:	00178793          	addi	a5,a5,1
80000a40:	f8f42623          	sw	a5,-116(s0)
80000a44:	0580006f          	j	80000a9c <_doprnt+0x16c>
80000a48:	fd842703          	lw	a4,-40(s0)
80000a4c:	00070793          	mv	a5,a4
80000a50:	00279793          	slli	a5,a5,0x2
80000a54:	00e787b3          	add	a5,a5,a4
80000a58:	00179793          	slli	a5,a5,0x1
80000a5c:	00078693          	mv	a3,a5
80000a60:	f8c42783          	lw	a5,-116(s0)
80000a64:	00178713          	addi	a4,a5,1
80000a68:	f8e42623          	sw	a4,-116(s0)
80000a6c:	0007c783          	lbu	a5,0(a5)
80000a70:	00f687b3          	add	a5,a3,a5
80000a74:	fd078793          	addi	a5,a5,-48
80000a78:	fcf42c23          	sw	a5,-40(s0)
80000a7c:	f8c42783          	lw	a5,-116(s0)
80000a80:	0007c703          	lbu	a4,0(a5)
80000a84:	02f00793          	li	a5,47
80000a88:	00e7fa63          	bgeu	a5,a4,80000a9c <_doprnt+0x16c>
80000a8c:	f8c42783          	lw	a5,-116(s0)
80000a90:	0007c703          	lbu	a4,0(a5)
80000a94:	03900793          	li	a5,57
80000a98:	fae7f8e3          	bgeu	a5,a4,80000a48 <_doprnt+0x118>
80000a9c:	fc042e23          	sw	zero,-36(s0)
80000aa0:	f8c42783          	lw	a5,-116(s0)
80000aa4:	0007c703          	lbu	a4,0(a5)
80000aa8:	02e00793          	li	a5,46
80000aac:	08f71c63          	bne	a4,a5,80000b44 <_doprnt+0x214>
80000ab0:	f8c42783          	lw	a5,-116(s0)
80000ab4:	00178793          	addi	a5,a5,1
80000ab8:	f8f42623          	sw	a5,-116(s0)
80000abc:	f8c42783          	lw	a5,-116(s0)
80000ac0:	0007c703          	lbu	a4,0(a5)
80000ac4:	02a00793          	li	a5,42
80000ac8:	04f71e63          	bne	a4,a5,80000b24 <_doprnt+0x1f4>
80000acc:	f8842783          	lw	a5,-120(s0)
80000ad0:	00478713          	addi	a4,a5,4
80000ad4:	f8e42423          	sw	a4,-120(s0)
80000ad8:	0007a783          	lw	a5,0(a5)
80000adc:	fcf42e23          	sw	a5,-36(s0)
80000ae0:	f8c42783          	lw	a5,-116(s0)
80000ae4:	00178793          	addi	a5,a5,1
80000ae8:	f8f42623          	sw	a5,-116(s0)
80000aec:	0580006f          	j	80000b44 <_doprnt+0x214>
80000af0:	fdc42703          	lw	a4,-36(s0)
80000af4:	00070793          	mv	a5,a4
80000af8:	00279793          	slli	a5,a5,0x2
80000afc:	00e787b3          	add	a5,a5,a4
80000b00:	00179793          	slli	a5,a5,0x1
80000b04:	00078693          	mv	a3,a5
80000b08:	f8c42783          	lw	a5,-116(s0)
80000b0c:	00178713          	addi	a4,a5,1
80000b10:	f8e42623          	sw	a4,-116(s0)
80000b14:	0007c783          	lbu	a5,0(a5)
80000b18:	00f687b3          	add	a5,a3,a5
80000b1c:	fd078793          	addi	a5,a5,-48
80000b20:	fcf42e23          	sw	a5,-36(s0)
80000b24:	f8c42783          	lw	a5,-116(s0)
80000b28:	0007c703          	lbu	a4,0(a5)
80000b2c:	02f00793          	li	a5,47
80000b30:	00e7fa63          	bgeu	a5,a4,80000b44 <_doprnt+0x214>
80000b34:	f8c42783          	lw	a5,-116(s0)
80000b38:	0007c703          	lbu	a4,0(a5)
80000b3c:	03900793          	li	a5,57
80000b40:	fae7f8e3          	bgeu	a5,a4,80000af0 <_doprnt+0x1c0>
80000b44:	f9840793          	addi	a5,s0,-104
80000b48:	fef42423          	sw	a5,-24(s0)
80000b4c:	f8c42783          	lw	a5,-116(s0)
80000b50:	00178713          	addi	a4,a5,1
80000b54:	f8e42623          	sw	a4,-116(s0)
80000b58:	0007c783          	lbu	a5,0(a5)
80000b5c:	fcf42023          	sw	a5,-64(s0)
80000b60:	fc042783          	lw	a5,-64(s0)
80000b64:	00079a63          	bnez	a5,80000b78 <_doprnt+0x248>
80000b68:	f8442783          	lw	a5,-124(s0)
80000b6c:	02500513          	li	a0,37
80000b70:	000780e7          	jalr	a5
80000b74:	44c0006f          	j	80000fc0 <_doprnt+0x690>
80000b78:	fc0409a3          	sb	zero,-45(s0)
80000b7c:	fc042783          	lw	a5,-64(s0)
80000b80:	fb878793          	addi	a5,a5,-72
80000b84:	03000713          	li	a4,48
80000b88:	26f76263          	bltu	a4,a5,80000dec <_doprnt+0x4bc>
80000b8c:	00279713          	slli	a4,a5,0x2
80000b90:	800037b7          	lui	a5,0x80003
80000b94:	42478793          	addi	a5,a5,1060 # 80003424 <__modsi3+0x17c>
80000b98:	00f707b3          	add	a5,a4,a5
80000b9c:	0007a783          	lw	a5,0(a5)
80000ba0:	00078067          	jr	a5
80000ba4:	f8842783          	lw	a5,-120(s0)
80000ba8:	00478713          	addi	a4,a5,4
80000bac:	f8e42423          	sw	a4,-120(s0)
80000bb0:	0007a783          	lw	a5,0(a5)
80000bb4:	0ff7f793          	zext.b	a5,a5
80000bb8:	f8f40c23          	sb	a5,-104(s0)
80000bbc:	f8040ca3          	sb	zero,-103(s0)
80000bc0:	fc042e23          	sw	zero,-36(s0)
80000bc4:	02000793          	li	a5,32
80000bc8:	fef401a3          	sb	a5,-29(s0)
80000bcc:	2340006f          	j	80000e00 <_doprnt+0x4d0>
80000bd0:	f8842783          	lw	a5,-120(s0)
80000bd4:	00478713          	addi	a4,a5,4
80000bd8:	f8e42423          	sw	a4,-120(s0)
80000bdc:	0007a783          	lw	a5,0(a5)
80000be0:	fef42423          	sw	a5,-24(s0)
80000be4:	fe842783          	lw	a5,-24(s0)
80000be8:	00079863          	bnez	a5,80000bf8 <_doprnt+0x2c8>
80000bec:	800037b7          	lui	a5,0x80003
80000bf0:	39878793          	addi	a5,a5,920 # 80003398 <__modsi3+0xf0>
80000bf4:	fef42423          	sw	a5,-24(s0)
80000bf8:	02000793          	li	a5,32
80000bfc:	fef401a3          	sb	a5,-29(s0)
80000c00:	2000006f          	j	80000e00 <_doprnt+0x4d0>
80000c04:	f8842783          	lw	a5,-120(s0)
80000c08:	00478713          	addi	a4,a5,4
80000c0c:	f8e42423          	sw	a4,-120(s0)
80000c10:	0007a783          	lw	a5,0(a5)
80000c14:	fcf42623          	sw	a5,-52(s0)
80000c18:	fcc42783          	lw	a5,-52(s0)
80000c1c:	0007d663          	bgez	a5,80000c28 <_doprnt+0x2f8>
80000c20:	02d00793          	li	a5,45
80000c24:	fcf409a3          	sb	a5,-45(s0)
80000c28:	fe842583          	lw	a1,-24(s0)
80000c2c:	fcc42503          	lw	a0,-52(s0)
80000c30:	3a0000ef          	jal	80000fd0 <_prtl10>
80000c34:	1cc0006f          	j	80000e00 <_doprnt+0x4d0>
80000c38:	fc040923          	sb	zero,-46(s0)
80000c3c:	f8842783          	lw	a5,-120(s0)
80000c40:	00478713          	addi	a4,a5,4
80000c44:	f8e42423          	sw	a4,-120(s0)
80000c48:	0007a783          	lw	a5,0(a5)
80000c4c:	fcf42623          	sw	a5,-52(s0)
80000c50:	0240006f          	j	80000c74 <_doprnt+0x344>
80000c54:	fcc42703          	lw	a4,-52(s0)
80000c58:	c46537b7          	lui	a5,0xc4653
80000c5c:	60078793          	addi	a5,a5,1536 # c4653600 <_ebss+0x4464e7ac>
80000c60:	00f707b3          	add	a5,a4,a5
80000c64:	fcf42623          	sw	a5,-52(s0)
80000c68:	fd244783          	lbu	a5,-46(s0)
80000c6c:	00178793          	addi	a5,a5,1
80000c70:	fcf40923          	sb	a5,-46(s0)
80000c74:	fcc42783          	lw	a5,-52(s0)
80000c78:	fc07cee3          	bltz	a5,80000c54 <_doprnt+0x324>
80000c7c:	fe842583          	lw	a1,-24(s0)
80000c80:	fcc42503          	lw	a0,-52(s0)
80000c84:	34c000ef          	jal	80000fd0 <_prtl10>
80000c88:	fe842783          	lw	a5,-24(s0)
80000c8c:	0007c783          	lbu	a5,0(a5)
80000c90:	fd244703          	lbu	a4,-46(s0)
80000c94:	00e787b3          	add	a5,a5,a4
80000c98:	0ff7f713          	zext.b	a4,a5
80000c9c:	fe842783          	lw	a5,-24(s0)
80000ca0:	00e78023          	sb	a4,0(a5)
80000ca4:	fc042e23          	sw	zero,-36(s0)
80000ca8:	1580006f          	j	80000e00 <_doprnt+0x4d0>
80000cac:	f8842783          	lw	a5,-120(s0)
80000cb0:	00478713          	addi	a4,a5,4
80000cb4:	f8e42423          	sw	a4,-120(s0)
80000cb8:	0007a783          	lw	a5,0(a5)
80000cbc:	fcf42623          	sw	a5,-52(s0)
80000cc0:	fe842583          	lw	a1,-24(s0)
80000cc4:	fcc42503          	lw	a0,-52(s0)
80000cc8:	49c000ef          	jal	80001164 <_prtl8>
80000ccc:	fc042e23          	sw	zero,-36(s0)
80000cd0:	1300006f          	j	80000e00 <_doprnt+0x4d0>
80000cd4:	f8842783          	lw	a5,-120(s0)
80000cd8:	00478713          	addi	a4,a5,4
80000cdc:	f8e42423          	sw	a4,-120(s0)
80000ce0:	0007a783          	lw	a5,0(a5)
80000ce4:	fcf42623          	sw	a5,-52(s0)
80000ce8:	fe842583          	lw	a1,-24(s0)
80000cec:	fcc42503          	lw	a0,-52(s0)
80000cf0:	68c000ef          	jal	8000137c <_prtX16>
80000cf4:	fc042e23          	sw	zero,-36(s0)
80000cf8:	1080006f          	j	80000e00 <_doprnt+0x4d0>
80000cfc:	f8842783          	lw	a5,-120(s0)
80000d00:	00478713          	addi	a4,a5,4
80000d04:	f8e42423          	sw	a4,-120(s0)
80000d08:	0007a783          	lw	a5,0(a5)
80000d0c:	fcf42623          	sw	a5,-52(s0)
80000d10:	fe842583          	lw	a1,-24(s0)
80000d14:	fcc42503          	lw	a0,-52(s0)
80000d18:	560000ef          	jal	80001278 <_prtl16>
80000d1c:	fc042e23          	sw	zero,-36(s0)
80000d20:	0e00006f          	j	80000e00 <_doprnt+0x4d0>
80000d24:	f8842783          	lw	a5,-120(s0)
80000d28:	00478713          	addi	a4,a5,4
80000d2c:	f8e42423          	sw	a4,-120(s0)
80000d30:	0007a783          	lw	a5,0(a5)
80000d34:	fcf42623          	sw	a5,-52(s0)
80000d38:	fe842583          	lw	a1,-24(s0)
80000d3c:	fcc42503          	lw	a0,-52(s0)
80000d40:	63c000ef          	jal	8000137c <_prtX16>
80000d44:	f8842783          	lw	a5,-120(s0)
80000d48:	00478713          	addi	a4,a5,4
80000d4c:	f8e42423          	sw	a4,-120(s0)
80000d50:	0007a783          	lw	a5,0(a5)
80000d54:	fcf42623          	sw	a5,-52(s0)
80000d58:	fe842783          	lw	a5,-24(s0)
80000d5c:	00878793          	addi	a5,a5,8
80000d60:	00078593          	mv	a1,a5
80000d64:	fcc42503          	lw	a0,-52(s0)
80000d68:	614000ef          	jal	8000137c <_prtX16>
80000d6c:	fc042e23          	sw	zero,-36(s0)
80000d70:	0900006f          	j	80000e00 <_doprnt+0x4d0>
80000d74:	f8842783          	lw	a5,-120(s0)
80000d78:	00478713          	addi	a4,a5,4
80000d7c:	f8e42423          	sw	a4,-120(s0)
80000d80:	0007a783          	lw	a5,0(a5)
80000d84:	fcf42623          	sw	a5,-52(s0)
80000d88:	fe842583          	lw	a1,-24(s0)
80000d8c:	fcc42503          	lw	a0,-52(s0)
80000d90:	4e8000ef          	jal	80001278 <_prtl16>
80000d94:	f8842783          	lw	a5,-120(s0)
80000d98:	00478713          	addi	a4,a5,4
80000d9c:	f8e42423          	sw	a4,-120(s0)
80000da0:	0007a783          	lw	a5,0(a5)
80000da4:	fcf42623          	sw	a5,-52(s0)
80000da8:	fe842783          	lw	a5,-24(s0)
80000dac:	00878793          	addi	a5,a5,8
80000db0:	00078593          	mv	a1,a5
80000db4:	fcc42503          	lw	a0,-52(s0)
80000db8:	4c0000ef          	jal	80001278 <_prtl16>
80000dbc:	fc042e23          	sw	zero,-36(s0)
80000dc0:	0400006f          	j	80000e00 <_doprnt+0x4d0>
80000dc4:	f8842783          	lw	a5,-120(s0)
80000dc8:	00478713          	addi	a4,a5,4
80000dcc:	f8e42423          	sw	a4,-120(s0)
80000dd0:	0007a783          	lw	a5,0(a5)
80000dd4:	fcf42623          	sw	a5,-52(s0)
80000dd8:	fe842583          	lw	a1,-24(s0)
80000ddc:	fcc42503          	lw	a0,-52(s0)
80000de0:	6a0000ef          	jal	80001480 <_prtl2>
80000de4:	fc042e23          	sw	zero,-36(s0)
80000de8:	0180006f          	j	80000e00 <_doprnt+0x4d0>
80000dec:	f8442783          	lw	a5,-124(s0)
80000df0:	fc042503          	lw	a0,-64(s0)
80000df4:	000780e7          	jalr	a5
80000df8:	0080006f          	j	80000e00 <_doprnt+0x4d0>
80000dfc:	00000013          	nop
80000e00:	fe042223          	sw	zero,-28(s0)
80000e04:	0100006f          	j	80000e14 <_doprnt+0x4e4>
80000e08:	fe442783          	lw	a5,-28(s0)
80000e0c:	00178793          	addi	a5,a5,1
80000e10:	fef42223          	sw	a5,-28(s0)
80000e14:	fe442783          	lw	a5,-28(s0)
80000e18:	fe842703          	lw	a4,-24(s0)
80000e1c:	00f707b3          	add	a5,a4,a5
80000e20:	0007c783          	lbu	a5,0(a5)
80000e24:	fe0792e3          	bnez	a5,80000e08 <_doprnt+0x4d8>
80000e28:	fd842703          	lw	a4,-40(s0)
80000e2c:	05000793          	li	a5,80
80000e30:	00e7c663          	blt	a5,a4,80000e3c <_doprnt+0x50c>
80000e34:	fd842783          	lw	a5,-40(s0)
80000e38:	0007d463          	bgez	a5,80000e40 <_doprnt+0x510>
80000e3c:	fc042c23          	sw	zero,-40(s0)
80000e40:	fdc42703          	lw	a4,-36(s0)
80000e44:	05000793          	li	a5,80
80000e48:	00e7c663          	blt	a5,a4,80000e54 <_doprnt+0x524>
80000e4c:	fdc42783          	lw	a5,-36(s0)
80000e50:	0007d463          	bgez	a5,80000e58 <_doprnt+0x528>
80000e54:	fc042e23          	sw	zero,-36(s0)
80000e58:	fc042a23          	sw	zero,-44(s0)
80000e5c:	fdc42783          	lw	a5,-36(s0)
80000e60:	00079663          	bnez	a5,80000e6c <_doprnt+0x53c>
80000e64:	fd842783          	lw	a5,-40(s0)
80000e68:	04078863          	beqz	a5,80000eb8 <_doprnt+0x588>
80000e6c:	fdc42783          	lw	a5,-36(s0)
80000e70:	00078c63          	beqz	a5,80000e88 <_doprnt+0x558>
80000e74:	fe442703          	lw	a4,-28(s0)
80000e78:	fdc42783          	lw	a5,-36(s0)
80000e7c:	00e7d663          	bge	a5,a4,80000e88 <_doprnt+0x558>
80000e80:	fdc42783          	lw	a5,-36(s0)
80000e84:	fef42223          	sw	a5,-28(s0)
80000e88:	fd842783          	lw	a5,-40(s0)
80000e8c:	00078a63          	beqz	a5,80000ea0 <_doprnt+0x570>
80000e90:	fd842703          	lw	a4,-40(s0)
80000e94:	fe442783          	lw	a5,-28(s0)
80000e98:	40f707b3          	sub	a5,a4,a5
80000e9c:	fcf42a23          	sw	a5,-44(s0)
80000ea0:	fd344703          	lbu	a4,-45(s0)
80000ea4:	02d00793          	li	a5,45
80000ea8:	00f71863          	bne	a4,a5,80000eb8 <_doprnt+0x588>
80000eac:	fd442783          	lw	a5,-44(s0)
80000eb0:	fff78793          	addi	a5,a5,-1
80000eb4:	fcf42a23          	sw	a5,-44(s0)
80000eb8:	fd344703          	lbu	a4,-45(s0)
80000ebc:	02d00793          	li	a5,45
80000ec0:	02f71063          	bne	a4,a5,80000ee0 <_doprnt+0x5b0>
80000ec4:	fe344703          	lbu	a4,-29(s0)
80000ec8:	03000793          	li	a5,48
80000ecc:	00f71a63          	bne	a4,a5,80000ee0 <_doprnt+0x5b0>
80000ed0:	fd344703          	lbu	a4,-45(s0)
80000ed4:	f8442783          	lw	a5,-124(s0)
80000ed8:	00070513          	mv	a0,a4
80000edc:	000780e7          	jalr	a5
80000ee0:	fc442783          	lw	a5,-60(s0)
80000ee4:	02079a63          	bnez	a5,80000f18 <_doprnt+0x5e8>
80000ee8:	fe042623          	sw	zero,-20(s0)
80000eec:	0200006f          	j	80000f0c <_doprnt+0x5dc>
80000ef0:	fe344703          	lbu	a4,-29(s0)
80000ef4:	f8442783          	lw	a5,-124(s0)
80000ef8:	00070513          	mv	a0,a4
80000efc:	000780e7          	jalr	a5
80000f00:	fec42783          	lw	a5,-20(s0)
80000f04:	00178793          	addi	a5,a5,1
80000f08:	fef42623          	sw	a5,-20(s0)
80000f0c:	fec42703          	lw	a4,-20(s0)
80000f10:	fd442783          	lw	a5,-44(s0)
80000f14:	fcf74ee3          	blt	a4,a5,80000ef0 <_doprnt+0x5c0>
80000f18:	fd344703          	lbu	a4,-45(s0)
80000f1c:	02d00793          	li	a5,45
80000f20:	02f71063          	bne	a4,a5,80000f40 <_doprnt+0x610>
80000f24:	fe344703          	lbu	a4,-29(s0)
80000f28:	02000793          	li	a5,32
80000f2c:	00f71a63          	bne	a4,a5,80000f40 <_doprnt+0x610>
80000f30:	fd344703          	lbu	a4,-45(s0)
80000f34:	f8442783          	lw	a5,-124(s0)
80000f38:	00070513          	mv	a0,a4
80000f3c:	000780e7          	jalr	a5
80000f40:	fe042623          	sw	zero,-20(s0)
80000f44:	0300006f          	j	80000f74 <_doprnt+0x644>
80000f48:	fec42783          	lw	a5,-20(s0)
80000f4c:	fe842703          	lw	a4,-24(s0)
80000f50:	00f707b3          	add	a5,a4,a5
80000f54:	0007c783          	lbu	a5,0(a5)
80000f58:	00078713          	mv	a4,a5
80000f5c:	f8442783          	lw	a5,-124(s0)
80000f60:	00070513          	mv	a0,a4
80000f64:	000780e7          	jalr	a5
80000f68:	fec42783          	lw	a5,-20(s0)
80000f6c:	00178793          	addi	a5,a5,1
80000f70:	fef42623          	sw	a5,-20(s0)
80000f74:	fec42703          	lw	a4,-20(s0)
80000f78:	fe442783          	lw	a5,-28(s0)
80000f7c:	fcf746e3          	blt	a4,a5,80000f48 <_doprnt+0x618>
80000f80:	fc442783          	lw	a5,-60(s0)
80000f84:	9e0780e3          	beqz	a5,80000964 <_doprnt+0x34>
80000f88:	fe042623          	sw	zero,-20(s0)
80000f8c:	0200006f          	j	80000fac <_doprnt+0x67c>
80000f90:	fe344703          	lbu	a4,-29(s0)
80000f94:	f8442783          	lw	a5,-124(s0)
80000f98:	00070513          	mv	a0,a4
80000f9c:	000780e7          	jalr	a5
80000fa0:	fec42783          	lw	a5,-20(s0)
80000fa4:	00178793          	addi	a5,a5,1
80000fa8:	fef42623          	sw	a5,-20(s0)
80000fac:	fec42703          	lw	a4,-20(s0)
80000fb0:	fd442783          	lw	a5,-44(s0)
80000fb4:	fcf74ee3          	blt	a4,a5,80000f90 <_doprnt+0x660>
80000fb8:	9adff06f          	j	80000964 <_doprnt+0x34>
80000fbc:	00000013          	nop
80000fc0:	07c12083          	lw	ra,124(sp)
80000fc4:	07812403          	lw	s0,120(sp)
80000fc8:	08010113          	addi	sp,sp,128
80000fcc:	00008067          	ret

80000fd0 <_prtl10>:
80000fd0:	fc010113          	addi	sp,sp,-64
80000fd4:	02112e23          	sw	ra,60(sp)
80000fd8:	02812c23          	sw	s0,56(sp)
80000fdc:	04010413          	addi	s0,sp,64
80000fe0:	fca42623          	sw	a0,-52(s0)
80000fe4:	fcb42423          	sw	a1,-56(s0)
80000fe8:	fc040e23          	sb	zero,-36(s0)
80000fec:	fcc42783          	lw	a5,-52(s0)
80000ff0:	0207d663          	bgez	a5,8000101c <_prtl10+0x4c>
80000ff4:	fcc42783          	lw	a5,-52(s0)
80000ff8:	00a00593          	li	a1,10
80000ffc:	00078513          	mv	a0,a5
80001000:	2a8020ef          	jal	800032a8 <__modsi3>
80001004:	00050793          	mv	a5,a0
80001008:	0ff7f793          	zext.b	a5,a5
8000100c:	03000713          	li	a4,48
80001010:	40f707b3          	sub	a5,a4,a5
80001014:	0ff7f793          	zext.b	a5,a5
80001018:	0240006f          	j	8000103c <_prtl10+0x6c>
8000101c:	fcc42783          	lw	a5,-52(s0)
80001020:	00a00593          	li	a1,10
80001024:	00078513          	mv	a0,a5
80001028:	280020ef          	jal	800032a8 <__modsi3>
8000102c:	00050793          	mv	a5,a0
80001030:	0ff7f793          	zext.b	a5,a5
80001034:	03078793          	addi	a5,a5,48
80001038:	0ff7f793          	zext.b	a5,a5
8000103c:	fcf40ea3          	sb	a5,-35(s0)
80001040:	fcc42783          	lw	a5,-52(s0)
80001044:	0007d663          	bgez	a5,80001050 <_prtl10+0x80>
80001048:	ff600793          	li	a5,-10
8000104c:	0080006f          	j	80001054 <_prtl10+0x84>
80001050:	00a00793          	li	a5,10
80001054:	00078593          	mv	a1,a5
80001058:	fcc42503          	lw	a0,-52(s0)
8000105c:	1c8020ef          	jal	80003224 <__divsi3>
80001060:	00050793          	mv	a5,a0
80001064:	fcf42623          	sw	a5,-52(s0)
80001068:	00200793          	li	a5,2
8000106c:	fef42623          	sw	a5,-20(s0)
80001070:	0580006f          	j	800010c8 <_prtl10+0xf8>
80001074:	fcc42783          	lw	a5,-52(s0)
80001078:	00a00593          	li	a1,10
8000107c:	00078513          	mv	a0,a5
80001080:	228020ef          	jal	800032a8 <__modsi3>
80001084:	00050793          	mv	a5,a0
80001088:	0ff7f793          	zext.b	a5,a5
8000108c:	03078793          	addi	a5,a5,48
80001090:	0ff7f713          	zext.b	a4,a5
80001094:	fec42783          	lw	a5,-20(s0)
80001098:	ff078793          	addi	a5,a5,-16
8000109c:	008787b3          	add	a5,a5,s0
800010a0:	fee78623          	sb	a4,-20(a5)
800010a4:	fcc42783          	lw	a5,-52(s0)
800010a8:	00a00593          	li	a1,10
800010ac:	00078513          	mv	a0,a5
800010b0:	174020ef          	jal	80003224 <__divsi3>
800010b4:	00050793          	mv	a5,a0
800010b8:	fcf42623          	sw	a5,-52(s0)
800010bc:	fec42783          	lw	a5,-20(s0)
800010c0:	00178793          	addi	a5,a5,1
800010c4:	fef42623          	sw	a5,-20(s0)
800010c8:	fec42703          	lw	a4,-20(s0)
800010cc:	00a00793          	li	a5,10
800010d0:	fae7d2e3          	bge	a5,a4,80001074 <_prtl10+0xa4>
800010d4:	00a00793          	li	a5,10
800010d8:	fef42623          	sw	a5,-20(s0)
800010dc:	0100006f          	j	800010ec <_prtl10+0x11c>
800010e0:	fec42783          	lw	a5,-20(s0)
800010e4:	fff78793          	addi	a5,a5,-1
800010e8:	fef42623          	sw	a5,-20(s0)
800010ec:	fec42783          	lw	a5,-20(s0)
800010f0:	ff078793          	addi	a5,a5,-16
800010f4:	008787b3          	add	a5,a5,s0
800010f8:	fec7c703          	lbu	a4,-20(a5)
800010fc:	03000793          	li	a5,48
80001100:	fef700e3          	beq	a4,a5,800010e0 <_prtl10+0x110>
80001104:	fec42783          	lw	a5,-20(s0)
80001108:	02079e63          	bnez	a5,80001144 <_prtl10+0x174>
8000110c:	fec42783          	lw	a5,-20(s0)
80001110:	00178793          	addi	a5,a5,1
80001114:	fef42623          	sw	a5,-20(s0)
80001118:	02c0006f          	j	80001144 <_prtl10+0x174>
8000111c:	fec42703          	lw	a4,-20(s0)
80001120:	fff70793          	addi	a5,a4,-1
80001124:	fef42623          	sw	a5,-20(s0)
80001128:	fc842783          	lw	a5,-56(s0)
8000112c:	00178693          	addi	a3,a5,1
80001130:	fcd42423          	sw	a3,-56(s0)
80001134:	ff070713          	addi	a4,a4,-16
80001138:	00870733          	add	a4,a4,s0
8000113c:	fec74703          	lbu	a4,-20(a4)
80001140:	00e78023          	sb	a4,0(a5)
80001144:	fec42783          	lw	a5,-20(s0)
80001148:	fc07dae3          	bgez	a5,8000111c <_prtl10+0x14c>
8000114c:	00000013          	nop
80001150:	00000013          	nop
80001154:	03c12083          	lw	ra,60(sp)
80001158:	03812403          	lw	s0,56(sp)
8000115c:	04010113          	addi	sp,sp,64
80001160:	00008067          	ret

80001164 <_prtl8>:
80001164:	fd010113          	addi	sp,sp,-48
80001168:	02112623          	sw	ra,44(sp)
8000116c:	02812423          	sw	s0,40(sp)
80001170:	03010413          	addi	s0,sp,48
80001174:	fca42e23          	sw	a0,-36(s0)
80001178:	fcb42c23          	sw	a1,-40(s0)
8000117c:	fe040023          	sb	zero,-32(s0)
80001180:	00100793          	li	a5,1
80001184:	fef42623          	sw	a5,-20(s0)
80001188:	0440006f          	j	800011cc <_prtl8+0x68>
8000118c:	fdc42783          	lw	a5,-36(s0)
80001190:	0ff7f793          	zext.b	a5,a5
80001194:	0077f793          	andi	a5,a5,7
80001198:	0ff7f793          	zext.b	a5,a5
8000119c:	03078793          	addi	a5,a5,48
800011a0:	0ff7f713          	zext.b	a4,a5
800011a4:	fec42783          	lw	a5,-20(s0)
800011a8:	ff078793          	addi	a5,a5,-16
800011ac:	008787b3          	add	a5,a5,s0
800011b0:	fee78823          	sb	a4,-16(a5)
800011b4:	fdc42783          	lw	a5,-36(s0)
800011b8:	4037d793          	srai	a5,a5,0x3
800011bc:	fcf42e23          	sw	a5,-36(s0)
800011c0:	fec42783          	lw	a5,-20(s0)
800011c4:	00178793          	addi	a5,a5,1
800011c8:	fef42623          	sw	a5,-20(s0)
800011cc:	fec42703          	lw	a4,-20(s0)
800011d0:	00b00793          	li	a5,11
800011d4:	fae7dce3          	bge	a5,a4,8000118c <_prtl8+0x28>
800011d8:	feb44783          	lbu	a5,-21(s0)
800011dc:	0337f793          	andi	a5,a5,51
800011e0:	0ff7f793          	zext.b	a5,a5
800011e4:	fef405a3          	sb	a5,-21(s0)
800011e8:	00b00793          	li	a5,11
800011ec:	fef42623          	sw	a5,-20(s0)
800011f0:	0100006f          	j	80001200 <_prtl8+0x9c>
800011f4:	fec42783          	lw	a5,-20(s0)
800011f8:	fff78793          	addi	a5,a5,-1
800011fc:	fef42623          	sw	a5,-20(s0)
80001200:	fec42783          	lw	a5,-20(s0)
80001204:	ff078793          	addi	a5,a5,-16
80001208:	008787b3          	add	a5,a5,s0
8000120c:	ff07c703          	lbu	a4,-16(a5)
80001210:	03000793          	li	a5,48
80001214:	fef700e3          	beq	a4,a5,800011f4 <_prtl8+0x90>
80001218:	fec42783          	lw	a5,-20(s0)
8000121c:	02079e63          	bnez	a5,80001258 <_prtl8+0xf4>
80001220:	fec42783          	lw	a5,-20(s0)
80001224:	00178793          	addi	a5,a5,1
80001228:	fef42623          	sw	a5,-20(s0)
8000122c:	02c0006f          	j	80001258 <_prtl8+0xf4>
80001230:	fec42703          	lw	a4,-20(s0)
80001234:	fff70793          	addi	a5,a4,-1
80001238:	fef42623          	sw	a5,-20(s0)
8000123c:	fd842783          	lw	a5,-40(s0)
80001240:	00178693          	addi	a3,a5,1
80001244:	fcd42c23          	sw	a3,-40(s0)
80001248:	ff070713          	addi	a4,a4,-16
8000124c:	00870733          	add	a4,a4,s0
80001250:	ff074703          	lbu	a4,-16(a4)
80001254:	00e78023          	sb	a4,0(a5)
80001258:	fec42783          	lw	a5,-20(s0)
8000125c:	fc07dae3          	bgez	a5,80001230 <_prtl8+0xcc>
80001260:	00000013          	nop
80001264:	00000013          	nop
80001268:	02c12083          	lw	ra,44(sp)
8000126c:	02812403          	lw	s0,40(sp)
80001270:	03010113          	addi	sp,sp,48
80001274:	00008067          	ret

80001278 <_prtl16>:
80001278:	fd010113          	addi	sp,sp,-48
8000127c:	02112623          	sw	ra,44(sp)
80001280:	02812423          	sw	s0,40(sp)
80001284:	03010413          	addi	s0,sp,48
80001288:	fca42e23          	sw	a0,-36(s0)
8000128c:	fcb42c23          	sw	a1,-40(s0)
80001290:	fe040023          	sb	zero,-32(s0)
80001294:	00100793          	li	a5,1
80001298:	fef42623          	sw	a5,-20(s0)
8000129c:	0440006f          	j	800012e0 <_prtl16+0x68>
800012a0:	fdc42783          	lw	a5,-36(s0)
800012a4:	00f7f793          	andi	a5,a5,15
800012a8:	80003737          	lui	a4,0x80003
800012ac:	4e870713          	addi	a4,a4,1256 # 800034e8 <__modsi3+0x240>
800012b0:	00f707b3          	add	a5,a4,a5
800012b4:	0007c703          	lbu	a4,0(a5)
800012b8:	fec42783          	lw	a5,-20(s0)
800012bc:	ff078793          	addi	a5,a5,-16
800012c0:	008787b3          	add	a5,a5,s0
800012c4:	fee78823          	sb	a4,-16(a5)
800012c8:	fdc42783          	lw	a5,-36(s0)
800012cc:	4047d793          	srai	a5,a5,0x4
800012d0:	fcf42e23          	sw	a5,-36(s0)
800012d4:	fec42783          	lw	a5,-20(s0)
800012d8:	00178793          	addi	a5,a5,1
800012dc:	fef42623          	sw	a5,-20(s0)
800012e0:	fec42703          	lw	a4,-20(s0)
800012e4:	00800793          	li	a5,8
800012e8:	fae7dce3          	bge	a5,a4,800012a0 <_prtl16+0x28>
800012ec:	00800793          	li	a5,8
800012f0:	fef42623          	sw	a5,-20(s0)
800012f4:	0100006f          	j	80001304 <_prtl16+0x8c>
800012f8:	fec42783          	lw	a5,-20(s0)
800012fc:	fff78793          	addi	a5,a5,-1
80001300:	fef42623          	sw	a5,-20(s0)
80001304:	fec42783          	lw	a5,-20(s0)
80001308:	ff078793          	addi	a5,a5,-16
8000130c:	008787b3          	add	a5,a5,s0
80001310:	ff07c703          	lbu	a4,-16(a5)
80001314:	03000793          	li	a5,48
80001318:	fef700e3          	beq	a4,a5,800012f8 <_prtl16+0x80>
8000131c:	fec42783          	lw	a5,-20(s0)
80001320:	02079e63          	bnez	a5,8000135c <_prtl16+0xe4>
80001324:	fec42783          	lw	a5,-20(s0)
80001328:	00178793          	addi	a5,a5,1
8000132c:	fef42623          	sw	a5,-20(s0)
80001330:	02c0006f          	j	8000135c <_prtl16+0xe4>
80001334:	fec42703          	lw	a4,-20(s0)
80001338:	fff70793          	addi	a5,a4,-1
8000133c:	fef42623          	sw	a5,-20(s0)
80001340:	fd842783          	lw	a5,-40(s0)
80001344:	00178693          	addi	a3,a5,1
80001348:	fcd42c23          	sw	a3,-40(s0)
8000134c:	ff070713          	addi	a4,a4,-16
80001350:	00870733          	add	a4,a4,s0
80001354:	ff074703          	lbu	a4,-16(a4)
80001358:	00e78023          	sb	a4,0(a5)
8000135c:	fec42783          	lw	a5,-20(s0)
80001360:	fc07dae3          	bgez	a5,80001334 <_prtl16+0xbc>
80001364:	00000013          	nop
80001368:	00000013          	nop
8000136c:	02c12083          	lw	ra,44(sp)
80001370:	02812403          	lw	s0,40(sp)
80001374:	03010113          	addi	sp,sp,48
80001378:	00008067          	ret

8000137c <_prtX16>:
8000137c:	fd010113          	addi	sp,sp,-48
80001380:	02112623          	sw	ra,44(sp)
80001384:	02812423          	sw	s0,40(sp)
80001388:	03010413          	addi	s0,sp,48
8000138c:	fca42e23          	sw	a0,-36(s0)
80001390:	fcb42c23          	sw	a1,-40(s0)
80001394:	fe040023          	sb	zero,-32(s0)
80001398:	00100793          	li	a5,1
8000139c:	fef42623          	sw	a5,-20(s0)
800013a0:	0440006f          	j	800013e4 <_prtX16+0x68>
800013a4:	fdc42783          	lw	a5,-36(s0)
800013a8:	00f7f793          	andi	a5,a5,15
800013ac:	80003737          	lui	a4,0x80003
800013b0:	4fc70713          	addi	a4,a4,1276 # 800034fc <__modsi3+0x254>
800013b4:	00f707b3          	add	a5,a4,a5
800013b8:	0007c703          	lbu	a4,0(a5)
800013bc:	fec42783          	lw	a5,-20(s0)
800013c0:	ff078793          	addi	a5,a5,-16
800013c4:	008787b3          	add	a5,a5,s0
800013c8:	fee78823          	sb	a4,-16(a5)
800013cc:	fdc42783          	lw	a5,-36(s0)
800013d0:	4047d793          	srai	a5,a5,0x4
800013d4:	fcf42e23          	sw	a5,-36(s0)
800013d8:	fec42783          	lw	a5,-20(s0)
800013dc:	00178793          	addi	a5,a5,1
800013e0:	fef42623          	sw	a5,-20(s0)
800013e4:	fec42703          	lw	a4,-20(s0)
800013e8:	00800793          	li	a5,8
800013ec:	fae7dce3          	bge	a5,a4,800013a4 <_prtX16+0x28>
800013f0:	00800793          	li	a5,8
800013f4:	fef42623          	sw	a5,-20(s0)
800013f8:	0100006f          	j	80001408 <_prtX16+0x8c>
800013fc:	fec42783          	lw	a5,-20(s0)
80001400:	fff78793          	addi	a5,a5,-1
80001404:	fef42623          	sw	a5,-20(s0)
80001408:	fec42783          	lw	a5,-20(s0)
8000140c:	ff078793          	addi	a5,a5,-16
80001410:	008787b3          	add	a5,a5,s0
80001414:	ff07c703          	lbu	a4,-16(a5)
80001418:	03000793          	li	a5,48
8000141c:	fef700e3          	beq	a4,a5,800013fc <_prtX16+0x80>
80001420:	fec42783          	lw	a5,-20(s0)
80001424:	02079e63          	bnez	a5,80001460 <_prtX16+0xe4>
80001428:	fec42783          	lw	a5,-20(s0)
8000142c:	00178793          	addi	a5,a5,1
80001430:	fef42623          	sw	a5,-20(s0)
80001434:	02c0006f          	j	80001460 <_prtX16+0xe4>
80001438:	fec42703          	lw	a4,-20(s0)
8000143c:	fff70793          	addi	a5,a4,-1
80001440:	fef42623          	sw	a5,-20(s0)
80001444:	fd842783          	lw	a5,-40(s0)
80001448:	00178693          	addi	a3,a5,1
8000144c:	fcd42c23          	sw	a3,-40(s0)
80001450:	ff070713          	addi	a4,a4,-16
80001454:	00870733          	add	a4,a4,s0
80001458:	ff074703          	lbu	a4,-16(a4)
8000145c:	00e78023          	sb	a4,0(a5)
80001460:	fec42783          	lw	a5,-20(s0)
80001464:	fc07dae3          	bgez	a5,80001438 <_prtX16+0xbc>
80001468:	00000013          	nop
8000146c:	00000013          	nop
80001470:	02c12083          	lw	ra,44(sp)
80001474:	02812403          	lw	s0,40(sp)
80001478:	03010113          	addi	sp,sp,48
8000147c:	00008067          	ret

80001480 <_prtl2>:
80001480:	fb010113          	addi	sp,sp,-80
80001484:	04112623          	sw	ra,76(sp)
80001488:	04812423          	sw	s0,72(sp)
8000148c:	05010413          	addi	s0,sp,80
80001490:	faa42e23          	sw	a0,-68(s0)
80001494:	fab42c23          	sw	a1,-72(s0)
80001498:	fc040423          	sb	zero,-56(s0)
8000149c:	00100793          	li	a5,1
800014a0:	fef42623          	sw	a5,-20(s0)
800014a4:	0440006f          	j	800014e8 <_prtl2+0x68>
800014a8:	fbc42783          	lw	a5,-68(s0)
800014ac:	0017f793          	andi	a5,a5,1
800014b0:	00079663          	bnez	a5,800014bc <_prtl2+0x3c>
800014b4:	03000793          	li	a5,48
800014b8:	0080006f          	j	800014c0 <_prtl2+0x40>
800014bc:	03100793          	li	a5,49
800014c0:	fec42703          	lw	a4,-20(s0)
800014c4:	ff070713          	addi	a4,a4,-16
800014c8:	00870733          	add	a4,a4,s0
800014cc:	fcf70c23          	sb	a5,-40(a4)
800014d0:	fbc42783          	lw	a5,-68(s0)
800014d4:	4017d793          	srai	a5,a5,0x1
800014d8:	faf42e23          	sw	a5,-68(s0)
800014dc:	fec42783          	lw	a5,-20(s0)
800014e0:	00178793          	addi	a5,a5,1
800014e4:	fef42623          	sw	a5,-20(s0)
800014e8:	fec42703          	lw	a4,-20(s0)
800014ec:	02000793          	li	a5,32
800014f0:	fae7dce3          	bge	a5,a4,800014a8 <_prtl2+0x28>
800014f4:	02000793          	li	a5,32
800014f8:	fef42623          	sw	a5,-20(s0)
800014fc:	0100006f          	j	8000150c <_prtl2+0x8c>
80001500:	fec42783          	lw	a5,-20(s0)
80001504:	fff78793          	addi	a5,a5,-1
80001508:	fef42623          	sw	a5,-20(s0)
8000150c:	fec42783          	lw	a5,-20(s0)
80001510:	ff078793          	addi	a5,a5,-16
80001514:	008787b3          	add	a5,a5,s0
80001518:	fd87c703          	lbu	a4,-40(a5)
8000151c:	03000793          	li	a5,48
80001520:	fef700e3          	beq	a4,a5,80001500 <_prtl2+0x80>
80001524:	fec42783          	lw	a5,-20(s0)
80001528:	02079e63          	bnez	a5,80001564 <_prtl2+0xe4>
8000152c:	fec42783          	lw	a5,-20(s0)
80001530:	00178793          	addi	a5,a5,1
80001534:	fef42623          	sw	a5,-20(s0)
80001538:	02c0006f          	j	80001564 <_prtl2+0xe4>
8000153c:	fec42703          	lw	a4,-20(s0)
80001540:	fff70793          	addi	a5,a4,-1
80001544:	fef42623          	sw	a5,-20(s0)
80001548:	fb842783          	lw	a5,-72(s0)
8000154c:	00178693          	addi	a3,a5,1
80001550:	fad42c23          	sw	a3,-72(s0)
80001554:	ff070713          	addi	a4,a4,-16
80001558:	00870733          	add	a4,a4,s0
8000155c:	fd874703          	lbu	a4,-40(a4)
80001560:	00e78023          	sb	a4,0(a5)
80001564:	fec42783          	lw	a5,-20(s0)
80001568:	fc07dae3          	bgez	a5,8000153c <_prtl2+0xbc>
8000156c:	00000013          	nop
80001570:	00000013          	nop
80001574:	04c12083          	lw	ra,76(sp)
80001578:	04812403          	lw	s0,72(sp)
8000157c:	05010113          	addi	sp,sp,80
80001580:	00008067          	ret

80001584 <memchr>:
80001584:	fd010113          	addi	sp,sp,-48
80001588:	02112623          	sw	ra,44(sp)
8000158c:	02812423          	sw	s0,40(sp)
80001590:	03010413          	addi	s0,sp,48
80001594:	fca42e23          	sw	a0,-36(s0)
80001598:	fcb42c23          	sw	a1,-40(s0)
8000159c:	fcc42a23          	sw	a2,-44(s0)
800015a0:	fdc42783          	lw	a5,-36(s0)
800015a4:	fef42623          	sw	a5,-20(s0)
800015a8:	02c0006f          	j	800015d4 <memchr+0x50>
800015ac:	fec42783          	lw	a5,-20(s0)
800015b0:	0007c783          	lbu	a5,0(a5)
800015b4:	00078713          	mv	a4,a5
800015b8:	fd842783          	lw	a5,-40(s0)
800015bc:	00e79663          	bne	a5,a4,800015c8 <memchr+0x44>
800015c0:	fec42783          	lw	a5,-20(s0)
800015c4:	0240006f          	j	800015e8 <memchr+0x64>
800015c8:	fec42783          	lw	a5,-20(s0)
800015cc:	00178793          	addi	a5,a5,1
800015d0:	fef42623          	sw	a5,-20(s0)
800015d4:	fd442783          	lw	a5,-44(s0)
800015d8:	fff78713          	addi	a4,a5,-1
800015dc:	fce42a23          	sw	a4,-44(s0)
800015e0:	fc0796e3          	bnez	a5,800015ac <memchr+0x28>
800015e4:	00000793          	li	a5,0
800015e8:	00078513          	mv	a0,a5
800015ec:	02c12083          	lw	ra,44(sp)
800015f0:	02812403          	lw	s0,40(sp)
800015f4:	03010113          	addi	sp,sp,48
800015f8:	00008067          	ret

800015fc <memcmp>:
800015fc:	fd010113          	addi	sp,sp,-48
80001600:	02112623          	sw	ra,44(sp)
80001604:	02812423          	sw	s0,40(sp)
80001608:	03010413          	addi	s0,sp,48
8000160c:	fca42e23          	sw	a0,-36(s0)
80001610:	fcb42c23          	sw	a1,-40(s0)
80001614:	fcc42a23          	sw	a2,-44(s0)
80001618:	fdc42783          	lw	a5,-36(s0)
8000161c:	fef42623          	sw	a5,-20(s0)
80001620:	fd842783          	lw	a5,-40(s0)
80001624:	fef42423          	sw	a5,-24(s0)
80001628:	0540006f          	j	8000167c <memcmp+0x80>
8000162c:	fec42783          	lw	a5,-20(s0)
80001630:	0007c703          	lbu	a4,0(a5)
80001634:	fe842783          	lw	a5,-24(s0)
80001638:	0007c783          	lbu	a5,0(a5)
8000163c:	02f70463          	beq	a4,a5,80001664 <memcmp+0x68>
80001640:	fec42783          	lw	a5,-20(s0)
80001644:	0007c703          	lbu	a4,0(a5)
80001648:	fe842783          	lw	a5,-24(s0)
8000164c:	0007c783          	lbu	a5,0(a5)
80001650:	00e7f663          	bgeu	a5,a4,8000165c <memcmp+0x60>
80001654:	00100793          	li	a5,1
80001658:	0380006f          	j	80001690 <memcmp+0x94>
8000165c:	fff00793          	li	a5,-1
80001660:	0300006f          	j	80001690 <memcmp+0x94>
80001664:	fec42783          	lw	a5,-20(s0)
80001668:	00178793          	addi	a5,a5,1
8000166c:	fef42623          	sw	a5,-20(s0)
80001670:	fe842783          	lw	a5,-24(s0)
80001674:	00178793          	addi	a5,a5,1
80001678:	fef42423          	sw	a5,-24(s0)
8000167c:	fd442783          	lw	a5,-44(s0)
80001680:	fff78713          	addi	a4,a5,-1
80001684:	fce42a23          	sw	a4,-44(s0)
80001688:	fa0792e3          	bnez	a5,8000162c <memcmp+0x30>
8000168c:	00000793          	li	a5,0
80001690:	00078513          	mv	a0,a5
80001694:	02c12083          	lw	ra,44(sp)
80001698:	02812403          	lw	s0,40(sp)
8000169c:	03010113          	addi	sp,sp,48
800016a0:	00008067          	ret

800016a4 <memset>:
800016a4:	fd010113          	addi	sp,sp,-48
800016a8:	02112623          	sw	ra,44(sp)
800016ac:	02812423          	sw	s0,40(sp)
800016b0:	03010413          	addi	s0,sp,48
800016b4:	fca42e23          	sw	a0,-36(s0)
800016b8:	00058793          	mv	a5,a1
800016bc:	fcc42a23          	sw	a2,-44(s0)
800016c0:	fcf40da3          	sb	a5,-37(s0)
800016c4:	fdc42703          	lw	a4,-36(s0)
800016c8:	fd442783          	lw	a5,-44(s0)
800016cc:	00f707b3          	add	a5,a4,a5
800016d0:	fef42623          	sw	a5,-20(s0)
800016d4:	01c0006f          	j	800016f0 <memset+0x4c>
800016d8:	fdc42783          	lw	a5,-36(s0)
800016dc:	fdb44703          	lbu	a4,-37(s0)
800016e0:	00e78023          	sb	a4,0(a5)
800016e4:	fdc42783          	lw	a5,-36(s0)
800016e8:	00178793          	addi	a5,a5,1
800016ec:	fcf42e23          	sw	a5,-36(s0)
800016f0:	fdc42703          	lw	a4,-36(s0)
800016f4:	fec42783          	lw	a5,-20(s0)
800016f8:	fef760e3          	bltu	a4,a5,800016d8 <memset+0x34>
800016fc:	00000013          	nop
80001700:	00000013          	nop
80001704:	02c12083          	lw	ra,44(sp)
80001708:	02812403          	lw	s0,40(sp)
8000170c:	03010113          	addi	sp,sp,48
80001710:	00008067          	ret

80001714 <memcpy>:
80001714:	fd010113          	addi	sp,sp,-48
80001718:	02112623          	sw	ra,44(sp)
8000171c:	02812423          	sw	s0,40(sp)
80001720:	02912223          	sw	s1,36(sp)
80001724:	03010413          	addi	s0,sp,48
80001728:	fca42e23          	sw	a0,-36(s0)
8000172c:	fcb42c23          	sw	a1,-40(s0)
80001730:	fcc42a23          	sw	a2,-44(s0)
80001734:	fdc42783          	lw	a5,-36(s0)
80001738:	fef42623          	sw	a5,-20(s0)
8000173c:	fd842783          	lw	a5,-40(s0)
80001740:	fef42423          	sw	a5,-24(s0)
80001744:	00000493          	li	s1,0
80001748:	0280006f          	j	80001770 <memcpy+0x5c>
8000174c:	fe842703          	lw	a4,-24(s0)
80001750:	00170793          	addi	a5,a4,1
80001754:	fef42423          	sw	a5,-24(s0)
80001758:	fec42783          	lw	a5,-20(s0)
8000175c:	00178693          	addi	a3,a5,1
80001760:	fed42623          	sw	a3,-20(s0)
80001764:	00074703          	lbu	a4,0(a4)
80001768:	00e78023          	sb	a4,0(a5)
8000176c:	00148493          	addi	s1,s1,1
80001770:	fd442783          	lw	a5,-44(s0)
80001774:	fcf4cce3          	blt	s1,a5,8000174c <memcpy+0x38>
80001778:	fdc42783          	lw	a5,-36(s0)
8000177c:	00078513          	mv	a0,a5
80001780:	02c12083          	lw	ra,44(sp)
80001784:	02812403          	lw	s0,40(sp)
80001788:	02412483          	lw	s1,36(sp)
8000178c:	03010113          	addi	sp,sp,48
80001790:	00008067          	ret

80001794 <memmove>:
80001794:	fd010113          	addi	sp,sp,-48
80001798:	02112623          	sw	ra,44(sp)
8000179c:	02812423          	sw	s0,40(sp)
800017a0:	03010413          	addi	s0,sp,48
800017a4:	fca42e23          	sw	a0,-36(s0)
800017a8:	fcb42c23          	sw	a1,-40(s0)
800017ac:	fcc42a23          	sw	a2,-44(s0)
800017b0:	fd842783          	lw	a5,-40(s0)
800017b4:	fef42623          	sw	a5,-20(s0)
800017b8:	fdc42783          	lw	a5,-36(s0)
800017bc:	fef42423          	sw	a5,-24(s0)
800017c0:	fec42703          	lw	a4,-20(s0)
800017c4:	fe842783          	lw	a5,-24(s0)
800017c8:	04f77e63          	bgeu	a4,a5,80001824 <memmove+0x90>
800017cc:	0240006f          	j	800017f0 <memmove+0x5c>
800017d0:	fec42703          	lw	a4,-20(s0)
800017d4:	fd442783          	lw	a5,-44(s0)
800017d8:	00f70733          	add	a4,a4,a5
800017dc:	fe842683          	lw	a3,-24(s0)
800017e0:	fd442783          	lw	a5,-44(s0)
800017e4:	00f687b3          	add	a5,a3,a5
800017e8:	00074703          	lbu	a4,0(a4)
800017ec:	00e78023          	sb	a4,0(a5)
800017f0:	fd442783          	lw	a5,-44(s0)
800017f4:	fff78713          	addi	a4,a5,-1
800017f8:	fce42a23          	sw	a4,-44(s0)
800017fc:	fc079ae3          	bnez	a5,800017d0 <memmove+0x3c>
80001800:	0340006f          	j	80001834 <memmove+0xa0>
80001804:	fec42703          	lw	a4,-20(s0)
80001808:	00170793          	addi	a5,a4,1
8000180c:	fef42623          	sw	a5,-20(s0)
80001810:	fe842783          	lw	a5,-24(s0)
80001814:	00178693          	addi	a3,a5,1
80001818:	fed42423          	sw	a3,-24(s0)
8000181c:	00074703          	lbu	a4,0(a4)
80001820:	00e78023          	sb	a4,0(a5)
80001824:	fd442783          	lw	a5,-44(s0)
80001828:	fff78713          	addi	a4,a5,-1
8000182c:	fce42a23          	sw	a4,-44(s0)
80001830:	fc079ae3          	bnez	a5,80001804 <memmove+0x70>
80001834:	00000013          	nop
80001838:	02c12083          	lw	ra,44(sp)
8000183c:	02812403          	lw	s0,40(sp)
80001840:	03010113          	addi	sp,sp,48
80001844:	00008067          	ret

80001848 <strchr>:
80001848:	fe010113          	addi	sp,sp,-32
8000184c:	00112e23          	sw	ra,28(sp)
80001850:	00812c23          	sw	s0,24(sp)
80001854:	02010413          	addi	s0,sp,32
80001858:	fea42623          	sw	a0,-20(s0)
8000185c:	feb42423          	sw	a1,-24(s0)
80001860:	0100006f          	j	80001870 <strchr+0x28>
80001864:	fec42783          	lw	a5,-20(s0)
80001868:	00178793          	addi	a5,a5,1
8000186c:	fef42623          	sw	a5,-20(s0)
80001870:	fec42783          	lw	a5,-20(s0)
80001874:	0007c783          	lbu	a5,0(a5)
80001878:	00078713          	mv	a4,a5
8000187c:	fe842783          	lw	a5,-24(s0)
80001880:	00e78863          	beq	a5,a4,80001890 <strchr+0x48>
80001884:	fec42783          	lw	a5,-20(s0)
80001888:	0007c783          	lbu	a5,0(a5)
8000188c:	fc079ce3          	bnez	a5,80001864 <strchr+0x1c>
80001890:	fec42783          	lw	a5,-20(s0)
80001894:	0007c783          	lbu	a5,0(a5)
80001898:	00078713          	mv	a4,a5
8000189c:	fe842783          	lw	a5,-24(s0)
800018a0:	00e79663          	bne	a5,a4,800018ac <strchr+0x64>
800018a4:	fec42783          	lw	a5,-20(s0)
800018a8:	0080006f          	j	800018b0 <strchr+0x68>
800018ac:	00000793          	li	a5,0
800018b0:	00078513          	mv	a0,a5
800018b4:	01c12083          	lw	ra,28(sp)
800018b8:	01812403          	lw	s0,24(sp)
800018bc:	02010113          	addi	sp,sp,32
800018c0:	00008067          	ret

800018c4 <strlen>:
800018c4:	fd010113          	addi	sp,sp,-48
800018c8:	02112623          	sw	ra,44(sp)
800018cc:	02812423          	sw	s0,40(sp)
800018d0:	03010413          	addi	s0,sp,48
800018d4:	fca42e23          	sw	a0,-36(s0)
800018d8:	fe042623          	sw	zero,-20(s0)
800018dc:	0100006f          	j	800018ec <strlen+0x28>
800018e0:	fec42783          	lw	a5,-20(s0)
800018e4:	00178793          	addi	a5,a5,1
800018e8:	fef42623          	sw	a5,-20(s0)
800018ec:	fdc42783          	lw	a5,-36(s0)
800018f0:	00178713          	addi	a4,a5,1
800018f4:	fce42e23          	sw	a4,-36(s0)
800018f8:	0007c783          	lbu	a5,0(a5)
800018fc:	fe0792e3          	bnez	a5,800018e0 <strlen+0x1c>
80001900:	fec42783          	lw	a5,-20(s0)
80001904:	00078513          	mv	a0,a5
80001908:	02c12083          	lw	ra,44(sp)
8000190c:	02812403          	lw	s0,40(sp)
80001910:	03010113          	addi	sp,sp,48
80001914:	00008067          	ret

80001918 <strreverse>:
80001918:	fd010113          	addi	sp,sp,-48
8000191c:	02112623          	sw	ra,44(sp)
80001920:	02812423          	sw	s0,40(sp)
80001924:	03010413          	addi	s0,sp,48
80001928:	fca42e23          	sw	a0,-36(s0)
8000192c:	fdc42783          	lw	a5,-36(s0)
80001930:	fef42623          	sw	a5,-20(s0)
80001934:	fdc42783          	lw	a5,-36(s0)
80001938:	08078263          	beqz	a5,800019bc <strreverse+0xa4>
8000193c:	fdc42783          	lw	a5,-36(s0)
80001940:	0007c783          	lbu	a5,0(a5)
80001944:	06078c63          	beqz	a5,800019bc <strreverse+0xa4>
80001948:	00000013          	nop
8000194c:	fdc42783          	lw	a5,-36(s0)
80001950:	00178793          	addi	a5,a5,1
80001954:	fcf42e23          	sw	a5,-36(s0)
80001958:	fdc42783          	lw	a5,-36(s0)
8000195c:	0007c783          	lbu	a5,0(a5)
80001960:	fe0796e3          	bnez	a5,8000194c <strreverse+0x34>
80001964:	fdc42783          	lw	a5,-36(s0)
80001968:	fff78793          	addi	a5,a5,-1
8000196c:	fcf42e23          	sw	a5,-36(s0)
80001970:	03c0006f          	j	800019ac <strreverse+0x94>
80001974:	fec42783          	lw	a5,-20(s0)
80001978:	0007c783          	lbu	a5,0(a5)
8000197c:	fef405a3          	sb	a5,-21(s0)
80001980:	fec42783          	lw	a5,-20(s0)
80001984:	00178713          	addi	a4,a5,1
80001988:	fee42623          	sw	a4,-20(s0)
8000198c:	fdc42703          	lw	a4,-36(s0)
80001990:	00074703          	lbu	a4,0(a4)
80001994:	00e78023          	sb	a4,0(a5)
80001998:	fdc42783          	lw	a5,-36(s0)
8000199c:	fff78713          	addi	a4,a5,-1
800019a0:	fce42e23          	sw	a4,-36(s0)
800019a4:	feb44703          	lbu	a4,-21(s0)
800019a8:	00e78023          	sb	a4,0(a5)
800019ac:	fdc42703          	lw	a4,-36(s0)
800019b0:	fec42783          	lw	a5,-20(s0)
800019b4:	fce7e0e3          	bltu	a5,a4,80001974 <strreverse+0x5c>
800019b8:	0080006f          	j	800019c0 <strreverse+0xa8>
800019bc:	00000013          	nop
800019c0:	02c12083          	lw	ra,44(sp)
800019c4:	02812403          	lw	s0,40(sp)
800019c8:	03010113          	addi	sp,sp,48
800019cc:	00008067          	ret

800019d0 <strcmp>:
800019d0:	fe010113          	addi	sp,sp,-32
800019d4:	00112e23          	sw	ra,28(sp)
800019d8:	00812c23          	sw	s0,24(sp)
800019dc:	02010413          	addi	s0,sp,32
800019e0:	fea42623          	sw	a0,-20(s0)
800019e4:	feb42423          	sw	a1,-24(s0)
800019e8:	01c0006f          	j	80001a04 <strcmp+0x34>
800019ec:	fec42783          	lw	a5,-20(s0)
800019f0:	00178793          	addi	a5,a5,1
800019f4:	fef42623          	sw	a5,-20(s0)
800019f8:	fe842783          	lw	a5,-24(s0)
800019fc:	00178793          	addi	a5,a5,1
80001a00:	fef42423          	sw	a5,-24(s0)
80001a04:	fec42783          	lw	a5,-20(s0)
80001a08:	0007c703          	lbu	a4,0(a5)
80001a0c:	fe842783          	lw	a5,-24(s0)
80001a10:	0007c783          	lbu	a5,0(a5)
80001a14:	00f71e63          	bne	a4,a5,80001a30 <strcmp+0x60>
80001a18:	fec42783          	lw	a5,-20(s0)
80001a1c:	0007c783          	lbu	a5,0(a5)
80001a20:	00078863          	beqz	a5,80001a30 <strcmp+0x60>
80001a24:	fe842783          	lw	a5,-24(s0)
80001a28:	0007c783          	lbu	a5,0(a5)
80001a2c:	fc0790e3          	bnez	a5,800019ec <strcmp+0x1c>
80001a30:	fec42783          	lw	a5,-20(s0)
80001a34:	0007c703          	lbu	a4,0(a5)
80001a38:	fe842783          	lw	a5,-24(s0)
80001a3c:	0007c783          	lbu	a5,0(a5)
80001a40:	00f71663          	bne	a4,a5,80001a4c <strcmp+0x7c>
80001a44:	00000793          	li	a5,0
80001a48:	0240006f          	j	80001a6c <strcmp+0x9c>
80001a4c:	fec42783          	lw	a5,-20(s0)
80001a50:	0007c703          	lbu	a4,0(a5)
80001a54:	fe842783          	lw	a5,-24(s0)
80001a58:	0007c783          	lbu	a5,0(a5)
80001a5c:	00e7f663          	bgeu	a5,a4,80001a68 <strcmp+0x98>
80001a60:	00100793          	li	a5,1
80001a64:	0080006f          	j	80001a6c <strcmp+0x9c>
80001a68:	fff00793          	li	a5,-1
80001a6c:	00078513          	mv	a0,a5
80001a70:	01c12083          	lw	ra,28(sp)
80001a74:	01812403          	lw	s0,24(sp)
80001a78:	02010113          	addi	sp,sp,32
80001a7c:	00008067          	ret

80001a80 <strncmp>:
80001a80:	fe010113          	addi	sp,sp,-32
80001a84:	00112e23          	sw	ra,28(sp)
80001a88:	00812c23          	sw	s0,24(sp)
80001a8c:	02010413          	addi	s0,sp,32
80001a90:	fea42623          	sw	a0,-20(s0)
80001a94:	feb42423          	sw	a1,-24(s0)
80001a98:	fec42223          	sw	a2,-28(s0)
80001a9c:	0280006f          	j	80001ac4 <strncmp+0x44>
80001aa0:	fec42783          	lw	a5,-20(s0)
80001aa4:	00178793          	addi	a5,a5,1
80001aa8:	fef42623          	sw	a5,-20(s0)
80001aac:	fe842783          	lw	a5,-24(s0)
80001ab0:	00178793          	addi	a5,a5,1
80001ab4:	fef42423          	sw	a5,-24(s0)
80001ab8:	fe442783          	lw	a5,-28(s0)
80001abc:	fff78793          	addi	a5,a5,-1
80001ac0:	fef42223          	sw	a5,-28(s0)
80001ac4:	fec42783          	lw	a5,-20(s0)
80001ac8:	0007c703          	lbu	a4,0(a5)
80001acc:	fe842783          	lw	a5,-24(s0)
80001ad0:	0007c783          	lbu	a5,0(a5)
80001ad4:	02f71263          	bne	a4,a5,80001af8 <strncmp+0x78>
80001ad8:	fec42783          	lw	a5,-20(s0)
80001adc:	0007c783          	lbu	a5,0(a5)
80001ae0:	00078c63          	beqz	a5,80001af8 <strncmp+0x78>
80001ae4:	fe842783          	lw	a5,-24(s0)
80001ae8:	0007c783          	lbu	a5,0(a5)
80001aec:	00078663          	beqz	a5,80001af8 <strncmp+0x78>
80001af0:	fe442783          	lw	a5,-28(s0)
80001af4:	fa0796e3          	bnez	a5,80001aa0 <strncmp+0x20>
80001af8:	fe442783          	lw	a5,-28(s0)
80001afc:	00078c63          	beqz	a5,80001b14 <strncmp+0x94>
80001b00:	fec42783          	lw	a5,-20(s0)
80001b04:	0007c703          	lbu	a4,0(a5)
80001b08:	fe842783          	lw	a5,-24(s0)
80001b0c:	0007c783          	lbu	a5,0(a5)
80001b10:	00f71663          	bne	a4,a5,80001b1c <strncmp+0x9c>
80001b14:	00000793          	li	a5,0
80001b18:	0240006f          	j	80001b3c <strncmp+0xbc>
80001b1c:	fec42783          	lw	a5,-20(s0)
80001b20:	0007c703          	lbu	a4,0(a5)
80001b24:	fe842783          	lw	a5,-24(s0)
80001b28:	0007c783          	lbu	a5,0(a5)
80001b2c:	00e7f663          	bgeu	a5,a4,80001b38 <strncmp+0xb8>
80001b30:	00100793          	li	a5,1
80001b34:	0080006f          	j	80001b3c <strncmp+0xbc>
80001b38:	fff00793          	li	a5,-1
80001b3c:	00078513          	mv	a0,a5
80001b40:	01c12083          	lw	ra,28(sp)
80001b44:	01812403          	lw	s0,24(sp)
80001b48:	02010113          	addi	sp,sp,32
80001b4c:	00008067          	ret

80001b50 <strncpy>:
80001b50:	fd010113          	addi	sp,sp,-48
80001b54:	02112623          	sw	ra,44(sp)
80001b58:	02812423          	sw	s0,40(sp)
80001b5c:	03010413          	addi	s0,sp,48
80001b60:	fca42e23          	sw	a0,-36(s0)
80001b64:	fcb42c23          	sw	a1,-40(s0)
80001b68:	fcc42a23          	sw	a2,-44(s0)
80001b6c:	fdc42783          	lw	a5,-36(s0)
80001b70:	fef42623          	sw	a5,-20(s0)
80001b74:	0240006f          	j	80001b98 <strncpy+0x48>
80001b78:	fd842703          	lw	a4,-40(s0)
80001b7c:	00170793          	addi	a5,a4,1
80001b80:	fcf42c23          	sw	a5,-40(s0)
80001b84:	fdc42783          	lw	a5,-36(s0)
80001b88:	00178693          	addi	a3,a5,1
80001b8c:	fcd42e23          	sw	a3,-36(s0)
80001b90:	00074703          	lbu	a4,0(a4)
80001b94:	00e78023          	sb	a4,0(a5)
80001b98:	fd842783          	lw	a5,-40(s0)
80001b9c:	0007c783          	lbu	a5,0(a5)
80001ba0:	02078463          	beqz	a5,80001bc8 <strncpy+0x78>
80001ba4:	fd442783          	lw	a5,-44(s0)
80001ba8:	fff78713          	addi	a4,a5,-1
80001bac:	fce42a23          	sw	a4,-44(s0)
80001bb0:	fcf044e3          	bgtz	a5,80001b78 <strncpy+0x28>
80001bb4:	0140006f          	j	80001bc8 <strncpy+0x78>
80001bb8:	fdc42783          	lw	a5,-36(s0)
80001bbc:	00178713          	addi	a4,a5,1
80001bc0:	fce42e23          	sw	a4,-36(s0)
80001bc4:	00078023          	sb	zero,0(a5)
80001bc8:	fd442783          	lw	a5,-44(s0)
80001bcc:	fff78713          	addi	a4,a5,-1
80001bd0:	fce42a23          	sw	a4,-44(s0)
80001bd4:	fef042e3          	bgtz	a5,80001bb8 <strncpy+0x68>
80001bd8:	fec42783          	lw	a5,-20(s0)
80001bdc:	00078513          	mv	a0,a5
80001be0:	02c12083          	lw	ra,44(sp)
80001be4:	02812403          	lw	s0,40(sp)
80001be8:	03010113          	addi	sp,sp,48
80001bec:	00008067          	ret

80001bf0 <chrnlst>:
80001bf0:	fd010113          	addi	sp,sp,-48
80001bf4:	02112623          	sw	ra,44(sp)
80001bf8:	02812423          	sw	s0,40(sp)
80001bfc:	03010413          	addi	s0,sp,48
80001c00:	00050793          	mv	a5,a0
80001c04:	fcb42c23          	sw	a1,-40(s0)
80001c08:	fcf40fa3          	sb	a5,-33(s0)
80001c0c:	fe042623          	sw	zero,-20(s0)
80001c10:	0300006f          	j	80001c40 <chrnlst+0x50>
80001c14:	fec42783          	lw	a5,-20(s0)
80001c18:	fd842703          	lw	a4,-40(s0)
80001c1c:	00f707b3          	add	a5,a4,a5
80001c20:	0007c783          	lbu	a5,0(a5)
80001c24:	fdf44703          	lbu	a4,-33(s0)
80001c28:	00f71663          	bne	a4,a5,80001c34 <chrnlst+0x44>
80001c2c:	00100793          	li	a5,1
80001c30:	0280006f          	j	80001c58 <chrnlst+0x68>
80001c34:	fec42783          	lw	a5,-20(s0)
80001c38:	00178793          	addi	a5,a5,1
80001c3c:	fef42623          	sw	a5,-20(s0)
80001c40:	fec42783          	lw	a5,-20(s0)
80001c44:	fd842703          	lw	a4,-40(s0)
80001c48:	00f707b3          	add	a5,a4,a5
80001c4c:	0007c783          	lbu	a5,0(a5)
80001c50:	fc0792e3          	bnez	a5,80001c14 <chrnlst+0x24>
80001c54:	00000793          	li	a5,0
80001c58:	00078513          	mv	a0,a5
80001c5c:	02c12083          	lw	ra,44(sp)
80001c60:	02812403          	lw	s0,40(sp)
80001c64:	03010113          	addi	sp,sp,48
80001c68:	00008067          	ret

80001c6c <strncat>:
80001c6c:	fd010113          	addi	sp,sp,-48
80001c70:	02112623          	sw	ra,44(sp)
80001c74:	02812423          	sw	s0,40(sp)
80001c78:	03010413          	addi	s0,sp,48
80001c7c:	fca42e23          	sw	a0,-36(s0)
80001c80:	fcb42c23          	sw	a1,-40(s0)
80001c84:	fcc42a23          	sw	a2,-44(s0)
80001c88:	fdc42783          	lw	a5,-36(s0)
80001c8c:	fef42623          	sw	a5,-20(s0)
80001c90:	00000013          	nop
80001c94:	fdc42783          	lw	a5,-36(s0)
80001c98:	00178713          	addi	a4,a5,1
80001c9c:	fce42e23          	sw	a4,-36(s0)
80001ca0:	0007c783          	lbu	a5,0(a5)
80001ca4:	fe0798e3          	bnez	a5,80001c94 <strncat+0x28>
80001ca8:	fdc42783          	lw	a5,-36(s0)
80001cac:	fff78793          	addi	a5,a5,-1
80001cb0:	fcf42e23          	sw	a5,-36(s0)
80001cb4:	0300006f          	j	80001ce4 <strncat+0x78>
80001cb8:	fd442783          	lw	a5,-44(s0)
80001cbc:	fff78793          	addi	a5,a5,-1
80001cc0:	fcf42a23          	sw	a5,-44(s0)
80001cc4:	fd442783          	lw	a5,-44(s0)
80001cc8:	0007de63          	bgez	a5,80001ce4 <strncat+0x78>
80001ccc:	fdc42783          	lw	a5,-36(s0)
80001cd0:	fff78793          	addi	a5,a5,-1
80001cd4:	fcf42e23          	sw	a5,-36(s0)
80001cd8:	fdc42783          	lw	a5,-36(s0)
80001cdc:	00078023          	sb	zero,0(a5)
80001ce0:	02c0006f          	j	80001d0c <strncat+0xa0>
80001ce4:	fd842703          	lw	a4,-40(s0)
80001ce8:	00170793          	addi	a5,a4,1
80001cec:	fcf42c23          	sw	a5,-40(s0)
80001cf0:	fdc42783          	lw	a5,-36(s0)
80001cf4:	00178693          	addi	a3,a5,1
80001cf8:	fcd42e23          	sw	a3,-36(s0)
80001cfc:	00074703          	lbu	a4,0(a4)
80001d00:	00e78023          	sb	a4,0(a5)
80001d04:	0007c783          	lbu	a5,0(a5)
80001d08:	fa0798e3          	bnez	a5,80001cb8 <strncat+0x4c>
80001d0c:	fec42783          	lw	a5,-20(s0)
80001d10:	00078513          	mv	a0,a5
80001d14:	02c12083          	lw	ra,44(sp)
80001d18:	02812403          	lw	s0,40(sp)
80001d1c:	03010113          	addi	sp,sp,48
80001d20:	00008067          	ret

80001d24 <strstr>:
80001d24:	fd010113          	addi	sp,sp,-48
80001d28:	02112623          	sw	ra,44(sp)
80001d2c:	02812423          	sw	s0,40(sp)
80001d30:	03010413          	addi	s0,sp,48
80001d34:	fca42e23          	sw	a0,-36(s0)
80001d38:	fcb42c23          	sw	a1,-40(s0)
80001d3c:	0980006f          	j	80001dd4 <strstr+0xb0>
80001d40:	fdc42783          	lw	a5,-36(s0)
80001d44:	0007c703          	lbu	a4,0(a5)
80001d48:	fd842783          	lw	a5,-40(s0)
80001d4c:	0007c783          	lbu	a5,0(a5)
80001d50:	06f71c63          	bne	a4,a5,80001dc8 <strstr+0xa4>
80001d54:	fdc42783          	lw	a5,-36(s0)
80001d58:	fef42623          	sw	a5,-20(s0)
80001d5c:	fd842783          	lw	a5,-40(s0)
80001d60:	fef42423          	sw	a5,-24(s0)
80001d64:	0300006f          	j	80001d94 <strstr+0x70>
80001d68:	fec42783          	lw	a5,-20(s0)
80001d6c:	0007c703          	lbu	a4,0(a5)
80001d70:	fe842783          	lw	a5,-24(s0)
80001d74:	0007c783          	lbu	a5,0(a5)
80001d78:	02f71c63          	bne	a4,a5,80001db0 <strstr+0x8c>
80001d7c:	fec42783          	lw	a5,-20(s0)
80001d80:	00178793          	addi	a5,a5,1
80001d84:	fef42623          	sw	a5,-20(s0)
80001d88:	fe842783          	lw	a5,-24(s0)
80001d8c:	00178793          	addi	a5,a5,1
80001d90:	fef42423          	sw	a5,-24(s0)
80001d94:	fec42783          	lw	a5,-20(s0)
80001d98:	0007c783          	lbu	a5,0(a5)
80001d9c:	00078c63          	beqz	a5,80001db4 <strstr+0x90>
80001da0:	fe842783          	lw	a5,-24(s0)
80001da4:	0007c783          	lbu	a5,0(a5)
80001da8:	fc0790e3          	bnez	a5,80001d68 <strstr+0x44>
80001dac:	0080006f          	j	80001db4 <strstr+0x90>
80001db0:	00000013          	nop
80001db4:	fe842783          	lw	a5,-24(s0)
80001db8:	0007c783          	lbu	a5,0(a5)
80001dbc:	00079663          	bnez	a5,80001dc8 <strstr+0xa4>
80001dc0:	fdc42783          	lw	a5,-36(s0)
80001dc4:	0200006f          	j	80001de4 <strstr+0xc0>
80001dc8:	fdc42783          	lw	a5,-36(s0)
80001dcc:	00178793          	addi	a5,a5,1
80001dd0:	fcf42e23          	sw	a5,-36(s0)
80001dd4:	fdc42783          	lw	a5,-36(s0)
80001dd8:	0007c783          	lbu	a5,0(a5)
80001ddc:	f60792e3          	bnez	a5,80001d40 <strstr+0x1c>
80001de0:	00000793          	li	a5,0
80001de4:	00078513          	mv	a0,a5
80001de8:	02c12083          	lw	ra,44(sp)
80001dec:	02812403          	lw	s0,40(sp)
80001df0:	03010113          	addi	sp,sp,48
80001df4:	00008067          	ret

80001df8 <strcpy>:
80001df8:	fe010113          	addi	sp,sp,-32
80001dfc:	00112e23          	sw	ra,28(sp)
80001e00:	00812c23          	sw	s0,24(sp)
80001e04:	02010413          	addi	s0,sp,32
80001e08:	fea42623          	sw	a0,-20(s0)
80001e0c:	feb42423          	sw	a1,-24(s0)
80001e10:	00000013          	nop
80001e14:	fe842703          	lw	a4,-24(s0)
80001e18:	00170793          	addi	a5,a4,1
80001e1c:	fef42423          	sw	a5,-24(s0)
80001e20:	fec42783          	lw	a5,-20(s0)
80001e24:	00178693          	addi	a3,a5,1
80001e28:	fed42623          	sw	a3,-20(s0)
80001e2c:	00074703          	lbu	a4,0(a4)
80001e30:	00e78023          	sb	a4,0(a5)
80001e34:	0007c783          	lbu	a5,0(a5)
80001e38:	fc079ee3          	bnez	a5,80001e14 <strcpy+0x1c>
80001e3c:	00000793          	li	a5,0
80001e40:	00078513          	mv	a0,a5
80001e44:	01c12083          	lw	ra,28(sp)
80001e48:	01812403          	lw	s0,24(sp)
80001e4c:	02010113          	addi	sp,sp,32
80001e50:	00008067          	ret

80001e54 <strspn>:
80001e54:	fd010113          	addi	sp,sp,-48
80001e58:	02112623          	sw	ra,44(sp)
80001e5c:	02812423          	sw	s0,40(sp)
80001e60:	03010413          	addi	s0,sp,48
80001e64:	fca42e23          	sw	a0,-36(s0)
80001e68:	fcb42c23          	sw	a1,-40(s0)
80001e6c:	fdc42783          	lw	a5,-36(s0)
80001e70:	fef42423          	sw	a5,-24(s0)
80001e74:	05c0006f          	j	80001ed0 <strspn+0x7c>
80001e78:	fd842783          	lw	a5,-40(s0)
80001e7c:	fef42623          	sw	a5,-20(s0)
80001e80:	0240006f          	j	80001ea4 <strspn+0x50>
80001e84:	fdc42783          	lw	a5,-36(s0)
80001e88:	0007c703          	lbu	a4,0(a5)
80001e8c:	fec42783          	lw	a5,-20(s0)
80001e90:	0007c783          	lbu	a5,0(a5)
80001e94:	02f70063          	beq	a4,a5,80001eb4 <strspn+0x60>
80001e98:	fec42783          	lw	a5,-20(s0)
80001e9c:	00178793          	addi	a5,a5,1
80001ea0:	fef42623          	sw	a5,-20(s0)
80001ea4:	fec42783          	lw	a5,-20(s0)
80001ea8:	0007c783          	lbu	a5,0(a5)
80001eac:	fc079ce3          	bnez	a5,80001e84 <strspn+0x30>
80001eb0:	0080006f          	j	80001eb8 <strspn+0x64>
80001eb4:	00000013          	nop
80001eb8:	fec42783          	lw	a5,-20(s0)
80001ebc:	0007c783          	lbu	a5,0(a5)
80001ec0:	02078063          	beqz	a5,80001ee0 <strspn+0x8c>
80001ec4:	fdc42783          	lw	a5,-36(s0)
80001ec8:	00178793          	addi	a5,a5,1
80001ecc:	fcf42e23          	sw	a5,-36(s0)
80001ed0:	fdc42783          	lw	a5,-36(s0)
80001ed4:	0007c783          	lbu	a5,0(a5)
80001ed8:	fa0790e3          	bnez	a5,80001e78 <strspn+0x24>
80001edc:	0080006f          	j	80001ee4 <strspn+0x90>
80001ee0:	00000013          	nop
80001ee4:	fdc42703          	lw	a4,-36(s0)
80001ee8:	fe842783          	lw	a5,-24(s0)
80001eec:	40f707b3          	sub	a5,a4,a5
80001ef0:	00078513          	mv	a0,a5
80001ef4:	02c12083          	lw	ra,44(sp)
80001ef8:	02812403          	lw	s0,40(sp)
80001efc:	03010113          	addi	sp,sp,48
80001f00:	00008067          	ret

80001f04 <strcat>:
80001f04:	fd010113          	addi	sp,sp,-48
80001f08:	02112623          	sw	ra,44(sp)
80001f0c:	02812423          	sw	s0,40(sp)
80001f10:	03010413          	addi	s0,sp,48
80001f14:	fca42e23          	sw	a0,-36(s0)
80001f18:	fcb42c23          	sw	a1,-40(s0)
80001f1c:	fdc42503          	lw	a0,-36(s0)
80001f20:	9a5ff0ef          	jal	800018c4 <strlen>
80001f24:	fea42623          	sw	a0,-20(s0)
80001f28:	fec42783          	lw	a5,-20(s0)
80001f2c:	fdc42703          	lw	a4,-36(s0)
80001f30:	00f707b3          	add	a5,a4,a5
80001f34:	fd842583          	lw	a1,-40(s0)
80001f38:	00078513          	mv	a0,a5
80001f3c:	ebdff0ef          	jal	80001df8 <strcpy>
80001f40:	fdc42783          	lw	a5,-36(s0)
80001f44:	00078513          	mv	a0,a5
80001f48:	02c12083          	lw	ra,44(sp)
80001f4c:	02812403          	lw	s0,40(sp)
80001f50:	03010113          	addi	sp,sp,48
80001f54:	00008067          	ret

80001f58 <strcspn>:
80001f58:	fd010113          	addi	sp,sp,-48
80001f5c:	02112623          	sw	ra,44(sp)
80001f60:	02812423          	sw	s0,40(sp)
80001f64:	02912223          	sw	s1,36(sp)
80001f68:	03212023          	sw	s2,32(sp)
80001f6c:	01312e23          	sw	s3,28(sp)
80001f70:	01412c23          	sw	s4,24(sp)
80001f74:	03010413          	addi	s0,sp,48
80001f78:	fca42e23          	sw	a0,-36(s0)
80001f7c:	00058713          	mv	a4,a1
80001f80:	fdc42483          	lw	s1,-36(s0)
80001f84:	00048793          	mv	a5,s1
80001f88:	00178493          	addi	s1,a5,1
80001f8c:	0007c983          	lbu	s3,0(a5)
80001f90:	00070a13          	mv	s4,a4
80001f94:	000a0793          	mv	a5,s4
80001f98:	00178a13          	addi	s4,a5,1
80001f9c:	0007c903          	lbu	s2,0(a5)
80001fa0:	01391a63          	bne	s2,s3,80001fb4 <strcspn+0x5c>
80001fa4:	fff48713          	addi	a4,s1,-1
80001fa8:	fdc42783          	lw	a5,-36(s0)
80001fac:	40f707b3          	sub	a5,a4,a5
80001fb0:	00c0006f          	j	80001fbc <strcspn+0x64>
80001fb4:	fe0910e3          	bnez	s2,80001f94 <strcspn+0x3c>
80001fb8:	fcdff06f          	j	80001f84 <strcspn+0x2c>
80001fbc:	00078513          	mv	a0,a5
80001fc0:	02c12083          	lw	ra,44(sp)
80001fc4:	02812403          	lw	s0,40(sp)
80001fc8:	02412483          	lw	s1,36(sp)
80001fcc:	02012903          	lw	s2,32(sp)
80001fd0:	01c12983          	lw	s3,28(sp)
80001fd4:	01812a03          	lw	s4,24(sp)
80001fd8:	03010113          	addi	sp,sp,48
80001fdc:	00008067          	ret

80001fe0 <strnlen>:
80001fe0:	fd010113          	addi	sp,sp,-48
80001fe4:	02112623          	sw	ra,44(sp)
80001fe8:	02812423          	sw	s0,40(sp)
80001fec:	03010413          	addi	s0,sp,48
80001ff0:	fca42e23          	sw	a0,-36(s0)
80001ff4:	fcb42c23          	sw	a1,-40(s0)
80001ff8:	fe042623          	sw	zero,-20(s0)
80001ffc:	0100006f          	j	8000200c <strnlen+0x2c>
80002000:	fec42783          	lw	a5,-20(s0)
80002004:	00178793          	addi	a5,a5,1
80002008:	fef42623          	sw	a5,-20(s0)
8000200c:	fdc42783          	lw	a5,-36(s0)
80002010:	00178713          	addi	a4,a5,1
80002014:	fce42e23          	sw	a4,-36(s0)
80002018:	0007c783          	lbu	a5,0(a5)
8000201c:	00078863          	beqz	a5,8000202c <strnlen+0x4c>
80002020:	fec42703          	lw	a4,-20(s0)
80002024:	fd842783          	lw	a5,-40(s0)
80002028:	fcf74ce3          	blt	a4,a5,80002000 <strnlen+0x20>
8000202c:	fec42783          	lw	a5,-20(s0)
80002030:	00078513          	mv	a0,a5
80002034:	02c12083          	lw	ra,44(sp)
80002038:	02812403          	lw	s0,40(sp)
8000203c:	03010113          	addi	sp,sp,48
80002040:	00008067          	ret

80002044 <strtok>:
80002044:	fd010113          	addi	sp,sp,-48
80002048:	02112623          	sw	ra,44(sp)
8000204c:	02812423          	sw	s0,40(sp)
80002050:	03010413          	addi	s0,sp,48
80002054:	fca42e23          	sw	a0,-36(s0)
80002058:	fcb42c23          	sw	a1,-40(s0)
8000205c:	fdc42783          	lw	a5,-36(s0)
80002060:	02079063          	bnez	a5,80002080 <strtok+0x3c>
80002064:	800057b7          	lui	a5,0x80005
80002068:	e487a783          	lw	a5,-440(a5) # 80004e48 <last.0>
8000206c:	fcf42e23          	sw	a5,-36(s0)
80002070:	fdc42783          	lw	a5,-36(s0)
80002074:	00079663          	bnez	a5,80002080 <strtok+0x3c>
80002078:	00000793          	li	a5,0
8000207c:	0f00006f          	j	8000216c <strtok+0x128>
80002080:	00000013          	nop
80002084:	fdc42783          	lw	a5,-36(s0)
80002088:	00178713          	addi	a4,a5,1
8000208c:	fce42e23          	sw	a4,-36(s0)
80002090:	0007c783          	lbu	a5,0(a5)
80002094:	fef42423          	sw	a5,-24(s0)
80002098:	fd842783          	lw	a5,-40(s0)
8000209c:	fef42623          	sw	a5,-20(s0)
800020a0:	0140006f          	j	800020b4 <strtok+0x70>
800020a4:	fe842703          	lw	a4,-24(s0)
800020a8:	fe442783          	lw	a5,-28(s0)
800020ac:	00f71463          	bne	a4,a5,800020b4 <strtok+0x70>
800020b0:	fd5ff06f          	j	80002084 <strtok+0x40>
800020b4:	fec42783          	lw	a5,-20(s0)
800020b8:	00178713          	addi	a4,a5,1
800020bc:	fee42623          	sw	a4,-20(s0)
800020c0:	0007c783          	lbu	a5,0(a5)
800020c4:	fef42223          	sw	a5,-28(s0)
800020c8:	fe442783          	lw	a5,-28(s0)
800020cc:	fc079ce3          	bnez	a5,800020a4 <strtok+0x60>
800020d0:	fe842783          	lw	a5,-24(s0)
800020d4:	00079a63          	bnez	a5,800020e8 <strtok+0xa4>
800020d8:	800057b7          	lui	a5,0x80005
800020dc:	e407a423          	sw	zero,-440(a5) # 80004e48 <last.0>
800020e0:	00000793          	li	a5,0
800020e4:	0880006f          	j	8000216c <strtok+0x128>
800020e8:	fdc42783          	lw	a5,-36(s0)
800020ec:	fff78793          	addi	a5,a5,-1
800020f0:	fef42023          	sw	a5,-32(s0)
800020f4:	fdc42783          	lw	a5,-36(s0)
800020f8:	00178713          	addi	a4,a5,1
800020fc:	fce42e23          	sw	a4,-36(s0)
80002100:	0007c783          	lbu	a5,0(a5)
80002104:	fef42423          	sw	a5,-24(s0)
80002108:	fd842783          	lw	a5,-40(s0)
8000210c:	fef42623          	sw	a5,-20(s0)
80002110:	fec42783          	lw	a5,-20(s0)
80002114:	00178713          	addi	a4,a5,1
80002118:	fee42623          	sw	a4,-20(s0)
8000211c:	0007c783          	lbu	a5,0(a5)
80002120:	fef42223          	sw	a5,-28(s0)
80002124:	fe442703          	lw	a4,-28(s0)
80002128:	fe842783          	lw	a5,-24(s0)
8000212c:	02f71a63          	bne	a4,a5,80002160 <strtok+0x11c>
80002130:	fe842783          	lw	a5,-24(s0)
80002134:	00079663          	bnez	a5,80002140 <strtok+0xfc>
80002138:	fc042e23          	sw	zero,-36(s0)
8000213c:	0100006f          	j	8000214c <strtok+0x108>
80002140:	fdc42783          	lw	a5,-36(s0)
80002144:	fff78793          	addi	a5,a5,-1
80002148:	00078023          	sb	zero,0(a5)
8000214c:	800057b7          	lui	a5,0x80005
80002150:	fdc42703          	lw	a4,-36(s0)
80002154:	e4e7a423          	sw	a4,-440(a5) # 80004e48 <last.0>
80002158:	fe042783          	lw	a5,-32(s0)
8000215c:	0100006f          	j	8000216c <strtok+0x128>
80002160:	fe442783          	lw	a5,-28(s0)
80002164:	fa0796e3          	bnez	a5,80002110 <strtok+0xcc>
80002168:	f8dff06f          	j	800020f4 <strtok+0xb0>
8000216c:	00078513          	mv	a0,a5
80002170:	02c12083          	lw	ra,44(sp)
80002174:	02812403          	lw	s0,40(sp)
80002178:	03010113          	addi	sp,sp,48
8000217c:	00008067          	ret

80002180 <strrchr>:
80002180:	fd010113          	addi	sp,sp,-48
80002184:	02112623          	sw	ra,44(sp)
80002188:	02812423          	sw	s0,40(sp)
8000218c:	03010413          	addi	s0,sp,48
80002190:	fca42e23          	sw	a0,-36(s0)
80002194:	fcb42c23          	sw	a1,-40(s0)
80002198:	fe042623          	sw	zero,-20(s0)
8000219c:	02c0006f          	j	800021c8 <strrchr+0x48>
800021a0:	fdc42783          	lw	a5,-36(s0)
800021a4:	0007c703          	lbu	a4,0(a5)
800021a8:	fd842783          	lw	a5,-40(s0)
800021ac:	0ff7f793          	zext.b	a5,a5
800021b0:	00f71663          	bne	a4,a5,800021bc <strrchr+0x3c>
800021b4:	fdc42783          	lw	a5,-36(s0)
800021b8:	fef42623          	sw	a5,-20(s0)
800021bc:	fdc42783          	lw	a5,-36(s0)
800021c0:	00178793          	addi	a5,a5,1
800021c4:	fcf42e23          	sw	a5,-36(s0)
800021c8:	fdc42783          	lw	a5,-36(s0)
800021cc:	0007c783          	lbu	a5,0(a5)
800021d0:	fc0798e3          	bnez	a5,800021a0 <strrchr+0x20>
800021d4:	fd842783          	lw	a5,-40(s0)
800021d8:	0ff7f713          	zext.b	a4,a5
800021dc:	fdc42783          	lw	a5,-36(s0)
800021e0:	0007c783          	lbu	a5,0(a5)
800021e4:	00f71663          	bne	a4,a5,800021f0 <strrchr+0x70>
800021e8:	fdc42783          	lw	a5,-36(s0)
800021ec:	0080006f          	j	800021f4 <strrchr+0x74>
800021f0:	fec42783          	lw	a5,-20(s0)
800021f4:	00078513          	mv	a0,a5
800021f8:	02c12083          	lw	ra,44(sp)
800021fc:	02812403          	lw	s0,40(sp)
80002200:	03010113          	addi	sp,sp,48
80002204:	00008067          	ret

80002208 <labs>:
80002208:	fe010113          	addi	sp,sp,-32
8000220c:	00112e23          	sw	ra,28(sp)
80002210:	00812c23          	sw	s0,24(sp)
80002214:	02010413          	addi	s0,sp,32
80002218:	fea42623          	sw	a0,-20(s0)
8000221c:	fec42783          	lw	a5,-20(s0)
80002220:	0007d863          	bgez	a5,80002230 <labs+0x28>
80002224:	fec42783          	lw	a5,-20(s0)
80002228:	40f007b3          	neg	a5,a5
8000222c:	fef42623          	sw	a5,-20(s0)
80002230:	fec42783          	lw	a5,-20(s0)
80002234:	00078513          	mv	a0,a5
80002238:	01c12083          	lw	ra,28(sp)
8000223c:	01812403          	lw	s0,24(sp)
80002240:	02010113          	addi	sp,sp,32
80002244:	00008067          	ret

80002248 <abs>:
80002248:	fe010113          	addi	sp,sp,-32
8000224c:	00112e23          	sw	ra,28(sp)
80002250:	00812c23          	sw	s0,24(sp)
80002254:	02010413          	addi	s0,sp,32
80002258:	fea42623          	sw	a0,-20(s0)
8000225c:	fec42783          	lw	a5,-20(s0)
80002260:	41f7d713          	srai	a4,a5,0x1f
80002264:	fec42783          	lw	a5,-20(s0)
80002268:	00f747b3          	xor	a5,a4,a5
8000226c:	40e787b3          	sub	a5,a5,a4
80002270:	00078513          	mv	a0,a5
80002274:	01c12083          	lw	ra,28(sp)
80002278:	01812403          	lw	s0,24(sp)
8000227c:	02010113          	addi	sp,sp,32
80002280:	00008067          	ret

80002284 <strndup>:
80002284:	fd010113          	addi	sp,sp,-48
80002288:	02112623          	sw	ra,44(sp)
8000228c:	02812423          	sw	s0,40(sp)
80002290:	03010413          	addi	s0,sp,48
80002294:	fca42e23          	sw	a0,-36(s0)
80002298:	fcb42c23          	sw	a1,-40(s0)
8000229c:	fd842583          	lw	a1,-40(s0)
800022a0:	fdc42503          	lw	a0,-36(s0)
800022a4:	d3dff0ef          	jal	80001fe0 <strnlen>
800022a8:	fea42623          	sw	a0,-20(s0)
800022ac:	fec42783          	lw	a5,-20(s0)
800022b0:	00178793          	addi	a5,a5,1
800022b4:	00078513          	mv	a0,a5
800022b8:	5d0000ef          	jal	80002888 <malloc>
800022bc:	fea42423          	sw	a0,-24(s0)
800022c0:	fe842783          	lw	a5,-24(s0)
800022c4:	00079663          	bnez	a5,800022d0 <strndup+0x4c>
800022c8:	00000793          	li	a5,0
800022cc:	0280006f          	j	800022f4 <strndup+0x70>
800022d0:	fec42603          	lw	a2,-20(s0)
800022d4:	fdc42583          	lw	a1,-36(s0)
800022d8:	fe842503          	lw	a0,-24(s0)
800022dc:	875ff0ef          	jal	80001b50 <strncpy>
800022e0:	fec42783          	lw	a5,-20(s0)
800022e4:	fe842703          	lw	a4,-24(s0)
800022e8:	00f707b3          	add	a5,a4,a5
800022ec:	00078023          	sb	zero,0(a5)
800022f0:	fe842783          	lw	a5,-24(s0)
800022f4:	00078513          	mv	a0,a5
800022f8:	02c12083          	lw	ra,44(sp)
800022fc:	02812403          	lw	s0,40(sp)
80002300:	03010113          	addi	sp,sp,48
80002304:	00008067          	ret

80002308 <strdup>:
80002308:	fe010113          	addi	sp,sp,-32
8000230c:	00112e23          	sw	ra,28(sp)
80002310:	00812c23          	sw	s0,24(sp)
80002314:	02010413          	addi	s0,sp,32
80002318:	fea42623          	sw	a0,-20(s0)
8000231c:	fec42503          	lw	a0,-20(s0)
80002320:	da4ff0ef          	jal	800018c4 <strlen>
80002324:	00050793          	mv	a5,a0
80002328:	00078593          	mv	a1,a5
8000232c:	fec42503          	lw	a0,-20(s0)
80002330:	f55ff0ef          	jal	80002284 <strndup>
80002334:	00050793          	mv	a5,a0
80002338:	00078513          	mv	a0,a5
8000233c:	01c12083          	lw	ra,28(sp)
80002340:	01812403          	lw	s0,24(sp)
80002344:	02010113          	addi	sp,sp,32
80002348:	00008067          	ret

8000234c <atol>:
8000234c:	fd010113          	addi	sp,sp,-48
80002350:	02112623          	sw	ra,44(sp)
80002354:	02812423          	sw	s0,40(sp)
80002358:	03010413          	addi	s0,sp,48
8000235c:	fca42e23          	sw	a0,-36(s0)
80002360:	fe042623          	sw	zero,-20(s0)
80002364:	fe042423          	sw	zero,-24(s0)
80002368:	fdc42783          	lw	a5,-36(s0)
8000236c:	0007c783          	lbu	a5,0(a5)
80002370:	02d00713          	li	a4,45
80002374:	02e78863          	beq	a5,a4,800023a4 <atol+0x58>
80002378:	02d00713          	li	a4,45
8000237c:	04f74c63          	blt	a4,a5,800023d4 <atol+0x88>
80002380:	02b00713          	li	a4,43
80002384:	02e78663          	beq	a5,a4,800023b0 <atol+0x64>
80002388:	02b00713          	li	a4,43
8000238c:	04f74463          	blt	a4,a5,800023d4 <atol+0x88>
80002390:	00900713          	li	a4,9
80002394:	02e78663          	beq	a5,a4,800023c0 <atol+0x74>
80002398:	02000713          	li	a4,32
8000239c:	02e79c63          	bne	a5,a4,800023d4 <atol+0x88>
800023a0:	0200006f          	j	800023c0 <atol+0x74>
800023a4:	fe842783          	lw	a5,-24(s0)
800023a8:	00178793          	addi	a5,a5,1
800023ac:	fef42423          	sw	a5,-24(s0)
800023b0:	fdc42783          	lw	a5,-36(s0)
800023b4:	00178793          	addi	a5,a5,1
800023b8:	fcf42e23          	sw	a5,-36(s0)
800023bc:	0180006f          	j	800023d4 <atol+0x88>
800023c0:	00000013          	nop
800023c4:	fdc42783          	lw	a5,-36(s0)
800023c8:	00178793          	addi	a5,a5,1
800023cc:	fcf42e23          	sw	a5,-36(s0)
800023d0:	f99ff06f          	j	80002368 <atol+0x1c>
800023d4:	00000013          	nop
800023d8:	0380006f          	j	80002410 <atol+0xc4>
800023dc:	fec42703          	lw	a4,-20(s0)
800023e0:	00070793          	mv	a5,a4
800023e4:	00279793          	slli	a5,a5,0x2
800023e8:	00e787b3          	add	a5,a5,a4
800023ec:	00179793          	slli	a5,a5,0x1
800023f0:	00078693          	mv	a3,a5
800023f4:	fdc42783          	lw	a5,-36(s0)
800023f8:	00178713          	addi	a4,a5,1
800023fc:	fce42e23          	sw	a4,-36(s0)
80002400:	0007c783          	lbu	a5,0(a5)
80002404:	00f687b3          	add	a5,a3,a5
80002408:	fd078793          	addi	a5,a5,-48
8000240c:	fef42623          	sw	a5,-20(s0)
80002410:	fdc42783          	lw	a5,-36(s0)
80002414:	0007c703          	lbu	a4,0(a5)
80002418:	02f00793          	li	a5,47
8000241c:	00e7fa63          	bgeu	a5,a4,80002430 <atol+0xe4>
80002420:	fdc42783          	lw	a5,-36(s0)
80002424:	0007c703          	lbu	a4,0(a5)
80002428:	03900793          	li	a5,57
8000242c:	fae7f8e3          	bgeu	a5,a4,800023dc <atol+0x90>
80002430:	fe842783          	lw	a5,-24(s0)
80002434:	00078863          	beqz	a5,80002444 <atol+0xf8>
80002438:	fec42783          	lw	a5,-20(s0)
8000243c:	40f007b3          	neg	a5,a5
80002440:	0080006f          	j	80002448 <atol+0xfc>
80002444:	fec42783          	lw	a5,-20(s0)
80002448:	00078513          	mv	a0,a5
8000244c:	02c12083          	lw	ra,44(sp)
80002450:	02812403          	lw	s0,40(sp)
80002454:	03010113          	addi	sp,sp,48
80002458:	00008067          	ret

8000245c <atoi>:
8000245c:	fd010113          	addi	sp,sp,-48
80002460:	02112623          	sw	ra,44(sp)
80002464:	02812423          	sw	s0,40(sp)
80002468:	03010413          	addi	s0,sp,48
8000246c:	fca42e23          	sw	a0,-36(s0)
80002470:	fe042623          	sw	zero,-20(s0)
80002474:	fe042423          	sw	zero,-24(s0)
80002478:	fe042223          	sw	zero,-28(s0)
8000247c:	0100006f          	j	8000248c <atoi+0x30>
80002480:	fe442783          	lw	a5,-28(s0)
80002484:	00178793          	addi	a5,a5,1
80002488:	fef42223          	sw	a5,-28(s0)
8000248c:	fe442783          	lw	a5,-28(s0)
80002490:	fdc42703          	lw	a4,-36(s0)
80002494:	00f707b3          	add	a5,a4,a5
80002498:	0007c703          	lbu	a4,0(a5)
8000249c:	800037b7          	lui	a5,0x80003
800024a0:	51078593          	addi	a1,a5,1296 # 80003510 <__modsi3+0x268>
800024a4:	00070513          	mv	a0,a4
800024a8:	f48ff0ef          	jal	80001bf0 <chrnlst>
800024ac:	00050793          	mv	a5,a0
800024b0:	fc0798e3          	bnez	a5,80002480 <atoi+0x24>
800024b4:	fe442783          	lw	a5,-28(s0)
800024b8:	fdc42703          	lw	a4,-36(s0)
800024bc:	00f707b3          	add	a5,a4,a5
800024c0:	0007c703          	lbu	a4,0(a5)
800024c4:	02d00793          	li	a5,45
800024c8:	00f71e63          	bne	a4,a5,800024e4 <atoi+0x88>
800024cc:	00100793          	li	a5,1
800024d0:	fef42423          	sw	a5,-24(s0)
800024d4:	fe442783          	lw	a5,-28(s0)
800024d8:	00178793          	addi	a5,a5,1
800024dc:	fef42223          	sw	a5,-28(s0)
800024e0:	0700006f          	j	80002550 <atoi+0xf4>
800024e4:	fe442783          	lw	a5,-28(s0)
800024e8:	fdc42703          	lw	a4,-36(s0)
800024ec:	00f707b3          	add	a5,a4,a5
800024f0:	0007c703          	lbu	a4,0(a5)
800024f4:	02b00793          	li	a5,43
800024f8:	04f71c63          	bne	a4,a5,80002550 <atoi+0xf4>
800024fc:	fe442783          	lw	a5,-28(s0)
80002500:	00178793          	addi	a5,a5,1
80002504:	fef42223          	sw	a5,-28(s0)
80002508:	0480006f          	j	80002550 <atoi+0xf4>
8000250c:	fec42703          	lw	a4,-20(s0)
80002510:	00070793          	mv	a5,a4
80002514:	00279793          	slli	a5,a5,0x2
80002518:	00e787b3          	add	a5,a5,a4
8000251c:	00179793          	slli	a5,a5,0x1
80002520:	fef42623          	sw	a5,-20(s0)
80002524:	fe442783          	lw	a5,-28(s0)
80002528:	fdc42703          	lw	a4,-36(s0)
8000252c:	00f707b3          	add	a5,a4,a5
80002530:	0007c783          	lbu	a5,0(a5)
80002534:	fd078793          	addi	a5,a5,-48
80002538:	fec42703          	lw	a4,-20(s0)
8000253c:	00f707b3          	add	a5,a4,a5
80002540:	fef42623          	sw	a5,-20(s0)
80002544:	fe442783          	lw	a5,-28(s0)
80002548:	00178793          	addi	a5,a5,1
8000254c:	fef42223          	sw	a5,-28(s0)
80002550:	fe442783          	lw	a5,-28(s0)
80002554:	fdc42703          	lw	a4,-36(s0)
80002558:	00f707b3          	add	a5,a4,a5
8000255c:	0007c703          	lbu	a4,0(a5)
80002560:	02f00793          	li	a5,47
80002564:	00e7fe63          	bgeu	a5,a4,80002580 <atoi+0x124>
80002568:	fe442783          	lw	a5,-28(s0)
8000256c:	fdc42703          	lw	a4,-36(s0)
80002570:	00f707b3          	add	a5,a4,a5
80002574:	0007c703          	lbu	a4,0(a5)
80002578:	03900793          	li	a5,57
8000257c:	f8e7f8e3          	bgeu	a5,a4,8000250c <atoi+0xb0>
80002580:	fe842783          	lw	a5,-24(s0)
80002584:	00078663          	beqz	a5,80002590 <atoi+0x134>
80002588:	fff00793          	li	a5,-1
8000258c:	0080006f          	j	80002594 <atoi+0x138>
80002590:	00100793          	li	a5,1
80002594:	fec42583          	lw	a1,-20(s0)
80002598:	00078513          	mv	a0,a5
8000259c:	465000ef          	jal	80003200 <__mulsi3>
800025a0:	00050793          	mv	a5,a0
800025a4:	00078513          	mv	a0,a5
800025a8:	02c12083          	lw	ra,44(sp)
800025ac:	02812403          	lw	s0,40(sp)
800025b0:	03010113          	addi	sp,sp,48
800025b4:	00008067          	ret

800025b8 <int_abs>:
800025b8:	fe010113          	addi	sp,sp,-32
800025bc:	00112e23          	sw	ra,28(sp)
800025c0:	00812c23          	sw	s0,24(sp)
800025c4:	02010413          	addi	s0,sp,32
800025c8:	fea42623          	sw	a0,-20(s0)
800025cc:	fec42783          	lw	a5,-20(s0)
800025d0:	00f05663          	blez	a5,800025dc <int_abs+0x24>
800025d4:	fec42783          	lw	a5,-20(s0)
800025d8:	00c0006f          	j	800025e4 <int_abs+0x2c>
800025dc:	fec42783          	lw	a5,-20(s0)
800025e0:	40f007b3          	neg	a5,a5
800025e4:	00078513          	mv	a0,a5
800025e8:	01c12083          	lw	ra,28(sp)
800025ec:	01812403          	lw	s0,24(sp)
800025f0:	02010113          	addi	sp,sp,32
800025f4:	00008067          	ret

800025f8 <itoa>:
800025f8:	fd010113          	addi	sp,sp,-48
800025fc:	02112623          	sw	ra,44(sp)
80002600:	02812423          	sw	s0,40(sp)
80002604:	03010413          	addi	s0,sp,48
80002608:	fca42e23          	sw	a0,-36(s0)
8000260c:	fcb42c23          	sw	a1,-40(s0)
80002610:	fcc42a23          	sw	a2,-44(s0)
80002614:	fcd42823          	sw	a3,-48(s0)
80002618:	fe042623          	sw	zero,-20(s0)
8000261c:	fd442783          	lw	a5,-44(s0)
80002620:	00079663          	bnez	a5,8000262c <itoa+0x34>
80002624:	00000793          	li	a5,0
80002628:	08c0006f          	j	800026b4 <itoa+0xbc>
8000262c:	fd042703          	lw	a4,-48(s0)
80002630:	00100793          	li	a5,1
80002634:	00e7f863          	bgeu	a5,a4,80002644 <itoa+0x4c>
80002638:	fd042703          	lw	a4,-48(s0)
8000263c:	02400793          	li	a5,36
80002640:	00e7f663          	bgeu	a5,a4,8000264c <itoa+0x54>
80002644:	00000793          	li	a5,0
80002648:	06c0006f          	j	800026b4 <itoa+0xbc>
8000264c:	fdc42783          	lw	a5,-36(s0)
80002650:	0207d863          	bgez	a5,80002680 <itoa+0x88>
80002654:	fec42783          	lw	a5,-20(s0)
80002658:	00178713          	addi	a4,a5,1
8000265c:	fee42623          	sw	a4,-20(s0)
80002660:	00078713          	mv	a4,a5
80002664:	fd842783          	lw	a5,-40(s0)
80002668:	00e787b3          	add	a5,a5,a4
8000266c:	02d00713          	li	a4,45
80002670:	00e78023          	sb	a4,0(a5)
80002674:	fd442783          	lw	a5,-44(s0)
80002678:	fff78793          	addi	a5,a5,-1
8000267c:	fcf42a23          	sw	a5,-44(s0)
80002680:	fdc42503          	lw	a0,-36(s0)
80002684:	f35ff0ef          	jal	800025b8 <int_abs>
80002688:	00050793          	mv	a5,a0
8000268c:	fcf42e23          	sw	a5,-36(s0)
80002690:	fdc42503          	lw	a0,-36(s0)
80002694:	fec42783          	lw	a5,-20(s0)
80002698:	fd842703          	lw	a4,-40(s0)
8000269c:	00f707b3          	add	a5,a4,a5
800026a0:	fd042683          	lw	a3,-48(s0)
800026a4:	fd442603          	lw	a2,-44(s0)
800026a8:	00078593          	mv	a1,a5
800026ac:	01c000ef          	jal	800026c8 <uitoa>
800026b0:	00050793          	mv	a5,a0
800026b4:	00078513          	mv	a0,a5
800026b8:	02c12083          	lw	ra,44(sp)
800026bc:	02812403          	lw	s0,40(sp)
800026c0:	03010113          	addi	sp,sp,48
800026c4:	00008067          	ret

800026c8 <uitoa>:
800026c8:	fb010113          	addi	sp,sp,-80
800026cc:	04112623          	sw	ra,76(sp)
800026d0:	04812423          	sw	s0,72(sp)
800026d4:	05010413          	addi	s0,sp,80
800026d8:	faa42e23          	sw	a0,-68(s0)
800026dc:	fab42c23          	sw	a1,-72(s0)
800026e0:	fac42a23          	sw	a2,-76(s0)
800026e4:	fad42823          	sw	a3,-80(s0)
800026e8:	800037b7          	lui	a5,0x80003
800026ec:	51878793          	addi	a5,a5,1304 # 80003518 <__modsi3+0x270>
800026f0:	0007a303          	lw	t1,0(a5)
800026f4:	0047a883          	lw	a7,4(a5)
800026f8:	0087a803          	lw	a6,8(a5)
800026fc:	00c7a503          	lw	a0,12(a5)
80002700:	0107a583          	lw	a1,16(a5)
80002704:	0147a603          	lw	a2,20(a5)
80002708:	0187a683          	lw	a3,24(a5)
8000270c:	01c7a703          	lw	a4,28(a5)
80002710:	0207a783          	lw	a5,32(a5)
80002714:	fc642423          	sw	t1,-56(s0)
80002718:	fd142623          	sw	a7,-52(s0)
8000271c:	fd042823          	sw	a6,-48(s0)
80002720:	fca42a23          	sw	a0,-44(s0)
80002724:	fcb42c23          	sw	a1,-40(s0)
80002728:	fcc42e23          	sw	a2,-36(s0)
8000272c:	fed42023          	sw	a3,-32(s0)
80002730:	fee42223          	sw	a4,-28(s0)
80002734:	fef42423          	sw	a5,-24(s0)
80002738:	fe042623          	sw	zero,-20(s0)
8000273c:	fb442783          	lw	a5,-76(s0)
80002740:	00079663          	bnez	a5,8000274c <uitoa+0x84>
80002744:	00000793          	li	a5,0
80002748:	0c00006f          	j	80002808 <uitoa+0x140>
8000274c:	fb042703          	lw	a4,-80(s0)
80002750:	00100793          	li	a5,1
80002754:	00e7f863          	bgeu	a5,a4,80002764 <uitoa+0x9c>
80002758:	fb042703          	lw	a4,-80(s0)
8000275c:	02400793          	li	a5,36
80002760:	00e7f663          	bgeu	a5,a4,8000276c <uitoa+0xa4>
80002764:	00000793          	li	a5,0
80002768:	0a00006f          	j	80002808 <uitoa+0x140>
8000276c:	fbc42783          	lw	a5,-68(s0)
80002770:	fb042583          	lw	a1,-80(s0)
80002774:	00078513          	mv	a0,a5
80002778:	2fd000ef          	jal	80003274 <__umodsi3>
8000277c:	00050793          	mv	a5,a0
80002780:	00078693          	mv	a3,a5
80002784:	fec42783          	lw	a5,-20(s0)
80002788:	00178713          	addi	a4,a5,1
8000278c:	fee42623          	sw	a4,-20(s0)
80002790:	00078713          	mv	a4,a5
80002794:	fb842783          	lw	a5,-72(s0)
80002798:	00e787b3          	add	a5,a5,a4
8000279c:	ff068713          	addi	a4,a3,-16
800027a0:	00870733          	add	a4,a4,s0
800027a4:	fd874703          	lbu	a4,-40(a4)
800027a8:	00e78023          	sb	a4,0(a5)
800027ac:	fb442783          	lw	a5,-76(s0)
800027b0:	fff78793          	addi	a5,a5,-1
800027b4:	faf42a23          	sw	a5,-76(s0)
800027b8:	fb442783          	lw	a5,-76(s0)
800027bc:	02078063          	beqz	a5,800027dc <uitoa+0x114>
800027c0:	fb042583          	lw	a1,-80(s0)
800027c4:	fbc42503          	lw	a0,-68(s0)
800027c8:	265000ef          	jal	8000322c <__hidden___udivsi3>
800027cc:	00050793          	mv	a5,a0
800027d0:	faf42e23          	sw	a5,-68(s0)
800027d4:	fbc42783          	lw	a5,-68(s0)
800027d8:	f8079ae3          	bnez	a5,8000276c <uitoa+0xa4>
800027dc:	fb442783          	lw	a5,-76(s0)
800027e0:	00079663          	bnez	a5,800027ec <uitoa+0x124>
800027e4:	00000793          	li	a5,0
800027e8:	0200006f          	j	80002808 <uitoa+0x140>
800027ec:	fec42783          	lw	a5,-20(s0)
800027f0:	fb842703          	lw	a4,-72(s0)
800027f4:	00f707b3          	add	a5,a4,a5
800027f8:	00078023          	sb	zero,0(a5)
800027fc:	fb842503          	lw	a0,-72(s0)
80002800:	918ff0ef          	jal	80001918 <strreverse>
80002804:	fb842783          	lw	a5,-72(s0)
80002808:	00078513          	mv	a0,a5
8000280c:	04c12083          	lw	ra,76(sp)
80002810:	04812403          	lw	s0,72(sp)
80002814:	05010113          	addi	sp,sp,80
80002818:	00008067          	ret

8000281c <bzero>:
8000281c:	fd010113          	addi	sp,sp,-48
80002820:	02112623          	sw	ra,44(sp)
80002824:	02812423          	sw	s0,40(sp)
80002828:	03010413          	addi	s0,sp,48
8000282c:	fca42e23          	sw	a0,-36(s0)
80002830:	fcb42c23          	sw	a1,-40(s0)
80002834:	fdc42783          	lw	a5,-36(s0)
80002838:	fef42423          	sw	a5,-24(s0)
8000283c:	fd842783          	lw	a5,-40(s0)
80002840:	fef42623          	sw	a5,-20(s0)
80002844:	fec42783          	lw	a5,-20(s0)
80002848:	02f05663          	blez	a5,80002874 <bzero+0x58>
8000284c:	fe842783          	lw	a5,-24(s0)
80002850:	00178713          	addi	a4,a5,1
80002854:	fee42423          	sw	a4,-24(s0)
80002858:	00078023          	sb	zero,0(a5)
8000285c:	fec42783          	lw	a5,-20(s0)
80002860:	fff78793          	addi	a5,a5,-1
80002864:	fef42623          	sw	a5,-20(s0)
80002868:	fec42783          	lw	a5,-20(s0)
8000286c:	fe0790e3          	bnez	a5,8000284c <bzero+0x30>
80002870:	0080006f          	j	80002878 <bzero+0x5c>
80002874:	00000013          	nop
80002878:	02c12083          	lw	ra,44(sp)
8000287c:	02812403          	lw	s0,40(sp)
80002880:	03010113          	addi	sp,sp,48
80002884:	00008067          	ret

80002888 <malloc>:
80002888:	fe010113          	addi	sp,sp,-32
8000288c:	00112e23          	sw	ra,28(sp)
80002890:	00812c23          	sw	s0,24(sp)
80002894:	02010413          	addi	s0,sp,32
80002898:	fea42623          	sw	a0,-20(s0)
8000289c:	00000793          	li	a5,0
800028a0:	00078513          	mv	a0,a5
800028a4:	01c12083          	lw	ra,28(sp)
800028a8:	01812403          	lw	s0,24(sp)
800028ac:	02010113          	addi	sp,sp,32
800028b0:	00008067          	ret

800028b4 <free>:
800028b4:	fe010113          	addi	sp,sp,-32
800028b8:	00112e23          	sw	ra,28(sp)
800028bc:	00812c23          	sw	s0,24(sp)
800028c0:	02010413          	addi	s0,sp,32
800028c4:	fea42623          	sw	a0,-20(s0)
800028c8:	00000013          	nop
800028cc:	01c12083          	lw	ra,28(sp)
800028d0:	01812403          	lw	s0,24(sp)
800028d4:	02010113          	addi	sp,sp,32
800028d8:	00008067          	ret

800028dc <info>:
800028dc:	ff010113          	addi	sp,sp,-16
800028e0:	00112623          	sw	ra,12(sp)
800028e4:	00812423          	sw	s0,8(sp)
800028e8:	01010413          	addi	s0,sp,16
800028ec:	00000013          	nop
800028f0:	00c12083          	lw	ra,12(sp)
800028f4:	00812403          	lw	s0,8(sp)
800028f8:	01010113          	addi	sp,sp,16
800028fc:	00008067          	ret

80002900 <realloc>:
80002900:	fd010113          	addi	sp,sp,-48
80002904:	02112623          	sw	ra,44(sp)
80002908:	02812423          	sw	s0,40(sp)
8000290c:	03010413          	addi	s0,sp,48
80002910:	fca42e23          	sw	a0,-36(s0)
80002914:	fcb42c23          	sw	a1,-40(s0)
80002918:	fec42783          	lw	a5,-20(s0)
8000291c:	00078513          	mv	a0,a5
80002920:	02c12083          	lw	ra,44(sp)
80002924:	02812403          	lw	s0,40(sp)
80002928:	03010113          	addi	sp,sp,48
8000292c:	00008067          	ret

80002930 <kputc>:
80002930:	fe010113          	addi	sp,sp,-32
80002934:	00112e23          	sw	ra,28(sp)
80002938:	00812c23          	sw	s0,24(sp)
8000293c:	02010413          	addi	s0,sp,32
80002940:	fea42623          	sw	a0,-20(s0)
80002944:	fec42783          	lw	a5,-20(s0)
80002948:	02c00893          	li	a7,44
8000294c:	00078513          	mv	a0,a5
80002950:	00000073          	ecall
80002954:	fec42783          	lw	a5,-20(s0)
80002958:	00078513          	mv	a0,a5
8000295c:	01c12083          	lw	ra,28(sp)
80002960:	01812403          	lw	s0,24(sp)
80002964:	02010113          	addi	sp,sp,32
80002968:	00008067          	ret

8000296c <putchar>:
8000296c:	fe010113          	addi	sp,sp,-32
80002970:	00112e23          	sw	ra,28(sp)
80002974:	00812c23          	sw	s0,24(sp)
80002978:	02010413          	addi	s0,sp,32
8000297c:	fea42623          	sw	a0,-20(s0)
80002980:	fec42703          	lw	a4,-20(s0)
80002984:	00a00793          	li	a5,10
80002988:	00f71663          	bne	a4,a5,80002994 <putchar+0x28>
8000298c:	00d00513          	li	a0,13
80002990:	fddff0ef          	jal	8000296c <putchar>
80002994:	003007b7          	lui	a5,0x300
80002998:	fec42703          	lw	a4,-20(s0)
8000299c:	00e7a023          	sw	a4,0(a5) # 300000 <_start-0x7fd00000>
800029a0:	00000013          	nop
800029a4:	00078513          	mv	a0,a5
800029a8:	01c12083          	lw	ra,28(sp)
800029ac:	01812403          	lw	s0,24(sp)
800029b0:	02010113          	addi	sp,sp,32
800029b4:	00008067          	ret

800029b8 <printf>:
800029b8:	fb010113          	addi	sp,sp,-80
800029bc:	02112623          	sw	ra,44(sp)
800029c0:	02812423          	sw	s0,40(sp)
800029c4:	03010413          	addi	s0,sp,48
800029c8:	fca42e23          	sw	a0,-36(s0)
800029cc:	00b42223          	sw	a1,4(s0)
800029d0:	00c42423          	sw	a2,8(s0)
800029d4:	00d42623          	sw	a3,12(s0)
800029d8:	00e42823          	sw	a4,16(s0)
800029dc:	00f42a23          	sw	a5,20(s0)
800029e0:	01042c23          	sw	a6,24(s0)
800029e4:	01142e23          	sw	a7,28(s0)
800029e8:	02040793          	addi	a5,s0,32
800029ec:	fcf42c23          	sw	a5,-40(s0)
800029f0:	fd842783          	lw	a5,-40(s0)
800029f4:	fe478793          	addi	a5,a5,-28
800029f8:	fef42623          	sw	a5,-20(s0)
800029fc:	fec42703          	lw	a4,-20(s0)
80002a00:	800037b7          	lui	a5,0x80003
80002a04:	93078613          	addi	a2,a5,-1744 # 80002930 <kputc>
80002a08:	00070593          	mv	a1,a4
80002a0c:	fdc42503          	lw	a0,-36(s0)
80002a10:	f21fd0ef          	jal	80000930 <_doprnt>
80002a14:	00000793          	li	a5,0
80002a18:	00078513          	mv	a0,a5
80002a1c:	02c12083          	lw	ra,44(sp)
80002a20:	02812403          	lw	s0,40(sp)
80002a24:	05010113          	addi	sp,sp,80
80002a28:	00008067          	ret

80002a2c <sprintf>:
80002a2c:	fb010113          	addi	sp,sp,-80
80002a30:	02112623          	sw	ra,44(sp)
80002a34:	02812423          	sw	s0,40(sp)
80002a38:	03010413          	addi	s0,sp,48
80002a3c:	fca42e23          	sw	a0,-36(s0)
80002a40:	fcb42c23          	sw	a1,-40(s0)
80002a44:	00c42423          	sw	a2,8(s0)
80002a48:	00d42623          	sw	a3,12(s0)
80002a4c:	00e42823          	sw	a4,16(s0)
80002a50:	00f42a23          	sw	a5,20(s0)
80002a54:	01042c23          	sw	a6,24(s0)
80002a58:	01142e23          	sw	a7,28(s0)
80002a5c:	fdc42783          	lw	a5,-36(s0)
80002a60:	fef42423          	sw	a5,-24(s0)
80002a64:	02040793          	addi	a5,s0,32
80002a68:	fcf42a23          	sw	a5,-44(s0)
80002a6c:	fd442783          	lw	a5,-44(s0)
80002a70:	fe878793          	addi	a5,a5,-24
80002a74:	fef42623          	sw	a5,-20(s0)
80002a78:	fec42703          	lw	a4,-20(s0)
80002a7c:	fe840793          	addi	a5,s0,-24
80002a80:	00078693          	mv	a3,a5
80002a84:	800037b7          	lui	a5,0x80003
80002a88:	ac078613          	addi	a2,a5,-1344 # 80002ac0 <sprntf>
80002a8c:	00070593          	mv	a1,a4
80002a90:	fd842503          	lw	a0,-40(s0)
80002a94:	86dfd0ef          	jal	80000300 <_fdoprnt>
80002a98:	fe842783          	lw	a5,-24(s0)
80002a9c:	00178713          	addi	a4,a5,1
80002aa0:	fee42423          	sw	a4,-24(s0)
80002aa4:	00078023          	sb	zero,0(a5)
80002aa8:	fdc42783          	lw	a5,-36(s0)
80002aac:	00078513          	mv	a0,a5
80002ab0:	02c12083          	lw	ra,44(sp)
80002ab4:	02812403          	lw	s0,40(sp)
80002ab8:	05010113          	addi	sp,sp,80
80002abc:	00008067          	ret

80002ac0 <sprntf>:
80002ac0:	fd010113          	addi	sp,sp,-48
80002ac4:	02112623          	sw	ra,44(sp)
80002ac8:	02812423          	sw	s0,40(sp)
80002acc:	03010413          	addi	s0,sp,48
80002ad0:	fca42e23          	sw	a0,-36(s0)
80002ad4:	fcb42c23          	sw	a1,-40(s0)
80002ad8:	fdc42783          	lw	a5,-36(s0)
80002adc:	fef42623          	sw	a5,-20(s0)
80002ae0:	fd842783          	lw	a5,-40(s0)
80002ae4:	fef405a3          	sb	a5,-21(s0)
80002ae8:	fec42783          	lw	a5,-20(s0)
80002aec:	0007a783          	lw	a5,0(a5)
80002af0:	00178693          	addi	a3,a5,1
80002af4:	fec42703          	lw	a4,-20(s0)
80002af8:	00d72023          	sw	a3,0(a4)
80002afc:	feb44703          	lbu	a4,-21(s0)
80002b00:	00e78023          	sb	a4,0(a5)
80002b04:	0007c783          	lbu	a5,0(a5)
80002b08:	00078513          	mv	a0,a5
80002b0c:	02c12083          	lw	ra,44(sp)
80002b10:	02812403          	lw	s0,40(sp)
80002b14:	03010113          	addi	sp,sp,48
80002b18:	00008067          	ret

80002b1c <hexDump2>:
80002b1c:	fc010113          	addi	sp,sp,-64
80002b20:	02112e23          	sw	ra,60(sp)
80002b24:	02812c23          	sw	s0,56(sp)
80002b28:	04010413          	addi	s0,sp,64
80002b2c:	fca42623          	sw	a0,-52(s0)
80002b30:	fcb42423          	sw	a1,-56(s0)
80002b34:	fcc42223          	sw	a2,-60(s0)
80002b38:	fc842783          	lw	a5,-56(s0)
80002b3c:	fef42423          	sw	a5,-24(s0)
80002b40:	fe042623          	sw	zero,-20(s0)
80002b44:	12c0006f          	j	80002c70 <hexDump2+0x154>
80002b48:	fec42783          	lw	a5,-20(s0)
80002b4c:	00f7f793          	andi	a5,a5,15
80002b50:	02079e63          	bnez	a5,80002b8c <hexDump2+0x70>
80002b54:	fec42783          	lw	a5,-20(s0)
80002b58:	00078c63          	beqz	a5,80002b70 <hexDump2+0x54>
80002b5c:	fd440793          	addi	a5,s0,-44
80002b60:	00078593          	mv	a1,a5
80002b64:	800037b7          	lui	a5,0x80003
80002b68:	53c78513          	addi	a0,a5,1340 # 8000353c <__modsi3+0x294>
80002b6c:	e4dff0ef          	jal	800029b8 <printf>
80002b70:	fec42703          	lw	a4,-20(s0)
80002b74:	fcc42783          	lw	a5,-52(s0)
80002b78:	00f707b3          	add	a5,a4,a5
80002b7c:	00078593          	mv	a1,a5
80002b80:	800037b7          	lui	a5,0x80003
80002b84:	54478513          	addi	a0,a5,1348 # 80003544 <__modsi3+0x29c>
80002b88:	e31ff0ef          	jal	800029b8 <printf>
80002b8c:	fec42783          	lw	a5,-20(s0)
80002b90:	fe842703          	lw	a4,-24(s0)
80002b94:	00f707b3          	add	a5,a4,a5
80002b98:	0007c783          	lbu	a5,0(a5)
80002b9c:	00078593          	mv	a1,a5
80002ba0:	800037b7          	lui	a5,0x80003
80002ba4:	54c78513          	addi	a0,a5,1356 # 8000354c <__modsi3+0x2a4>
80002ba8:	e11ff0ef          	jal	800029b8 <printf>
80002bac:	fec42783          	lw	a5,-20(s0)
80002bb0:	fe842703          	lw	a4,-24(s0)
80002bb4:	00f707b3          	add	a5,a4,a5
80002bb8:	0007c703          	lbu	a4,0(a5)
80002bbc:	01f00793          	li	a5,31
80002bc0:	00e7fe63          	bgeu	a5,a4,80002bdc <hexDump2+0xc0>
80002bc4:	fec42783          	lw	a5,-20(s0)
80002bc8:	fe842703          	lw	a4,-24(s0)
80002bcc:	00f707b3          	add	a5,a4,a5
80002bd0:	0007c703          	lbu	a4,0(a5)
80002bd4:	07e00793          	li	a5,126
80002bd8:	02e7f863          	bgeu	a5,a4,80002c08 <hexDump2+0xec>
80002bdc:	fec42703          	lw	a4,-20(s0)
80002be0:	41f75793          	srai	a5,a4,0x1f
80002be4:	01c7d793          	srli	a5,a5,0x1c
80002be8:	00f70733          	add	a4,a4,a5
80002bec:	00f77713          	andi	a4,a4,15
80002bf0:	40f707b3          	sub	a5,a4,a5
80002bf4:	ff078793          	addi	a5,a5,-16
80002bf8:	008787b3          	add	a5,a5,s0
80002bfc:	02e00713          	li	a4,46
80002c00:	fee78223          	sb	a4,-28(a5)
80002c04:	0380006f          	j	80002c3c <hexDump2+0x120>
80002c08:	fec42783          	lw	a5,-20(s0)
80002c0c:	fe842703          	lw	a4,-24(s0)
80002c10:	00f706b3          	add	a3,a4,a5
80002c14:	fec42703          	lw	a4,-20(s0)
80002c18:	41f75793          	srai	a5,a4,0x1f
80002c1c:	01c7d793          	srli	a5,a5,0x1c
80002c20:	00f70733          	add	a4,a4,a5
80002c24:	00f77713          	andi	a4,a4,15
80002c28:	40f707b3          	sub	a5,a4,a5
80002c2c:	0006c703          	lbu	a4,0(a3)
80002c30:	ff078793          	addi	a5,a5,-16
80002c34:	008787b3          	add	a5,a5,s0
80002c38:	fee78223          	sb	a4,-28(a5)
80002c3c:	fec42703          	lw	a4,-20(s0)
80002c40:	41f75793          	srai	a5,a4,0x1f
80002c44:	01c7d793          	srli	a5,a5,0x1c
80002c48:	00f70733          	add	a4,a4,a5
80002c4c:	00f77713          	andi	a4,a4,15
80002c50:	40f707b3          	sub	a5,a4,a5
80002c54:	00178793          	addi	a5,a5,1
80002c58:	ff078793          	addi	a5,a5,-16
80002c5c:	008787b3          	add	a5,a5,s0
80002c60:	fe078223          	sb	zero,-28(a5)
80002c64:	fec42783          	lw	a5,-20(s0)
80002c68:	00178793          	addi	a5,a5,1
80002c6c:	fef42623          	sw	a5,-20(s0)
80002c70:	fec42703          	lw	a4,-20(s0)
80002c74:	fc442783          	lw	a5,-60(s0)
80002c78:	ecf748e3          	blt	a4,a5,80002b48 <hexDump2+0x2c>
80002c7c:	01c0006f          	j	80002c98 <hexDump2+0x17c>
80002c80:	800037b7          	lui	a5,0x80003
80002c84:	55478513          	addi	a0,a5,1364 # 80003554 <__modsi3+0x2ac>
80002c88:	d31ff0ef          	jal	800029b8 <printf>
80002c8c:	fec42783          	lw	a5,-20(s0)
80002c90:	00178793          	addi	a5,a5,1
80002c94:	fef42623          	sw	a5,-20(s0)
80002c98:	fec42783          	lw	a5,-20(s0)
80002c9c:	00f7f793          	andi	a5,a5,15
80002ca0:	fe0790e3          	bnez	a5,80002c80 <hexDump2+0x164>
80002ca4:	fd440793          	addi	a5,s0,-44
80002ca8:	00078593          	mv	a1,a5
80002cac:	800037b7          	lui	a5,0x80003
80002cb0:	53c78513          	addi	a0,a5,1340 # 8000353c <__modsi3+0x294>
80002cb4:	d05ff0ef          	jal	800029b8 <printf>
80002cb8:	00000013          	nop
80002cbc:	03c12083          	lw	ra,60(sp)
80002cc0:	03812403          	lw	s0,56(sp)
80002cc4:	04010113          	addi	sp,sp,64
80002cc8:	00008067          	ret

80002ccc <qsort>:
80002ccc:	fe010113          	addi	sp,sp,-32
80002cd0:	00112e23          	sw	ra,28(sp)
80002cd4:	00812c23          	sw	s0,24(sp)
80002cd8:	02010413          	addi	s0,sp,32
80002cdc:	fea42623          	sw	a0,-20(s0)
80002ce0:	feb42423          	sw	a1,-24(s0)
80002ce4:	fec42223          	sw	a2,-28(s0)
80002ce8:	fed42023          	sw	a3,-32(s0)
80002cec:	800057b7          	lui	a5,0x80005
80002cf0:	fe042703          	lw	a4,-32(s0)
80002cf4:	e4e7a623          	sw	a4,-436(a5) # 80004e4c <qscmp>
80002cf8:	800057b7          	lui	a5,0x80005
80002cfc:	fe442703          	lw	a4,-28(s0)
80002d00:	e4e7a823          	sw	a4,-432(a5) # 80004e50 <qses>
80002d04:	fe442783          	lw	a5,-28(s0)
80002d08:	fe842583          	lw	a1,-24(s0)
80002d0c:	00078513          	mv	a0,a5
80002d10:	4f0000ef          	jal	80003200 <__mulsi3>
80002d14:	00050793          	mv	a5,a0
80002d18:	00078713          	mv	a4,a5
80002d1c:	fec42783          	lw	a5,-20(s0)
80002d20:	00e787b3          	add	a5,a5,a4
80002d24:	00078593          	mv	a1,a5
80002d28:	fec42503          	lw	a0,-20(s0)
80002d2c:	018000ef          	jal	80002d44 <qs1>
80002d30:	00000013          	nop
80002d34:	01c12083          	lw	ra,28(sp)
80002d38:	01812403          	lw	s0,24(sp)
80002d3c:	02010113          	addi	sp,sp,32
80002d40:	00008067          	ret

80002d44 <qs1>:
80002d44:	fc010113          	addi	sp,sp,-64
80002d48:	02112e23          	sw	ra,60(sp)
80002d4c:	02812c23          	sw	s0,56(sp)
80002d50:	02912a23          	sw	s1,52(sp)
80002d54:	03212823          	sw	s2,48(sp)
80002d58:	03312623          	sw	s3,44(sp)
80002d5c:	04010413          	addi	s0,sp,64
80002d60:	fca42623          	sw	a0,-52(s0)
80002d64:	fcb42423          	sw	a1,-56(s0)
80002d68:	800057b7          	lui	a5,0x80005
80002d6c:	e507a983          	lw	s3,-432(a5) # 80004e50 <qses>
80002d70:	fc842703          	lw	a4,-56(s0)
80002d74:	fcc42783          	lw	a5,-52(s0)
80002d78:	40f707b3          	sub	a5,a4,a5
80002d7c:	fcf42a23          	sw	a5,-44(s0)
80002d80:	00098713          	mv	a4,s3
80002d84:	fd442783          	lw	a5,-44(s0)
80002d88:	22f77663          	bgeu	a4,a5,80002fb4 <qs1+0x270>
80002d8c:	00199793          	slli	a5,s3,0x1
80002d90:	00078593          	mv	a1,a5
80002d94:	fd442503          	lw	a0,-44(s0)
80002d98:	494000ef          	jal	8000322c <__hidden___udivsi3>
80002d9c:	00050793          	mv	a5,a0
80002da0:	00098713          	mv	a4,s3
80002da4:	00070593          	mv	a1,a4
80002da8:	00078513          	mv	a0,a5
80002dac:	454000ef          	jal	80003200 <__mulsi3>
80002db0:	00050793          	mv	a5,a0
80002db4:	fcf42a23          	sw	a5,-44(s0)
80002db8:	fcc42703          	lw	a4,-52(s0)
80002dbc:	fd442783          	lw	a5,-44(s0)
80002dc0:	00f707b3          	add	a5,a4,a5
80002dc4:	fcf42e23          	sw	a5,-36(s0)
80002dc8:	fdc42783          	lw	a5,-36(s0)
80002dcc:	fcf42c23          	sw	a5,-40(s0)
80002dd0:	fcc42483          	lw	s1,-52(s0)
80002dd4:	00098793          	mv	a5,s3
80002dd8:	40f007b3          	neg	a5,a5
80002ddc:	fc842703          	lw	a4,-56(s0)
80002de0:	00f70933          	add	s2,a4,a5
80002de4:	fdc42783          	lw	a5,-36(s0)
80002de8:	04f4fe63          	bgeu	s1,a5,80002e44 <qs1+0x100>
80002dec:	800057b7          	lui	a5,0x80005
80002df0:	e4c7a783          	lw	a5,-436(a5) # 80004e4c <qscmp>
80002df4:	fdc42583          	lw	a1,-36(s0)
80002df8:	00048513          	mv	a0,s1
80002dfc:	000780e7          	jalr	a5
80002e00:	fca42823          	sw	a0,-48(s0)
80002e04:	fd042783          	lw	a5,-48(s0)
80002e08:	02079463          	bnez	a5,80002e30 <qs1+0xec>
80002e0c:	00098793          	mv	a5,s3
80002e10:	40f007b3          	neg	a5,a5
80002e14:	fdc42703          	lw	a4,-36(s0)
80002e18:	00f707b3          	add	a5,a4,a5
80002e1c:	fcf42e23          	sw	a5,-36(s0)
80002e20:	fdc42583          	lw	a1,-36(s0)
80002e24:	00048513          	mv	a0,s1
80002e28:	1ac000ef          	jal	80002fd4 <qsexc>
80002e2c:	1840006f          	j	80002fb0 <qs1+0x26c>
80002e30:	fd042783          	lw	a5,-48(s0)
80002e34:	0007d863          	bgez	a5,80002e44 <qs1+0x100>
80002e38:	00098793          	mv	a5,s3
80002e3c:	00f484b3          	add	s1,s1,a5
80002e40:	1700006f          	j	80002fb0 <qs1+0x26c>
80002e44:	00000013          	nop
80002e48:	fd842783          	lw	a5,-40(s0)
80002e4c:	0d27f063          	bgeu	a5,s2,80002f0c <qs1+0x1c8>
80002e50:	800057b7          	lui	a5,0x80005
80002e54:	e4c7a783          	lw	a5,-436(a5) # 80004e4c <qscmp>
80002e58:	00090593          	mv	a1,s2
80002e5c:	fd842503          	lw	a0,-40(s0)
80002e60:	000780e7          	jalr	a5
80002e64:	fca42823          	sw	a0,-48(s0)
80002e68:	fd042783          	lw	a5,-48(s0)
80002e6c:	02079263          	bnez	a5,80002e90 <qs1+0x14c>
80002e70:	00098713          	mv	a4,s3
80002e74:	fd842783          	lw	a5,-40(s0)
80002e78:	00e787b3          	add	a5,a5,a4
80002e7c:	fcf42c23          	sw	a5,-40(s0)
80002e80:	00090593          	mv	a1,s2
80002e84:	fd842503          	lw	a0,-40(s0)
80002e88:	14c000ef          	jal	80002fd4 <qsexc>
80002e8c:	fbdff06f          	j	80002e48 <qs1+0x104>
80002e90:	fd042783          	lw	a5,-48(s0)
80002e94:	06f05463          	blez	a5,80002efc <qs1+0x1b8>
80002e98:	fdc42783          	lw	a5,-36(s0)
80002e9c:	02f49e63          	bne	s1,a5,80002ed8 <qs1+0x194>
80002ea0:	00098713          	mv	a4,s3
80002ea4:	fd842783          	lw	a5,-40(s0)
80002ea8:	00e787b3          	add	a5,a5,a4
80002eac:	fcf42c23          	sw	a5,-40(s0)
80002eb0:	00090613          	mv	a2,s2
80002eb4:	fd842583          	lw	a1,-40(s0)
80002eb8:	00048513          	mv	a0,s1
80002ebc:	1a8000ef          	jal	80003064 <qstexc>
80002ec0:	00098713          	mv	a4,s3
80002ec4:	fdc42783          	lw	a5,-36(s0)
80002ec8:	00e787b3          	add	a5,a5,a4
80002ecc:	fcf42e23          	sw	a5,-36(s0)
80002ed0:	fdc42483          	lw	s1,-36(s0)
80002ed4:	f75ff06f          	j	80002e48 <qs1+0x104>
80002ed8:	00090593          	mv	a1,s2
80002edc:	00048513          	mv	a0,s1
80002ee0:	0f4000ef          	jal	80002fd4 <qsexc>
80002ee4:	00098793          	mv	a5,s3
80002ee8:	40f007b3          	neg	a5,a5
80002eec:	00f90933          	add	s2,s2,a5
80002ef0:	00098793          	mv	a5,s3
80002ef4:	00f484b3          	add	s1,s1,a5
80002ef8:	0b80006f          	j	80002fb0 <qs1+0x26c>
80002efc:	00098793          	mv	a5,s3
80002f00:	40f007b3          	neg	a5,a5
80002f04:	00f90933          	add	s2,s2,a5
80002f08:	f41ff06f          	j	80002e48 <qs1+0x104>
80002f0c:	fdc42783          	lw	a5,-36(s0)
80002f10:	06f49263          	bne	s1,a5,80002f74 <qs1+0x230>
80002f14:	fdc42703          	lw	a4,-36(s0)
80002f18:	fcc42783          	lw	a5,-52(s0)
80002f1c:	40f70733          	sub	a4,a4,a5
80002f20:	fc842683          	lw	a3,-56(s0)
80002f24:	fd842783          	lw	a5,-40(s0)
80002f28:	40f687b3          	sub	a5,a3,a5
80002f2c:	02f74463          	blt	a4,a5,80002f54 <qs1+0x210>
80002f30:	00098713          	mv	a4,s3
80002f34:	fd842783          	lw	a5,-40(s0)
80002f38:	00e787b3          	add	a5,a5,a4
80002f3c:	fc842583          	lw	a1,-56(s0)
80002f40:	00078513          	mv	a0,a5
80002f44:	e01ff0ef          	jal	80002d44 <qs1>
80002f48:	fdc42783          	lw	a5,-36(s0)
80002f4c:	fcf42423          	sw	a5,-56(s0)
80002f50:	e21ff06f          	j	80002d70 <qs1+0x2c>
80002f54:	fdc42583          	lw	a1,-36(s0)
80002f58:	fcc42503          	lw	a0,-52(s0)
80002f5c:	de9ff0ef          	jal	80002d44 <qs1>
80002f60:	00098713          	mv	a4,s3
80002f64:	fd842783          	lw	a5,-40(s0)
80002f68:	00e787b3          	add	a5,a5,a4
80002f6c:	fcf42623          	sw	a5,-52(s0)
80002f70:	e01ff06f          	j	80002d70 <qs1+0x2c>
80002f74:	00098793          	mv	a5,s3
80002f78:	40f007b3          	neg	a5,a5
80002f7c:	fdc42703          	lw	a4,-36(s0)
80002f80:	00f707b3          	add	a5,a4,a5
80002f84:	fcf42e23          	sw	a5,-36(s0)
80002f88:	00048613          	mv	a2,s1
80002f8c:	fdc42583          	lw	a1,-36(s0)
80002f90:	00090513          	mv	a0,s2
80002f94:	0d0000ef          	jal	80003064 <qstexc>
80002f98:	00098793          	mv	a5,s3
80002f9c:	40f007b3          	neg	a5,a5
80002fa0:	fd842703          	lw	a4,-40(s0)
80002fa4:	00f707b3          	add	a5,a4,a5
80002fa8:	fcf42c23          	sw	a5,-40(s0)
80002fac:	fd842903          	lw	s2,-40(s0)
80002fb0:	e35ff06f          	j	80002de4 <qs1+0xa0>
80002fb4:	00000013          	nop
80002fb8:	03c12083          	lw	ra,60(sp)
80002fbc:	03812403          	lw	s0,56(sp)
80002fc0:	03412483          	lw	s1,52(sp)
80002fc4:	03012903          	lw	s2,48(sp)
80002fc8:	02c12983          	lw	s3,44(sp)
80002fcc:	04010113          	addi	sp,sp,64
80002fd0:	00008067          	ret

80002fd4 <qsexc>:
80002fd4:	fc010113          	addi	sp,sp,-64
80002fd8:	02112e23          	sw	ra,60(sp)
80002fdc:	02812c23          	sw	s0,56(sp)
80002fe0:	02912a23          	sw	s1,52(sp)
80002fe4:	03212823          	sw	s2,48(sp)
80002fe8:	03312623          	sw	s3,44(sp)
80002fec:	04010413          	addi	s0,sp,64
80002ff0:	fca42623          	sw	a0,-52(s0)
80002ff4:	fcb42423          	sw	a1,-56(s0)
80002ff8:	800057b7          	lui	a5,0x80005
80002ffc:	e507a783          	lw	a5,-432(a5) # 80004e50 <qses>
80003000:	fcf42e23          	sw	a5,-36(s0)
80003004:	fcc42903          	lw	s2,-52(s0)
80003008:	fc842483          	lw	s1,-56(s0)
8000300c:	00094983          	lbu	s3,0(s2)
80003010:	00090793          	mv	a5,s2
80003014:	00178913          	addi	s2,a5,1
80003018:	0004c703          	lbu	a4,0(s1)
8000301c:	00e78023          	sb	a4,0(a5)
80003020:	00048793          	mv	a5,s1
80003024:	00178493          	addi	s1,a5,1
80003028:	01378023          	sb	s3,0(a5)
8000302c:	fdc42783          	lw	a5,-36(s0)
80003030:	fff78793          	addi	a5,a5,-1
80003034:	fcf42e23          	sw	a5,-36(s0)
80003038:	fdc42783          	lw	a5,-36(s0)
8000303c:	fc0798e3          	bnez	a5,8000300c <qsexc+0x38>
80003040:	00000013          	nop
80003044:	00000013          	nop
80003048:	03c12083          	lw	ra,60(sp)
8000304c:	03812403          	lw	s0,56(sp)
80003050:	03412483          	lw	s1,52(sp)
80003054:	03012903          	lw	s2,48(sp)
80003058:	02c12983          	lw	s3,44(sp)
8000305c:	04010113          	addi	sp,sp,64
80003060:	00008067          	ret

80003064 <qstexc>:
80003064:	fc010113          	addi	sp,sp,-64
80003068:	02112e23          	sw	ra,60(sp)
8000306c:	02812c23          	sw	s0,56(sp)
80003070:	02912a23          	sw	s1,52(sp)
80003074:	03212823          	sw	s2,48(sp)
80003078:	03312623          	sw	s3,44(sp)
8000307c:	04010413          	addi	s0,sp,64
80003080:	fca42623          	sw	a0,-52(s0)
80003084:	fcb42423          	sw	a1,-56(s0)
80003088:	fcc42223          	sw	a2,-60(s0)
8000308c:	800057b7          	lui	a5,0x80005
80003090:	e507a783          	lw	a5,-432(a5) # 80004e50 <qses>
80003094:	fcf42e23          	sw	a5,-36(s0)
80003098:	fcc42983          	lw	s3,-52(s0)
8000309c:	fc842483          	lw	s1,-56(s0)
800030a0:	fc442903          	lw	s2,-60(s0)
800030a4:	0009c783          	lbu	a5,0(s3)
800030a8:	fcf42c23          	sw	a5,-40(s0)
800030ac:	00098793          	mv	a5,s3
800030b0:	00178993          	addi	s3,a5,1
800030b4:	00094703          	lbu	a4,0(s2)
800030b8:	00e78023          	sb	a4,0(a5)
800030bc:	00090793          	mv	a5,s2
800030c0:	00178913          	addi	s2,a5,1
800030c4:	0004c703          	lbu	a4,0(s1)
800030c8:	00e78023          	sb	a4,0(a5)
800030cc:	00048793          	mv	a5,s1
800030d0:	00178493          	addi	s1,a5,1
800030d4:	fd842703          	lw	a4,-40(s0)
800030d8:	0ff77713          	zext.b	a4,a4
800030dc:	00e78023          	sb	a4,0(a5)
800030e0:	fdc42783          	lw	a5,-36(s0)
800030e4:	fff78793          	addi	a5,a5,-1
800030e8:	fcf42e23          	sw	a5,-36(s0)
800030ec:	fdc42783          	lw	a5,-36(s0)
800030f0:	fa079ae3          	bnez	a5,800030a4 <qstexc+0x40>
800030f4:	00000013          	nop
800030f8:	00000013          	nop
800030fc:	03c12083          	lw	ra,60(sp)
80003100:	03812403          	lw	s0,56(sp)
80003104:	03412483          	lw	s1,52(sp)
80003108:	03012903          	lw	s2,48(sp)
8000310c:	02c12983          	lw	s3,44(sp)
80003110:	04010113          	addi	sp,sp,64
80003114:	00008067          	ret

80003118 <rand>:
80003118:	ff010113          	addi	sp,sp,-16
8000311c:	00112623          	sw	ra,12(sp)
80003120:	00812423          	sw	s0,8(sp)
80003124:	01010413          	addi	s0,sp,16
80003128:	800057b7          	lui	a5,0x80005
8000312c:	da478513          	addi	a0,a5,-604 # 80004da4 <rand_seed>
80003130:	01c000ef          	jal	8000314c <rand_r>
80003134:	00050793          	mv	a5,a0
80003138:	00078513          	mv	a0,a5
8000313c:	00c12083          	lw	ra,12(sp)
80003140:	00812403          	lw	s0,8(sp)
80003144:	01010113          	addi	sp,sp,16
80003148:	00008067          	ret

8000314c <rand_r>:
8000314c:	fe010113          	addi	sp,sp,-32
80003150:	00112e23          	sw	ra,28(sp)
80003154:	00812c23          	sw	s0,24(sp)
80003158:	02010413          	addi	s0,sp,32
8000315c:	fea42623          	sw	a0,-20(s0)
80003160:	fec42783          	lw	a5,-20(s0)
80003164:	0007a683          	lw	a3,0(a5)
80003168:	00068713          	mv	a4,a3
8000316c:	00271793          	slli	a5,a4,0x2
80003170:	00078713          	mv	a4,a5
80003174:	00d70733          	add	a4,a4,a3
80003178:	00471793          	slli	a5,a4,0x4
8000317c:	40e787b3          	sub	a5,a5,a4
80003180:	00579793          	slli	a5,a5,0x5
80003184:	00d787b3          	add	a5,a5,a3
80003188:	00379713          	slli	a4,a5,0x3
8000318c:	40f70733          	sub	a4,a4,a5
80003190:	800007b7          	lui	a5,0x80000
80003194:	ffe78593          	addi	a1,a5,-2 # 7ffffffe <_start-0x2>
80003198:	00070513          	mv	a0,a4
8000319c:	0d8000ef          	jal	80003274 <__umodsi3>
800031a0:	00050793          	mv	a5,a0
800031a4:	00078713          	mv	a4,a5
800031a8:	fec42783          	lw	a5,-20(s0)
800031ac:	00e7a023          	sw	a4,0(a5)
800031b0:	fec42783          	lw	a5,-20(s0)
800031b4:	0007a783          	lw	a5,0(a5)
800031b8:	00078513          	mv	a0,a5
800031bc:	01c12083          	lw	ra,28(sp)
800031c0:	01812403          	lw	s0,24(sp)
800031c4:	02010113          	addi	sp,sp,32
800031c8:	00008067          	ret

800031cc <srand>:
800031cc:	fe010113          	addi	sp,sp,-32
800031d0:	00112e23          	sw	ra,28(sp)
800031d4:	00812c23          	sw	s0,24(sp)
800031d8:	02010413          	addi	s0,sp,32
800031dc:	fea42623          	sw	a0,-20(s0)
800031e0:	800057b7          	lui	a5,0x80005
800031e4:	fec42703          	lw	a4,-20(s0)
800031e8:	dae7a223          	sw	a4,-604(a5) # 80004da4 <rand_seed>
800031ec:	00000013          	nop
800031f0:	01c12083          	lw	ra,28(sp)
800031f4:	01812403          	lw	s0,24(sp)
800031f8:	02010113          	addi	sp,sp,32
800031fc:	00008067          	ret

80003200 <__mulsi3>:
80003200:	00050613          	mv	a2,a0
80003204:	00000513          	li	a0,0
80003208:	0015f693          	andi	a3,a1,1
8000320c:	00068463          	beqz	a3,80003214 <__mulsi3+0x14>
80003210:	00c50533          	add	a0,a0,a2
80003214:	0015d593          	srli	a1,a1,0x1
80003218:	00161613          	slli	a2,a2,0x1
8000321c:	fe0596e3          	bnez	a1,80003208 <__mulsi3+0x8>
80003220:	00008067          	ret

80003224 <__divsi3>:
80003224:	06054063          	bltz	a0,80003284 <__umodsi3+0x10>
80003228:	0605c663          	bltz	a1,80003294 <__umodsi3+0x20>

8000322c <__hidden___udivsi3>:
8000322c:	00058613          	mv	a2,a1
80003230:	00050593          	mv	a1,a0
80003234:	fff00513          	li	a0,-1
80003238:	02060c63          	beqz	a2,80003270 <__hidden___udivsi3+0x44>
8000323c:	00100693          	li	a3,1
80003240:	00b67a63          	bgeu	a2,a1,80003254 <__hidden___udivsi3+0x28>
80003244:	00c05863          	blez	a2,80003254 <__hidden___udivsi3+0x28>
80003248:	00161613          	slli	a2,a2,0x1
8000324c:	00169693          	slli	a3,a3,0x1
80003250:	feb66ae3          	bltu	a2,a1,80003244 <__hidden___udivsi3+0x18>
80003254:	00000513          	li	a0,0
80003258:	00c5e663          	bltu	a1,a2,80003264 <__hidden___udivsi3+0x38>
8000325c:	40c585b3          	sub	a1,a1,a2
80003260:	00d56533          	or	a0,a0,a3
80003264:	0016d693          	srli	a3,a3,0x1
80003268:	00165613          	srli	a2,a2,0x1
8000326c:	fe0696e3          	bnez	a3,80003258 <__hidden___udivsi3+0x2c>
80003270:	00008067          	ret

80003274 <__umodsi3>:
80003274:	00008293          	mv	t0,ra
80003278:	fb5ff0ef          	jal	8000322c <__hidden___udivsi3>
8000327c:	00058513          	mv	a0,a1
80003280:	00028067          	jr	t0
80003284:	40a00533          	neg	a0,a0
80003288:	00b04863          	bgtz	a1,80003298 <__umodsi3+0x24>
8000328c:	40b005b3          	neg	a1,a1
80003290:	f9dff06f          	j	8000322c <__hidden___udivsi3>
80003294:	40b005b3          	neg	a1,a1
80003298:	00008293          	mv	t0,ra
8000329c:	f91ff0ef          	jal	8000322c <__hidden___udivsi3>
800032a0:	40a00533          	neg	a0,a0
800032a4:	00028067          	jr	t0

800032a8 <__modsi3>:
800032a8:	00008293          	mv	t0,ra
800032ac:	0005ca63          	bltz	a1,800032c0 <__modsi3+0x18>
800032b0:	00054c63          	bltz	a0,800032c8 <__modsi3+0x20>
800032b4:	f79ff0ef          	jal	8000322c <__hidden___udivsi3>
800032b8:	00058513          	mv	a0,a1
800032bc:	00028067          	jr	t0
800032c0:	40b005b3          	neg	a1,a1
800032c4:	fe0558e3          	bgez	a0,800032b4 <__modsi3+0xc>
800032c8:	40a00533          	neg	a0,a0
800032cc:	f61ff0ef          	jal	8000322c <__hidden___udivsi3>
800032d0:	40b00533          	neg	a0,a1
800032d4:	00028067          	jr	t0
800032d8:	7325                	.insn	2, 0x7325
800032da:	000a                	.insn	2, 0x000a
800032dc:	756e                	.insn	2, 0x756e
800032de:	656d                	.insn	2, 0x656d
800032e0:	6f72                	.insn	2, 0x6f72
800032e2:	203a                	.insn	2, 0x203a
800032e4:	6425                	.insn	2, 0x6425
800032e6:	000a                	.insn	2, 0x000a
800032e8:	6f68                	.insn	2, 0x6f68
800032ea:	616c                	.insn	2, 0x616c
800032ec:	6320                	.insn	2, 0x6320
800032ee:	206f6d6f          	jal	s10,800f94f4 <_ebss+0xf46a0>
800032f2:	7365                	.insn	2, 0x7365
800032f4:	6174                	.insn	2, 0x6174
800032f6:	65540073          	.insn	4, 0x65540073
800032fa:	6e697473          	.insn	4, 0x6e697473
800032fe:	756e2067          	.insn	4, 0x756e2067
80003302:	626d                	.insn	2, 0x626d
80003304:	7265                	.insn	2, 0x7265
80003306:	000a3a73          	.insn	4, 0x000a3a73
8000330a:	0000                	.insn	2, 0x
8000330c:	6425                	.insn	2, 0x6425
8000330e:	000a                	.insn	2, 0x000a
80003310:	000a                	.insn	2, 0x000a
80003312:	0000                	.insn	2, 0x
80003314:	6554                	.insn	2, 0x6554
80003316:	6e697473          	.insn	4, 0x6e697473
8000331a:	74732067          	.insn	4, 0x74732067
8000331e:	6972                	.insn	2, 0x6972
80003320:	676e                	.insn	2, 0x676e
80003322:	000a3a73          	.insn	4, 0x000a3a73
80003326:	0000                	.insn	2, 0x
80003328:	706d6953          	.insn	4, 0x706d6953
8000332c:	656c                	.insn	2, 0x656c
8000332e:	7320                	.insn	2, 0x7320
80003330:	7274                	.insn	2, 0x7274
80003332:	6e69                	.insn	2, 0x6e69
80003334:	00000a67          	jalr	s4,zero # 0 <_start-0x80000000>
80003338:	754e                	.insn	2, 0x754e
8000333a:	626d                	.insn	2, 0x626d
8000333c:	7265                	.insn	2, 0x7265
8000333e:	203a                	.insn	2, 0x203a
80003340:	6425                	.insn	2, 0x6425
80003342:	000a                	.insn	2, 0x000a
80003344:	6f68                	.insn	2, 0x6f68
80003346:	616c                	.insn	2, 0x616c
80003348:	6161                	.insn	2, 0x6161
8000334a:	203a                	.insn	2, 0x203a
8000334c:	6425                	.insn	2, 0x6425
8000334e:	000a                	.insn	2, 0x000a
80003350:	6950                	.insn	2, 0x6950
80003352:	6172                	.insn	2, 0x6172
80003354:	696d                	.insn	2, 0x696d
80003356:	6564                	.insn	2, 0x6564
80003358:	6420                	.insn	2, 0x6420
8000335a:	2065                	.insn	2, 0x2065
8000335c:	7361                	.insn	2, 0x7361
8000335e:	6574                	.insn	2, 0x6574
80003360:	6972                	.insn	2, 0x6972
80003362:	736f6373          	.insn	4, 0x736f6373
80003366:	2820                	.insn	2, 0x2820
80003368:	6c61                	.insn	2, 0x6c61
8000336a:	7574                	.insn	2, 0x7574
8000336c:	6172                	.insn	2, 0x6172
8000336e:	3d20                	.insn	2, 0x3d20
80003370:	2520                	.insn	2, 0x2520
80003372:	2964                	.insn	2, 0x2964
80003374:	0a3a                	.insn	2, 0x0a3a
80003376:	000a                	.insn	2, 0x000a
80003378:	0020                	.insn	2, 0x0020
8000337a:	0000                	.insn	2, 0x
8000337c:	002a                	.insn	2, 0x002a
8000337e:	0000                	.insn	2, 0x
80003380:	500a                	.insn	2, 0x500a
80003382:	7269                	.insn	2, 0x7269
80003384:	6d61                	.insn	2, 0x6d61
80003386:	6469                	.insn	2, 0x6469
80003388:	2065                	.insn	2, 0x2065
8000338a:	706d6f63          	bltu	s10,t1,80003aa8 <_PROCEDURE_LINKAGE_TABLE_+0x548>
8000338e:	656c                	.insn	2, 0x656c
80003390:	6174                	.insn	2, 0x6174
80003392:	6164                	.insn	2, 0x6164
80003394:	0a21                	.insn	2, 0x0a21
80003396:	0000                	.insn	2, 0x
80003398:	6e28                	.insn	2, 0x6e28
8000339a:	6c75                	.insn	2, 0x6c75
8000339c:	296c                	.insn	2, 0x296c
8000339e:	0000                	.insn	2, 0x
800033a0:	06c0                	.insn	2, 0x06c0
800033a2:	8000                	.insn	2, 0x8000
800033a4:	0738                	.insn	2, 0x0738
800033a6:	8000                	.insn	2, 0x8000
800033a8:	0738                	.insn	2, 0x0738
800033aa:	8000                	.insn	2, 0x8000
800033ac:	0738                	.insn	2, 0x0738
800033ae:	8000                	.insn	2, 0x8000
800033b0:	0738                	.insn	2, 0x0738
800033b2:	8000                	.insn	2, 0x8000
800033b4:	0738                	.insn	2, 0x0738
800033b6:	8000                	.insn	2, 0x8000
800033b8:	0738                	.insn	2, 0x0738
800033ba:	8000                	.insn	2, 0x8000
800033bc:	0738                	.insn	2, 0x0738
800033be:	8000                	.insn	2, 0x8000
800033c0:	0738                	.insn	2, 0x0738
800033c2:	8000                	.insn	2, 0x8000
800033c4:	0738                	.insn	2, 0x0738
800033c6:	8000                	.insn	2, 0x8000
800033c8:	0710                	.insn	2, 0x0710
800033ca:	8000                	.insn	2, 0x8000
800033cc:	0584                	.insn	2, 0x0584
800033ce:	8000                	.insn	2, 0x8000
800033d0:	05e4                	.insn	2, 0x05e4
800033d2:	8000                	.insn	2, 0x8000
800033d4:	0738                	.insn	2, 0x0738
800033d6:	8000                	.insn	2, 0x8000
800033d8:	0738                	.insn	2, 0x0738
800033da:	8000                	.insn	2, 0x8000
800033dc:	0738                	.insn	2, 0x0738
800033de:	8000                	.insn	2, 0x8000
800033e0:	0738                	.insn	2, 0x0738
800033e2:	8000                	.insn	2, 0x8000
800033e4:	0738                	.insn	2, 0x0738
800033e6:	8000                	.insn	2, 0x8000
800033e8:	0738                	.insn	2, 0x0738
800033ea:	8000                	.insn	2, 0x8000
800033ec:	0738                	.insn	2, 0x0738
800033ee:	8000                	.insn	2, 0x8000
800033f0:	0738                	.insn	2, 0x0738
800033f2:	8000                	.insn	2, 0x8000
800033f4:	0738                	.insn	2, 0x0738
800033f6:	8000                	.insn	2, 0x8000
800033f8:	0738                	.insn	2, 0x0738
800033fa:	8000                	.insn	2, 0x8000
800033fc:	0698                	.insn	2, 0x0698
800033fe:	8000                	.insn	2, 0x8000
80003400:	0738                	.insn	2, 0x0738
80003402:	8000                	.insn	2, 0x8000
80003404:	0738                	.insn	2, 0x0738
80003406:	8000                	.insn	2, 0x8000
80003408:	0738                	.insn	2, 0x0738
8000340a:	8000                	.insn	2, 0x8000
8000340c:	05b0                	.insn	2, 0x05b0
8000340e:	8000                	.insn	2, 0x8000
80003410:	0738                	.insn	2, 0x0738
80003412:	8000                	.insn	2, 0x8000
80003414:	0624                	.insn	2, 0x0624
80003416:	8000                	.insn	2, 0x8000
80003418:	0738                	.insn	2, 0x0738
8000341a:	8000                	.insn	2, 0x8000
8000341c:	0738                	.insn	2, 0x0738
8000341e:	8000                	.insn	2, 0x8000
80003420:	06e8                	.insn	2, 0x06e8
80003422:	8000                	.insn	2, 0x8000
80003424:	0d24                	.insn	2, 0x0d24
80003426:	8000                	.insn	2, 0x8000
80003428:	0dec                	.insn	2, 0x0dec
8000342a:	8000                	.insn	2, 0x8000
8000342c:	0dec                	.insn	2, 0x0dec
8000342e:	8000                	.insn	2, 0x8000
80003430:	0dec                	.insn	2, 0x0dec
80003432:	8000                	.insn	2, 0x8000
80003434:	0dec                	.insn	2, 0x0dec
80003436:	8000                	.insn	2, 0x8000
80003438:	0dec                	.insn	2, 0x0dec
8000343a:	8000                	.insn	2, 0x8000
8000343c:	0dec                	.insn	2, 0x0dec
8000343e:	8000                	.insn	2, 0x8000
80003440:	0dec                	.insn	2, 0x0dec
80003442:	8000                	.insn	2, 0x8000
80003444:	0dec                	.insn	2, 0x0dec
80003446:	8000                	.insn	2, 0x8000
80003448:	0dec                	.insn	2, 0x0dec
8000344a:	8000                	.insn	2, 0x8000
8000344c:	0dec                	.insn	2, 0x0dec
8000344e:	8000                	.insn	2, 0x8000
80003450:	0dec                	.insn	2, 0x0dec
80003452:	8000                	.insn	2, 0x8000
80003454:	0dec                	.insn	2, 0x0dec
80003456:	8000                	.insn	2, 0x8000
80003458:	0dec                	.insn	2, 0x0dec
8000345a:	8000                	.insn	2, 0x8000
8000345c:	0dec                	.insn	2, 0x0dec
8000345e:	8000                	.insn	2, 0x8000
80003460:	0dec                	.insn	2, 0x0dec
80003462:	8000                	.insn	2, 0x8000
80003464:	0cd4                	.insn	2, 0x0cd4
80003466:	8000                	.insn	2, 0x8000
80003468:	0dec                	.insn	2, 0x0dec
8000346a:	8000                	.insn	2, 0x8000
8000346c:	0dec                	.insn	2, 0x0dec
8000346e:	8000                	.insn	2, 0x8000
80003470:	0dec                	.insn	2, 0x0dec
80003472:	8000                	.insn	2, 0x8000
80003474:	0dec                	.insn	2, 0x0dec
80003476:	8000                	.insn	2, 0x8000
80003478:	0dec                	.insn	2, 0x0dec
8000347a:	8000                	.insn	2, 0x8000
8000347c:	0dec                	.insn	2, 0x0dec
8000347e:	8000                	.insn	2, 0x8000
80003480:	0dec                	.insn	2, 0x0dec
80003482:	8000                	.insn	2, 0x8000
80003484:	0dec                	.insn	2, 0x0dec
80003486:	8000                	.insn	2, 0x8000
80003488:	0dec                	.insn	2, 0x0dec
8000348a:	8000                	.insn	2, 0x8000
8000348c:	0dc4                	.insn	2, 0x0dc4
8000348e:	8000                	.insn	2, 0x8000
80003490:	0ba4                	.insn	2, 0x0ba4
80003492:	8000                	.insn	2, 0x8000
80003494:	0c04                	.insn	2, 0x0c04
80003496:	8000                	.insn	2, 0x8000
80003498:	0dec                	.insn	2, 0x0dec
8000349a:	8000                	.insn	2, 0x8000
8000349c:	0dfc                	.insn	2, 0x0dfc
8000349e:	8000                	.insn	2, 0x8000
800034a0:	0dec                	.insn	2, 0x0dec
800034a2:	8000                	.insn	2, 0x8000
800034a4:	0d74                	.insn	2, 0x0d74
800034a6:	8000                	.insn	2, 0x8000
800034a8:	0dec                	.insn	2, 0x0dec
800034aa:	8000                	.insn	2, 0x8000
800034ac:	0dec                	.insn	2, 0x0dec
800034ae:	8000                	.insn	2, 0x8000
800034b0:	0dec                	.insn	2, 0x0dec
800034b2:	8000                	.insn	2, 0x8000
800034b4:	0dec                	.insn	2, 0x0dec
800034b6:	8000                	.insn	2, 0x8000
800034b8:	0dec                	.insn	2, 0x0dec
800034ba:	8000                	.insn	2, 0x8000
800034bc:	0dec                	.insn	2, 0x0dec
800034be:	8000                	.insn	2, 0x8000
800034c0:	0cac                	.insn	2, 0x0cac
800034c2:	8000                	.insn	2, 0x8000
800034c4:	0dec                	.insn	2, 0x0dec
800034c6:	8000                	.insn	2, 0x8000
800034c8:	0dec                	.insn	2, 0x0dec
800034ca:	8000                	.insn	2, 0x8000
800034cc:	0dec                	.insn	2, 0x0dec
800034ce:	8000                	.insn	2, 0x8000
800034d0:	0bd0                	.insn	2, 0x0bd0
800034d2:	8000                	.insn	2, 0x8000
800034d4:	0dec                	.insn	2, 0x0dec
800034d6:	8000                	.insn	2, 0x8000
800034d8:	0c38                	.insn	2, 0x0c38
800034da:	8000                	.insn	2, 0x8000
800034dc:	0dec                	.insn	2, 0x0dec
800034de:	8000                	.insn	2, 0x8000
800034e0:	0dec                	.insn	2, 0x0dec
800034e2:	8000                	.insn	2, 0x8000
800034e4:	0cfc                	.insn	2, 0x0cfc
800034e6:	8000                	.insn	2, 0x8000
800034e8:	3130                	.insn	2, 0x3130
800034ea:	3332                	.insn	2, 0x3332
800034ec:	3534                	.insn	2, 0x3534
800034ee:	3736                	.insn	2, 0x3736
800034f0:	3938                	.insn	2, 0x3938
800034f2:	6261                	.insn	2, 0x6261
800034f4:	66656463          	bltu	a0,t1,80003b5c <_PROCEDURE_LINKAGE_TABLE_+0x5fc>
800034f8:	0000                	.insn	2, 0x
800034fa:	0000                	.insn	2, 0x
800034fc:	3130                	.insn	2, 0x3130
800034fe:	3332                	.insn	2, 0x3332
80003500:	3534                	.insn	2, 0x3534
80003502:	3736                	.insn	2, 0x3736
80003504:	3938                	.insn	2, 0x3938
80003506:	4241                	.insn	2, 0x4241
80003508:	46454443          	.insn	4, 0x46454443
8000350c:	0000                	.insn	2, 0x
8000350e:	0000                	.insn	2, 0x
80003510:	0920                	.insn	2, 0x0920
80003512:	0a0d                	.insn	2, 0x0a0d
80003514:	0000                	.insn	2, 0x
80003516:	0000                	.insn	2, 0x
80003518:	3130                	.insn	2, 0x3130
8000351a:	3332                	.insn	2, 0x3332
8000351c:	3534                	.insn	2, 0x3534
8000351e:	3736                	.insn	2, 0x3736
80003520:	3938                	.insn	2, 0x3938
80003522:	4241                	.insn	2, 0x4241
80003524:	46454443          	.insn	4, 0x46454443
80003528:	4a494847          	.insn	4, 0x4a494847
8000352c:	4e4d4c4b          	.insn	4, 0x4e4d4c4b
80003530:	5251504f          	.insn	4, 0x5251504f
80003534:	56555453          	.insn	4, 0x56555453
80003538:	00595857          	.insn	4, 0x00595857
8000353c:	2020                	.insn	2, 0x2020
8000353e:	7325                	.insn	2, 0x7325
80003540:	000a                	.insn	2, 0x000a
80003542:	0000                	.insn	2, 0x
80003544:	2020                	.insn	2, 0x2020
80003546:	3025                	.insn	2, 0x3025
80003548:	7834                	.insn	2, 0x7834
8000354a:	0020                	.insn	2, 0x0020
8000354c:	2520                	.insn	2, 0x2520
8000354e:	3230                	.insn	2, 0x3230
80003550:	0078                	.insn	2, 0x0078
80003552:	0000                	.insn	2, 0x
80003554:	2020                	.insn	2, 0x2020
80003556:	0020                	.insn	2, 0x0020
