
hello_world_fw.elf:     file format elf32-littleriscv


Disassembly of section .text:

80000000 <_start>:
80000000:	00000093          	li	ra,0
80000004:	00000117          	auipc	sp,0x0
80000008:	79c10113          	addi	sp,sp,1948 # 800007a0 <buffer>
8000000c:	00000193          	li	gp,0
80000010:	00000213          	li	tp,0
80000014:	00000293          	li	t0,0
80000018:	00000313          	li	t1,0
8000001c:	00000393          	li	t2,0
80000020:	00000413          	li	s0,0
80000024:	00000493          	li	s1,0
80000028:	00000513          	li	a0,0
8000002c:	00000593          	li	a1,0
80000030:	00000613          	li	a2,0
80000034:	00000693          	li	a3,0
80000038:	00000713          	li	a4,0
8000003c:	00000793          	li	a5,0
80000040:	00000813          	li	a6,0
80000044:	00000893          	li	a7,0
80000048:	00000913          	li	s2,0
8000004c:	00000993          	li	s3,0
80000050:	00000a13          	li	s4,0
80000054:	00000a93          	li	s5,0
80000058:	00000b13          	li	s6,0
8000005c:	00000b93          	li	s7,0
80000060:	00000c13          	li	s8,0
80000064:	00000c93          	li	s9,0
80000068:	00000d13          	li	s10,0
8000006c:	00000d93          	li	s11,0
80000070:	00000e13          	li	t3,0
80000074:	00000e93          	li	t4,0
80000078:	00000f13          	li	t5,0
8000007c:	00000f93          	li	t6,0
80000080:	00000517          	auipc	a0,0x0
80000084:	72050513          	addi	a0,a0,1824 # 800007a0 <buffer>
80000088:	00000617          	auipc	a2,0x0
8000008c:	77c60613          	addi	a2,a2,1916 # 80000804 <_ebss>
80000090:	40a60633          	sub	a2,a2,a0
80000094:	00000593          	li	a1,0
80000098:	0d4000ef          	jal	8000016c <memset>
8000009c:	140000ef          	jal	800001dc <main>

800000a0 <loop>:
800000a0:	0000006f          	j	800000a0 <loop>

800000a4 <__syscall>:
800000a4:	00050893          	mv	a7,a0
800000a8:	00058513          	mv	a0,a1
800000ac:	00060593          	mv	a1,a2
800000b0:	00068613          	mv	a2,a3
800000b4:	00070693          	mv	a3,a4
800000b8:	00078713          	mv	a4,a5
800000bc:	00000013          	nop
800000c0:	00000013          	nop
800000c4:	00000073          	ecall
800000c8:	00008067          	ret

800000cc <putchar>:
800000cc:	fe010113          	addi	sp,sp,-32
800000d0:	00112e23          	sw	ra,28(sp)
800000d4:	00812c23          	sw	s0,24(sp)
800000d8:	02010413          	addi	s0,sp,32
800000dc:	00050793          	mv	a5,a0
800000e0:	fef407a3          	sb	a5,-17(s0)
800000e4:	fef44703          	lbu	a4,-17(s0)
800000e8:	00a00793          	li	a5,10
800000ec:	00f71663          	bne	a4,a5,800000f8 <putchar+0x2c>
800000f0:	00d00513          	li	a0,13
800000f4:	fd9ff0ef          	jal	800000cc <putchar>
800000f8:	003007b7          	lui	a5,0x300
800000fc:	fef44703          	lbu	a4,-17(s0)
80000100:	00e7a023          	sw	a4,0(a5) # 300000 <_start-0x7fd00000>
80000104:	00000013          	nop
80000108:	01c12083          	lw	ra,28(sp)
8000010c:	01812403          	lw	s0,24(sp)
80000110:	02010113          	addi	sp,sp,32
80000114:	00008067          	ret

80000118 <print>:
80000118:	fe010113          	addi	sp,sp,-32
8000011c:	00112e23          	sw	ra,28(sp)
80000120:	00812c23          	sw	s0,24(sp)
80000124:	02010413          	addi	s0,sp,32
80000128:	fea42623          	sw	a0,-20(s0)
8000012c:	01c0006f          	j	80000148 <print+0x30>
80000130:	fec42783          	lw	a5,-20(s0)
80000134:	00178713          	addi	a4,a5,1
80000138:	fee42623          	sw	a4,-20(s0)
8000013c:	0007c783          	lbu	a5,0(a5)
80000140:	00078513          	mv	a0,a5
80000144:	f89ff0ef          	jal	800000cc <putchar>
80000148:	fec42783          	lw	a5,-20(s0)
8000014c:	0007c783          	lbu	a5,0(a5)
80000150:	fe0790e3          	bnez	a5,80000130 <print+0x18>
80000154:	00000013          	nop
80000158:	00000013          	nop
8000015c:	01c12083          	lw	ra,28(sp)
80000160:	01812403          	lw	s0,24(sp)
80000164:	02010113          	addi	sp,sp,32
80000168:	00008067          	ret

8000016c <memset>:
8000016c:	fd010113          	addi	sp,sp,-48
80000170:	02112623          	sw	ra,44(sp)
80000174:	02812423          	sw	s0,40(sp)
80000178:	03010413          	addi	s0,sp,48
8000017c:	fca42e23          	sw	a0,-36(s0)
80000180:	fcb42c23          	sw	a1,-40(s0)
80000184:	fcc42a23          	sw	a2,-44(s0)
80000188:	fd442783          	lw	a5,-44(s0)
8000018c:	02078c63          	beqz	a5,800001c4 <memset+0x58>
80000190:	fdc42783          	lw	a5,-36(s0)
80000194:	fef42623          	sw	a5,-20(s0)
80000198:	fec42783          	lw	a5,-20(s0)
8000019c:	00178713          	addi	a4,a5,1
800001a0:	fee42623          	sw	a4,-20(s0)
800001a4:	fd842703          	lw	a4,-40(s0)
800001a8:	0ff77713          	zext.b	a4,a4
800001ac:	00e78023          	sb	a4,0(a5)
800001b0:	fd442783          	lw	a5,-44(s0)
800001b4:	fff78793          	addi	a5,a5,-1
800001b8:	fcf42a23          	sw	a5,-44(s0)
800001bc:	fd442783          	lw	a5,-44(s0)
800001c0:	fc079ce3          	bnez	a5,80000198 <memset+0x2c>
800001c4:	fdc42783          	lw	a5,-36(s0)
800001c8:	00078513          	mv	a0,a5
800001cc:	02c12083          	lw	ra,44(sp)
800001d0:	02812403          	lw	s0,40(sp)
800001d4:	03010113          	addi	sp,sp,48
800001d8:	00008067          	ret

800001dc <main>:
800001dc:	fa010113          	addi	sp,sp,-96
800001e0:	04112e23          	sw	ra,92(sp)
800001e4:	04812c23          	sw	s0,88(sp)
800001e8:	06010413          	addi	s0,sp,96
800001ec:	fe042623          	sw	zero,-20(s0)
800001f0:	fa840793          	addi	a5,s0,-88
800001f4:	04200613          	li	a2,66
800001f8:	00000593          	li	a1,0
800001fc:	00078513          	mv	a0,a5
80000200:	f6dff0ef          	jal	8000016c <memset>
80000204:	06400613          	li	a2,100
80000208:	06300593          	li	a1,99
8000020c:	800007b7          	lui	a5,0x80000
80000210:	7a078513          	addi	a0,a5,1952 # 800007a0 <buffer>
80000214:	f59ff0ef          	jal	8000016c <memset>
80000218:	800007b7          	lui	a5,0x80000
8000021c:	27478513          	addi	a0,a5,628 # 80000274 <main+0x98>
80000220:	ef9ff0ef          	jal	80000118 <print>
80000224:	fec42783          	lw	a5,-20(s0)
80000228:	00178793          	addi	a5,a5,1
8000022c:	fef42623          	sw	a5,-20(s0)
80000230:	800007b7          	lui	a5,0x80000
80000234:	2a478513          	addi	a0,a5,676 # 800002a4 <main+0xc8>
80000238:	ee1ff0ef          	jal	80000118 <print>
8000023c:	fec42703          	lw	a4,-20(s0)
80000240:	00a00793          	li	a5,10
80000244:	00f70463          	beq	a4,a5,8000024c <main+0x70>
80000248:	fddff06f          	j	80000224 <main+0x48>
8000024c:	00000013          	nop
80000250:	800007b7          	lui	a5,0x80000
80000254:	2ac78513          	addi	a0,a5,684 # 800002ac <main+0xd0>
80000258:	ec1ff0ef          	jal	80000118 <print>
8000025c:	00000793          	li	a5,0
80000260:	00078513          	mv	a0,a5
80000264:	05c12083          	lw	ra,92(sp)
80000268:	05812403          	lw	s0,88(sp)
8000026c:	06010113          	addi	sp,sp,96
80000270:	00008067          	ret
80000274:	6548                	.insn	2, 0x6548
80000276:	6c6c                	.insn	2, 0x6c6c
80000278:	6f57206f          	j	8007316c <_ebss+0x72968>
8000027c:	6c72                	.insn	2, 0x6c72
8000027e:	2064                	.insn	2, 0x2064
80000280:	7266                	.insn	2, 0x7266
80000282:	61206d6f          	jal	s10,80006894 <_ebss+0x6090>
80000286:	7320                	.insn	2, 0x7320
80000288:	6d69                	.insn	2, 0x6d69
8000028a:	6c70                	.insn	2, 0x6c70
8000028c:	2065                	.insn	2, 0x2065
8000028e:	5652                	.insn	2, 0x5652
80000290:	20493233          	.insn	4, 0x20493233
80000294:	5349                	.insn	2, 0x5349
80000296:	2041                	.insn	2, 0x2041
80000298:	6d65                	.insn	2, 0x6d65
8000029a:	6c75                	.insn	2, 0x6c75
8000029c:	7461                	.insn	2, 0x7461
8000029e:	0a21726f          	jal	tp,80017340 <_ebss+0x16b3c>
800002a2:	0000                	.insn	2, 0x
800002a4:	6574                	.insn	2, 0x6574
800002a6:	000a7473          	.insn	4, 0x000a7473
800002aa:	0000                	.insn	2, 0x
800002ac:	7942                	.insn	2, 0x7942
800002ae:	2165                	.insn	2, 0x2165
800002b0:	000a                	.insn	2, 0x000a
	...
